Component: ARM Compiler 5.06 update 7 (build 960) Tool: armlink [4d3601]

==============================================================================

Section Cross References

    main.o(i.main) refers to mcu_core.o(i.Core_Init) for Core_Init
    main.o(i.main) refers to hal.o(i._ZN3HAL8HAL_InitEv) for HAL::HAL_Init()
    main.o(i.main) refers to lv_obj.o(i.lv_init) for lv_init
    main.o(i.main) refers to lv_port.o(i._Z12lv_port_initv) for lv_port_init()
    main.o(i.main) refers to app.o(i._Z8App_Initv) for App_Init()
    main.o(i.main) refers to hal_power.o(i._ZN3HAL22Power_SetEventCallbackEPFvvE) for HAL::Power_SetEventCallback(void(*)())
    main.o(i.main) refers to hal_memory.o(i._ZN3HAL15Memory_DumpInfoEv) for HAL::Memory_DumpInfo()
    main.o(i.main) refers to hal.o(i._ZN3HAL10HAL_UpdateEv) for HAL::HAL_Update()
    main.o(i.main) refers to lv_timer.o(i.lv_timer_handler) for lv_timer_handler
    main.o(i.main) refers to app.o(i._Z10App_Uninitv) for App_Uninit()
    main.o(.ARM.exidx) refers to main.o(i.main) for i.main
    app.o(i._Z10App_Uninitv) refers to rt_memclr_w.o(.text) for __aeabi_memclr4
    app.o(i._Z10App_Uninitv) refers to dataproc.o(i._ZN8DataProc6CenterEv) for DataProc::Center()
    app.o(i._Z10App_Uninitv) refers to account.o(i._ZN7Account6NotifyEPKcPKvj) for Account::Notify(const char*, const void*, unsigned)
    app.o(i._Z8App_Initv) refers to cxa_guard_acquire.o(i.__cxa_guard_acquire) for __cxa_guard_acquire
    app.o(i._Z8App_Initv) refers to pm_base.o(i._ZN11PageManagerC1EP11PageFactory) for PageManager::PageManager(PageFactory*)
    app.o(i._Z8App_Initv) refers to aeabi_atexit.o(.text) for __aeabi_atexit
    app.o(i._Z8App_Initv) refers to dataproc.o(i._Z13DataProc_Initv) for DataProc_Init()
    app.o(i._Z8App_Initv) refers to dataproc.o(i._ZN8DataProc6CenterEv) for DataProc::Center()
    app.o(i._Z8App_Initv) refers to account.o(i._ZN7Account6NotifyEPKcPKvj) for Account::Notify(const char*, const void*, unsigned)
    app.o(i._Z8App_Initv) refers to rt_memclr_w.o(.text) for __aeabi_memclr4
    app.o(i._Z8App_Initv) refers to lv_hal_disp.o(i.lv_disp_get_default) for lv_disp_get_default
    app.o(i._Z8App_Initv) refers to lv_disp.o(i.lv_disp_get_scr_act) for lv_disp_get_scr_act
    app.o(i._Z8App_Initv) refers to lv_obj_style.o(i.lv_obj_remove_style) for lv_obj_remove_style
    app.o(i._Z8App_Initv) refers to lv_obj.o(i.lv_obj_clear_flag) for lv_obj_clear_flag
    app.o(i._Z8App_Initv) refers to lv_disp.o(i.lv_disp_set_bg_color) for lv_disp_set_bg_color
    app.o(i._Z8App_Initv) refers to resourcepool.o(i._ZN12ResourcePool4InitEv) for ResourcePool::Init()
    app.o(i._Z8App_Initv) refers to lv_disp.o(i.lv_disp_get_layer_top) for lv_disp_get_layer_top
    app.o(i._Z8App_Initv) refers to statusbar.o(i._ZN4Page16StatusBar_CreateEP9_lv_obj_t) for Page::StatusBar_Create(_lv_obj_t*)
    app.o(i._Z8App_Initv) refers to pm_base.o(i._ZN11PageManager7InstallEPKcS1_) for PageManager::Install(const char*, const char*)
    app.o(i._Z8App_Initv) refers to pm_router.o(i._ZN11PageManager21SetGlobalLoadAnimTypeENS_10LoadAnim_tEtPFiPK10_lv_anim_tE) for PageManager::SetGlobalLoadAnimType(PageManager::LoadAnim_t, unsigned short, int(*)(const _lv_anim_t*))
    app.o(i._Z8App_Initv) refers to pm_router.o(i._ZN11PageManager4PushEPKcPKN8PageBase7Stash_tE) for PageManager::Push(const char*, const PageBase::Stash_t*)
    app.o(i._Z8App_Initv) refers to app.o(.data) for .data
    app.o(i._Z8App_Initv) refers to appfactory.o(.constdata__ZTV10AppFactory) for vtable for AppFactory
    app.o(i._Z8App_Initv) refers to app.o(.bss) for .bss
    app.o(i._Z8App_Initv) refers to pm_base.o(i._ZN11PageManagerD1Ev) for PageManager::~PageManager()
    app.o(i._Z8App_Initv) refers to lv_anim.o(i.lv_anim_path_ease_out) for lv_anim_path_ease_out
    app.o(.ARM.exidx) refers to app.o(i._Z8App_Initv) for i._Z8App_Initv
    app.o(.ARM.exidx) refers to app.o(i._Z10App_Uninitv) for i._Z10App_Uninitv
    dataproc.o(i._Z13DataProc_Initv) refers to new.o(i._Znwj) for operator new(unsigned)
    dataproc.o(i._Z13DataProc_Initv) refers to account.o(i._ZN7AccountC1EPKcP10DataCenterjPv) for Account::Account(const char*, DataCenter*, unsigned, void*)
    dataproc.o(i._Z13DataProc_Initv) refers to dp_storage.o(i._Z16_DP_Storage_InitP7Account) for _DP_Storage_Init(Account*)
    dataproc.o(i._Z13DataProc_Initv) refers to dp_clock.o(i._Z14_DP_Clock_InitP7Account) for _DP_Clock_Init(Account*)
    dataproc.o(i._Z13DataProc_Initv) refers to dp_gps.o(i._Z12_DP_GPS_InitP7Account) for _DP_GPS_Init(Account*)
    dataproc.o(i._Z13DataProc_Initv) refers to dp_power.o(i._Z14_DP_Power_InitP7Account) for _DP_Power_Init(Account*)
    dataproc.o(i._Z13DataProc_Initv) refers to dp_sportstatus.o(i._Z20_DP_SportStatus_InitP7Account) for _DP_SportStatus_Init(Account*)
    dataproc.o(i._Z13DataProc_Initv) refers to dp_recorder.o(i._Z17_DP_Recorder_InitP7Account) for _DP_Recorder_Init(Account*)
    dataproc.o(i._Z13DataProc_Initv) refers to dp_imu.o(i._Z12_DP_IMU_InitP7Account) for _DP_IMU_Init(Account*)
    dataproc.o(i._Z13DataProc_Initv) refers to dp_mag.o(i._Z12_DP_MAG_InitP7Account) for _DP_MAG_Init(Account*)
    dataproc.o(i._Z13DataProc_Initv) refers to statusbar.o(i._Z18_DP_StatusBar_InitP7Account) for _DP_StatusBar_Init(Account*)
    dataproc.o(i._Z13DataProc_Initv) refers to dp_musicplayer.o(i._Z20_DP_MusicPlayer_InitP7Account) for _DP_MusicPlayer_Init(Account*)
    dataproc.o(i._Z13DataProc_Initv) refers to dp_tzconv.o(i._Z15_DP_TzConv_InitP7Account) for _DP_TzConv_Init(Account*)
    dataproc.o(i._Z13DataProc_Initv) refers to dp_sysconfig.o(i._Z18_DP_SysConfig_InitP7Account) for _DP_SysConfig_Init(Account*)
    dataproc.o(i._Z13DataProc_Initv) refers to dp_trackfilter.o(i._Z20_DP_TrackFilter_InitP7Account) for _DP_TrackFilter_Init(Account*)
    dataproc.o(i._Z13DataProc_Initv) refers to dp_backlightctrl.o(i._Z22_DP_BacklightCtrl_InitP7Account) for _DP_BacklightCtrl_Init(Account*)
    dataproc.o(i._Z13DataProc_Initv) refers to dataproc.o(.bss) for .bss
    dataproc.o(i._ZN8DataProc6CenterEv) refers to dataproc.o(.bss) for .bss
    dataproc.o(i.__sti___12_DataProc_cpp_e3929772) refers to datacenter.o(i._ZN10DataCenterC1EPKc) for DataCenter::DataCenter(const char*)
    dataproc.o(i.__sti___12_DataProc_cpp_e3929772) refers to aeabi_atexit.o(.text) for __aeabi_atexit
    dataproc.o(i.__sti___12_DataProc_cpp_e3929772) refers to dataproc.o(.bss) for .bss
    dataproc.o(i.__sti___12_DataProc_cpp_e3929772) refers to datacenter.o(i._ZN10DataCenterD1Ev) for DataCenter::~DataCenter()
    dataproc.o(.ARM.exidx) refers to dataproc.o(i._Z13DataProc_Initv) for i._Z13DataProc_Initv
    dataproc.o(.ARM.exidx) refers to dataproc.o(i._ZN8DataProc6CenterEv) for i._ZN8DataProc6CenterEv
    dataproc.o(.ARM.exidx) refers to dataproc.o(i.__sti___12_DataProc_cpp_e3929772) for i.__sti___12_DataProc_cpp_e3929772
    dataproc.o(.init_array) refers to dataproc.o(i.__sti___12_DataProc_cpp_e3929772) for __sti___12_DataProc_cpp_e3929772
    dataproc.o(.init_array) refers to init_aeabi.o(.text) for __cpp_initialize__aeabi_
    dp_clock.o(i._Z14_DP_Clock_InitP7Account) refers to account.o(i._ZN7Account9SubscribeEPKc) for Account::Subscribe(const char*)
    dp_clock.o(i._Z14_DP_Clock_InitP7Account) refers to account.o(i._ZN7Account16SetEventCallbackEPFiPS_PNS_12EventParam_tEE) for Account::SetEventCallback(int(*)(Account*, Account::EventParam_t*))
    dp_clock.o(i._Z14_DP_Clock_InitP7Account) refers to dp_clock.o(i._ZN34_INTERNAL_12_DP_Clock_cpp_484d96a67onEventEP7AccountPNS0_12EventParam_tE) for [local to DP_Clock_cpp]::onEvent(Account*, Account::EventParam_t*)
    dp_clock.o(i._ZN34_INTERNAL_12_DP_Clock_cpp_484d96a67onEventEP7AccountPNS0_12EventParam_tE) refers to account.o(i._ZN7Account4PullEPKcPvj) for Account::Pull(const char*, void*, unsigned)
    dp_clock.o(i._ZN34_INTERNAL_12_DP_Clock_cpp_484d96a67onEventEP7AccountPNS0_12EventParam_tE) refers to hal_clock.o(i._ZN3HAL13Clock_SetInfoEPKNS_12Clock_Info_tE) for HAL::Clock_SetInfo(const HAL::Clock_Info_t*)
    dp_clock.o(i._ZN34_INTERNAL_12_DP_Clock_cpp_484d96a67onEventEP7AccountPNS0_12EventParam_tE) refers to account.o(i._ZN7Account11UnsubscribeEPKc) for Account::Unsubscribe(const char*)
    dp_clock.o(i._ZN34_INTERNAL_12_DP_Clock_cpp_484d96a67onEventEP7AccountPNS0_12EventParam_tE) refers to hal_clock.o(i._ZN3HAL13Clock_GetInfoEPNS_12Clock_Info_tE) for HAL::Clock_GetInfo(HAL::Clock_Info_t*)
    dp_clock.o(i._ZN8DataProc12GetTickElapsEj) refers to lv_hal_tick.o(i.lv_tick_elaps) for lv_tick_elaps
    dp_clock.o(i._ZN8DataProc14MakeTimeStringEyPct) refers to _printf_pad.o(.text) for _printf_pre_padding
    dp_clock.o(i._ZN8DataProc14MakeTimeStringEyPct) refers to _printf_percent.o(.ARM.Collect$$_printf_percent$$00000000) for _printf_percent
    dp_clock.o(i._ZN8DataProc14MakeTimeStringEyPct) refers to _printf_d.o(.ARM.Collect$$_printf_percent$$00000009) for _printf_d
    dp_clock.o(i._ZN8DataProc14MakeTimeStringEyPct) refers to _printf_dec.o(.text) for _printf_int_dec
    dp_clock.o(i._ZN8DataProc14MakeTimeStringEyPct) refers to lludivv7m.o(.text) for __aeabi_uldivmod
    dp_clock.o(i._ZN8DataProc14MakeTimeStringEyPct) refers to __2snprintf.o(.text) for __2snprintf
    dp_clock.o(i._ZN8DataProc7GetTickEv) refers to lv_hal_tick.o(i.lv_tick_get) for lv_tick_get
    dp_clock.o(.ARM.exidx) refers to dp_clock.o(i._ZN34_INTERNAL_12_DP_Clock_cpp_484d96a67onEventEP7AccountPNS0_12EventParam_tE) for i._ZN34_INTERNAL_12_DP_Clock_cpp_484d96a67onEventEP7AccountPNS0_12EventParam_tE
    dp_clock.o(.ARM.exidx) refers to dp_clock.o(i._Z14_DP_Clock_InitP7Account) for i._Z14_DP_Clock_InitP7Account
    dp_clock.o(.ARM.exidx) refers to dp_clock.o(i._ZN8DataProc7GetTickEv) for i._ZN8DataProc7GetTickEv
    dp_clock.o(.ARM.exidx) refers to dp_clock.o(i._ZN8DataProc12GetTickElapsEj) for i._ZN8DataProc12GetTickElapsEj
    dp_clock.o(.ARM.exidx) refers to dp_clock.o(i._ZN8DataProc14MakeTimeStringEyPct) for i._ZN8DataProc14MakeTimeStringEyPct
    dp_gps.o(i._Z12_DP_GPS_InitP7Account) refers to account.o(i._ZN7Account9SubscribeEPKc) for Account::Subscribe(const char*)
    dp_gps.o(i._Z12_DP_GPS_InitP7Account) refers to account.o(i._ZN7Account16SetEventCallbackEPFiPS_PNS_12EventParam_tEE) for Account::SetEventCallback(int(*)(Account*, Account::EventParam_t*))
    dp_gps.o(i._Z12_DP_GPS_InitP7Account) refers to account.o(i._ZN7Account14SetTimerPeriodEj) for Account::SetTimerPeriod(unsigned)
    dp_gps.o(i._Z12_DP_GPS_InitP7Account) refers to dp_gps.o(i._ZN32_INTERNAL_10_DP_GPS_cpp_3fe63fd77onEventEP7AccountPNS0_12EventParam_tE) for [local to DP_GPS_cpp]::onEvent(Account*, Account::EventParam_t*)
    dp_gps.o(i._ZN32_INTERNAL_10_DP_GPS_cpp_3fe63fd77onEventEP7AccountPNS0_12EventParam_tE) refers to dp_gps.o(i._ZN32_INTERNAL_10_DP_GPS_cpp_3fe63fd77onTimerEP7Account) for [local to DP_GPS_cpp]::onTimer(Account*)
    dp_gps.o(i._ZN32_INTERNAL_10_DP_GPS_cpp_3fe63fd77onEventEP7AccountPNS0_12EventParam_tE) refers to hal_gps.o(i._ZN3HAL11GPS_GetInfoEPNS_10GPS_Info_tE) for HAL::GPS_GetInfo(HAL::GPS_Info_t*)
    dp_gps.o(i._ZN32_INTERNAL_10_DP_GPS_cpp_3fe63fd77onTimerEP7Account) refers to hal_gps.o(i._ZN3HAL11GPS_GetInfoEPNS_10GPS_Info_tE) for HAL::GPS_GetInfo(HAL::GPS_Info_t*)
    dp_gps.o(i._ZN32_INTERNAL_10_DP_GPS_cpp_3fe63fd77onTimerEP7Account) refers to account.o(i._ZN7Account6NotifyEPKcPKvj) for Account::Notify(const char*, const void*, unsigned)
    dp_gps.o(i._ZN32_INTERNAL_10_DP_GPS_cpp_3fe63fd77onTimerEP7Account) refers to account.o(i._ZN7Account6CommitEPKvj) for Account::Commit(const void*, unsigned)
    dp_gps.o(i._ZN32_INTERNAL_10_DP_GPS_cpp_3fe63fd77onTimerEP7Account) refers to account.o(i._ZN7Account7PublishEv) for Account::Publish()
    dp_gps.o(i._ZN32_INTERNAL_10_DP_GPS_cpp_3fe63fd77onTimerEP7Account) refers to dp_gps.o(.data) for .data
    dp_gps.o(i._ZN32_INTERNAL_10_DP_GPS_cpp_3fe63fd77onTimerEP7Account) refers to dp_gps.o(.constdata) for .constdata
    dp_gps.o(.ARM.exidx) refers to dp_gps.o(i._ZN32_INTERNAL_10_DP_GPS_cpp_3fe63fd77onEventEP7AccountPNS0_12EventParam_tE) for i._ZN32_INTERNAL_10_DP_GPS_cpp_3fe63fd77onEventEP7AccountPNS0_12EventParam_tE
    dp_gps.o(.ARM.exidx) refers to dp_gps.o(i._Z12_DP_GPS_InitP7Account) for i._Z12_DP_GPS_InitP7Account
    dp_gps.o(.ARM.exidx) refers to dp_gps.o(i._ZN32_INTERNAL_10_DP_GPS_cpp_3fe63fd77onTimerEP7Account) for i._ZN32_INTERNAL_10_DP_GPS_cpp_3fe63fd77onTimerEP7Account
    dp_gps.o(.constdata) refers to dp_gps.o(.conststring) for .conststring
    dp_imu.o(i._Z12_DP_IMU_InitP7Account) refers to hal_imu.o(i._ZN3HAL21IMU_SetCommitCallbackEPFbPvS0_ES0_) for HAL::IMU_SetCommitCallback(bool(*)(void*, void*), void*)
    dp_imu.o(i._Z12_DP_IMU_InitP7Account) refers to dp_imu.o(i._ZZ12_DP_IMU_InitP7AccountENUlPvS1_E_4_FUNES1_S1_) for _DP_IMU_Init(Account*)::[lambda(void*, void*) (instance 1)]::_FUN(void*, void*)
    dp_imu.o(i._ZZ12_DP_IMU_InitP7AccountENUlPvS1_E_4_FUNES1_S1_) refers to account.o(i._ZN7Account6CommitEPKvj) for Account::Commit(const void*, unsigned)
    dp_imu.o(.ARM.exidx) refers to dp_imu.o(i._ZZ12_DP_IMU_InitP7AccountENUlPvS1_E_4_FUNES1_S1_) for i._ZZ12_DP_IMU_InitP7AccountENUlPvS1_E_4_FUNES1_S1_
    dp_imu.o(.ARM.exidx) refers to dp_imu.o(i._Z12_DP_IMU_InitP7Account) for i._Z12_DP_IMU_InitP7Account
    dp_mag.o(i._Z12_DP_MAG_InitP7Account) refers to hal_mag.o(i._ZN3HAL21MAG_SetCommitCallbackEPFbPvS0_ES0_) for HAL::MAG_SetCommitCallback(bool(*)(void*, void*), void*)
    dp_mag.o(i._Z12_DP_MAG_InitP7Account) refers to dp_mag.o(i._ZZ12_DP_MAG_InitP7AccountENUlPvS1_E_4_FUNES1_S1_) for _DP_MAG_Init(Account*)::[lambda(void*, void*) (instance 1)]::_FUN(void*, void*)
    dp_mag.o(i._ZZ12_DP_MAG_InitP7AccountENUlPvS1_E_4_FUNES1_S1_) refers to account.o(i._ZN7Account6CommitEPKvj) for Account::Commit(const void*, unsigned)
    dp_mag.o(.ARM.exidx) refers to dp_mag.o(i._ZZ12_DP_MAG_InitP7AccountENUlPvS1_E_4_FUNES1_S1_) for i._ZZ12_DP_MAG_InitP7AccountENUlPvS1_E_4_FUNES1_S1_
    dp_mag.o(.ARM.exidx) refers to dp_mag.o(i._Z12_DP_MAG_InitP7Account) for i._Z12_DP_MAG_InitP7Account
    dp_musicplayer.o(i._Z20_DP_MusicPlayer_InitP7Account) refers to account.o(i._ZN7Account16SetEventCallbackEPFiPS_PNS_12EventParam_tEE) for Account::SetEventCallback(int(*)(Account*, Account::EventParam_t*))
    dp_musicplayer.o(i._Z20_DP_MusicPlayer_InitP7Account) refers to dp_musicplayer.o(i._ZN40_INTERNAL_18_DP_MusicPlayer_cpp_a05c14dc7onEventEP7AccountPNS0_12EventParam_tE) for [local to DP_MusicPlayer_cpp]::onEvent(Account*, Account::EventParam_t*)
    dp_musicplayer.o(i._ZN40_INTERNAL_18_DP_MusicPlayer_cpp_a05c14dc7onEventEP7AccountPNS0_12EventParam_tE) refers to hal_audio.o(i._ZN3HAL15Audio_PlayMusicEPKc) for HAL::Audio_PlayMusic(const char*)
    dp_musicplayer.o(.ARM.exidx) refers to dp_musicplayer.o(i._ZN40_INTERNAL_18_DP_MusicPlayer_cpp_a05c14dc7onEventEP7AccountPNS0_12EventParam_tE) for i._ZN40_INTERNAL_18_DP_MusicPlayer_cpp_a05c14dc7onEventEP7AccountPNS0_12EventParam_tE
    dp_musicplayer.o(.ARM.exidx) refers to dp_musicplayer.o(i._Z20_DP_MusicPlayer_InitP7Account) for i._Z20_DP_MusicPlayer_InitP7Account
    dp_power.o(i._Z14_DP_Power_InitP7Account) refers to account.o(i._ZN7Account9SubscribeEPKc) for Account::Subscribe(const char*)
    dp_power.o(i._Z14_DP_Power_InitP7Account) refers to account.o(i._ZN7Account16SetEventCallbackEPFiPS_PNS_12EventParam_tEE) for Account::SetEventCallback(int(*)(Account*, Account::EventParam_t*))
    dp_power.o(i._Z14_DP_Power_InitP7Account) refers to account.o(i._ZN7Account14SetTimerPeriodEj) for Account::SetTimerPeriod(unsigned)
    dp_power.o(i._Z14_DP_Power_InitP7Account) refers to dp_power.o(i._ZN34_INTERNAL_12_DP_Power_cpp_e593e1547onEventEP7AccountPNS0_12EventParam_tE) for [local to DP_Power_cpp]::onEvent(Account*, Account::EventParam_t*)
    dp_power.o(i._ZN34_INTERNAL_12_DP_Power_cpp_e593e1547onEventEP7AccountPNS0_12EventParam_tE) refers to cxa_guard_acquire.o(i.__cxa_guard_acquire) for __cxa_guard_acquire
    dp_power.o(i._ZN34_INTERNAL_12_DP_Power_cpp_e593e1547onEventEP7AccountPNS0_12EventParam_tE) refers to hal_power.o(i._ZN3HAL13Power_GetInfoEPNS_12Power_Info_tE) for HAL::Power_GetInfo(HAL::Power_Info_t*)
    dp_power.o(i._ZN34_INTERNAL_12_DP_Power_cpp_e593e1547onEventEP7AccountPNS0_12EventParam_tE) refers to account.o(i._ZN7Account6NotifyEPKcPKvj) for Account::Notify(const char*, const void*, unsigned)
    dp_power.o(i._ZN34_INTERNAL_12_DP_Power_cpp_e593e1547onEventEP7AccountPNS0_12EventParam_tE) refers to dp_power.o(t._ZN6Filter10HysteresisIsE7GetNextEs) for Filter::Hysteresis<short>::GetNext(short)
    dp_power.o(i._ZN34_INTERNAL_12_DP_Power_cpp_e593e1547onEventEP7AccountPNS0_12EventParam_tE) refers to dp_power.o(t._ZN6Filter11MedianQueueIsLj10EE7GetNextEs) for Filter::MedianQueue<short, (unsigned)10>::GetNext(short)
    dp_power.o(i._ZN34_INTERNAL_12_DP_Power_cpp_e593e1547onEventEP7AccountPNS0_12EventParam_tE) refers to rt_memcpy_v6.o(.text) for __aeabi_memcpy
    dp_power.o(i._ZN34_INTERNAL_12_DP_Power_cpp_e593e1547onEventEP7AccountPNS0_12EventParam_tE) refers to dp_power.o(.data) for .data
    dp_power.o(i._ZN34_INTERNAL_12_DP_Power_cpp_e593e1547onEventEP7AccountPNS0_12EventParam_tE) refers to dp_power.o(.bss) for .bss
    dp_power.o(i._ZN34_INTERNAL_12_DP_Power_cpp_e593e1547onEventEP7AccountPNS0_12EventParam_tE) refers to dp_power.o(.constdata__ZTVN6Filter10HysteresisIsEE) for vtable for Filter::Hysteresis<short>
    dp_power.o(i._ZN34_INTERNAL_12_DP_Power_cpp_e593e1547onEventEP7AccountPNS0_12EventParam_tE) refers to dp_power.o(.constdata__ZTVN6Filter11MedianQueueIsLj10EEE) for vtable for Filter::MedianQueue<short, (unsigned)10>
    dp_power.o(.ARM.exidx) refers to dp_power.o(i._ZN34_INTERNAL_12_DP_Power_cpp_e593e1547onEventEP7AccountPNS0_12EventParam_tE) for i._ZN34_INTERNAL_12_DP_Power_cpp_e593e1547onEventEP7AccountPNS0_12EventParam_tE
    dp_power.o(.ARM.exidx) refers to dp_power.o(i._Z14_DP_Power_InitP7Account) for i._Z14_DP_Power_InitP7Account
    dp_recorder.o(i._Z17_DP_Recorder_InitP7Account) refers to cxa_guard_acquire.o(i.__cxa_guard_acquire) for __cxa_guard_acquire
    dp_recorder.o(i._Z17_DP_Recorder_InitP7Account) refers to gpx.o(i._ZN3GPXC1Ev) for GPX::GPX()
    dp_recorder.o(i._Z17_DP_Recorder_InitP7Account) refers to aeabi_atexit.o(.text) for __aeabi_atexit
    dp_recorder.o(i._Z17_DP_Recorder_InitP7Account) refers to account.o(i._ZN7Account9SubscribeEPKc) for Account::Subscribe(const char*)
    dp_recorder.o(i._Z17_DP_Recorder_InitP7Account) refers to account.o(i._ZN7Account16SetEventCallbackEPFiPS_PNS_12EventParam_tEE) for Account::SetEventCallback(int(*)(Account*, Account::EventParam_t*))
    dp_recorder.o(i._Z17_DP_Recorder_InitP7Account) refers to dp_recorder.o(.data) for .data
    dp_recorder.o(i._Z17_DP_Recorder_InitP7Account) refers to dp_recorder.o(.bss) for .bss
    dp_recorder.o(i._Z17_DP_Recorder_InitP7Account) refers to dp_recorder.o(i._ZN10Recorder_tD1Ev) for Recorder_t::~Recorder_t()
    dp_recorder.o(i._Z17_DP_Recorder_InitP7Account) refers to dp_recorder.o(i._ZN37_INTERNAL_15_DP_Recorder_cpp_4f9bfee87onEventEP7AccountPNS0_12EventParam_tE) for [local to DP_Recorder_cpp]::onEvent(Account*, Account::EventParam_t*)
    dp_recorder.o(i._ZN37_INTERNAL_15_DP_Recorder_cpp_4f9bfee816Recorder_RecStopEP10Recorder_t) refers to gpx.o(i._ZN3GPX15getTrakSegCloseEv) for GPX::getTrakSegClose()
    dp_recorder.o(i._ZN37_INTERNAL_15_DP_Recorder_cpp_4f9bfee816Recorder_RecStopEP10Recorder_t) refers to dp_recorder.o(i._ZN37_INTERNAL_15_DP_Recorder_cpp_4f9bfee824Recorder_FileWriteStringEP12lv_fs_file_tPKc) for [local to DP_Recorder_cpp]::Recorder_FileWriteString(lv_fs_file_t*, const char*)
    dp_recorder.o(i._ZN37_INTERNAL_15_DP_Recorder_cpp_4f9bfee816Recorder_RecStopEP10Recorder_t) refers to wstring.o(i._ZN6StringD1Ev) for String::~String()
    dp_recorder.o(i._ZN37_INTERNAL_15_DP_Recorder_cpp_4f9bfee816Recorder_RecStopEP10Recorder_t) refers to gpx.o(i._ZN3GPX12getTrakCloseEv) for GPX::getTrakClose()
    dp_recorder.o(i._ZN37_INTERNAL_15_DP_Recorder_cpp_4f9bfee816Recorder_RecStopEP10Recorder_t) refers to gpx.o(i._ZN3GPX8getCloseEv) for GPX::getClose()
    dp_recorder.o(i._ZN37_INTERNAL_15_DP_Recorder_cpp_4f9bfee816Recorder_RecStopEP10Recorder_t) refers to lv_fs.o(i.lv_fs_close) for lv_fs_close
    dp_recorder.o(i._ZN37_INTERNAL_15_DP_Recorder_cpp_4f9bfee817Recorder_RecPointEP10Recorder_tPN3HAL10GPS_Info_tE) refers to dp_recorder.o(i._ZN37_INTERNAL_15_DP_Recorder_cpp_4f9bfee820Recorder_GetTimeConvEP10Recorder_tPKcPcj) for [local to DP_Recorder_cpp]::Recorder_GetTimeConv(Recorder_t*, const char*, char*, unsigned)
    dp_recorder.o(i._ZN37_INTERNAL_15_DP_Recorder_cpp_4f9bfee817Recorder_RecPointEP10Recorder_tPN3HAL10GPS_Info_tE) refers to wstring.o(i._ZN6StringC1Efh) for String::String(float, unsigned char)
    dp_recorder.o(i._ZN37_INTERNAL_15_DP_Recorder_cpp_4f9bfee817Recorder_RecPointEP10Recorder_tPN3HAL10GPS_Info_tE) refers to gpx.o(i._ZN3GPX6setEleE6String) for GPX::setEle(String)
    dp_recorder.o(i._ZN37_INTERNAL_15_DP_Recorder_cpp_4f9bfee817Recorder_RecPointEP10Recorder_tPN3HAL10GPS_Info_tE) refers to wstring.o(i._ZN6StringD1Ev) for String::~String()
    dp_recorder.o(i._ZN37_INTERNAL_15_DP_Recorder_cpp_4f9bfee817Recorder_RecPointEP10Recorder_tPN3HAL10GPS_Info_tE) refers to wstring.o(i._ZN6StringC1EPKc) for String::String(const char*)
    dp_recorder.o(i._ZN37_INTERNAL_15_DP_Recorder_cpp_4f9bfee817Recorder_RecPointEP10Recorder_tPN3HAL10GPS_Info_tE) refers to gpx.o(i._ZN3GPX7setTimeE6String) for GPX::setTime(String)
    dp_recorder.o(i._ZN37_INTERNAL_15_DP_Recorder_cpp_4f9bfee817Recorder_RecPointEP10Recorder_tPN3HAL10GPS_Info_tE) refers to wstring.o(i._ZN6StringC1Edh) for String::String(double, unsigned char)
    dp_recorder.o(i._ZN37_INTERNAL_15_DP_Recorder_cpp_4f9bfee817Recorder_RecPointEP10Recorder_tPN3HAL10GPS_Info_tE) refers to gpx.o(i._ZN3GPX5getPtE6StringS0_S0_) for GPX::getPt(String, String, String)
    dp_recorder.o(i._ZN37_INTERNAL_15_DP_Recorder_cpp_4f9bfee817Recorder_RecPointEP10Recorder_tPN3HAL10GPS_Info_tE) refers to dp_recorder.o(i._ZN37_INTERNAL_15_DP_Recorder_cpp_4f9bfee824Recorder_FileWriteStringEP12lv_fs_file_tPKc) for [local to DP_Recorder_cpp]::Recorder_FileWriteString(lv_fs_file_t*, const char*)
    dp_recorder.o(i._ZN37_INTERNAL_15_DP_Recorder_cpp_4f9bfee817Recorder_RecStartEP10Recorder_tt) refers to dp_recorder.o(i._ZN37_INTERNAL_15_DP_Recorder_cpp_4f9bfee820Recorder_GetTimeConvEP10Recorder_tPKcPcj) for [local to DP_Recorder_cpp]::Recorder_GetTimeConv(Recorder_t*, const char*, char*, unsigned)
    dp_recorder.o(i._ZN37_INTERNAL_15_DP_Recorder_cpp_4f9bfee817Recorder_RecStartEP10Recorder_tt) refers to lv_fs.o(i.lv_fs_open) for lv_fs_open
    dp_recorder.o(i._ZN37_INTERNAL_15_DP_Recorder_cpp_4f9bfee817Recorder_RecStartEP10Recorder_tt) refers to wstring.o(i._ZN6StringC1EPKc) for String::String(const char*)
    dp_recorder.o(i._ZN37_INTERNAL_15_DP_Recorder_cpp_4f9bfee817Recorder_RecStartEP10Recorder_tt) refers to gpx.o(i._ZN3GPX11setMetaNameE6String) for GPX::setMetaName(String)
    dp_recorder.o(i._ZN37_INTERNAL_15_DP_Recorder_cpp_4f9bfee817Recorder_RecStartEP10Recorder_tt) refers to wstring.o(i._ZN6StringD1Ev) for String::~String()
    dp_recorder.o(i._ZN37_INTERNAL_15_DP_Recorder_cpp_4f9bfee817Recorder_RecStartEP10Recorder_tt) refers to gpx.o(i._ZN3GPX11setMetaDescE6String) for GPX::setMetaDesc(String)
    dp_recorder.o(i._ZN37_INTERNAL_15_DP_Recorder_cpp_4f9bfee817Recorder_RecStartEP10Recorder_tt) refers to gpx.o(i._ZN3GPX7setNameE6String) for GPX::setName(String)
    dp_recorder.o(i._ZN37_INTERNAL_15_DP_Recorder_cpp_4f9bfee817Recorder_RecStartEP10Recorder_tt) refers to gpx.o(i._ZN3GPX7setDescE6String) for GPX::setDesc(String)
    dp_recorder.o(i._ZN37_INTERNAL_15_DP_Recorder_cpp_4f9bfee817Recorder_RecStartEP10Recorder_tt) refers to gpx.o(i._ZN3GPX7getOpenEv) for GPX::getOpen()
    dp_recorder.o(i._ZN37_INTERNAL_15_DP_Recorder_cpp_4f9bfee817Recorder_RecStartEP10Recorder_tt) refers to dp_recorder.o(i._ZN37_INTERNAL_15_DP_Recorder_cpp_4f9bfee824Recorder_FileWriteStringEP12lv_fs_file_tPKc) for [local to DP_Recorder_cpp]::Recorder_FileWriteString(lv_fs_file_t*, const char*)
    dp_recorder.o(i._ZN37_INTERNAL_15_DP_Recorder_cpp_4f9bfee817Recorder_RecStartEP10Recorder_tt) refers to gpx.o(i._ZN3GPX11getMetaDataEv) for GPX::getMetaData()
    dp_recorder.o(i._ZN37_INTERNAL_15_DP_Recorder_cpp_4f9bfee817Recorder_RecStartEP10Recorder_tt) refers to gpx.o(i._ZN3GPX11getTrakOpenEv) for GPX::getTrakOpen()
    dp_recorder.o(i._ZN37_INTERNAL_15_DP_Recorder_cpp_4f9bfee817Recorder_RecStartEP10Recorder_tt) refers to gpx.o(i._ZN3GPX7getInfoEv) for GPX::getInfo()
    dp_recorder.o(i._ZN37_INTERNAL_15_DP_Recorder_cpp_4f9bfee817Recorder_RecStartEP10Recorder_tt) refers to gpx.o(i._ZN3GPX14getTrakSegOpenEv) for GPX::getTrakSegOpen()
    dp_recorder.o(i._ZN37_INTERNAL_15_DP_Recorder_cpp_4f9bfee820Recorder_GetTimeConvEP10Recorder_tPKcPcj) refers to _printf_pad.o(.text) for _printf_pre_padding
    dp_recorder.o(i._ZN37_INTERNAL_15_DP_Recorder_cpp_4f9bfee820Recorder_GetTimeConvEP10Recorder_tPKcPcj) refers to _printf_truncate.o(.text) for _printf_truncate_unsigned
    dp_recorder.o(i._ZN37_INTERNAL_15_DP_Recorder_cpp_4f9bfee820Recorder_GetTimeConvEP10Recorder_tPKcPcj) refers to _printf_percent.o(.ARM.Collect$$_printf_percent$$00000000) for _printf_percent
    dp_recorder.o(i._ZN37_INTERNAL_15_DP_Recorder_cpp_4f9bfee820Recorder_GetTimeConvEP10Recorder_tPKcPcj) refers to _printf_d.o(.ARM.Collect$$_printf_percent$$00000009) for _printf_d
    dp_recorder.o(i._ZN37_INTERNAL_15_DP_Recorder_cpp_4f9bfee820Recorder_GetTimeConvEP10Recorder_tPKcPcj) refers to _printf_i.o(.ARM.Collect$$_printf_percent$$00000008) for _printf_i
    dp_recorder.o(i._ZN37_INTERNAL_15_DP_Recorder_cpp_4f9bfee820Recorder_GetTimeConvEP10Recorder_tPKcPcj) refers to _printf_u.o(.ARM.Collect$$_printf_percent$$0000000A) for _printf_u
    dp_recorder.o(i._ZN37_INTERNAL_15_DP_Recorder_cpp_4f9bfee820Recorder_GetTimeConvEP10Recorder_tPKcPcj) refers to _printf_o.o(.ARM.Collect$$_printf_percent$$0000000B) for _printf_o
    dp_recorder.o(i._ZN37_INTERNAL_15_DP_Recorder_cpp_4f9bfee820Recorder_GetTimeConvEP10Recorder_tPKcPcj) refers to _printf_x.o(.ARM.Collect$$_printf_percent$$0000000C) for _printf_x
    dp_recorder.o(i._ZN37_INTERNAL_15_DP_Recorder_cpp_4f9bfee820Recorder_GetTimeConvEP10Recorder_tPKcPcj) refers to _printf_c.o(.ARM.Collect$$_printf_percent$$00000013) for _printf_c
    dp_recorder.o(i._ZN37_INTERNAL_15_DP_Recorder_cpp_4f9bfee820Recorder_GetTimeConvEP10Recorder_tPKcPcj) refers to _printf_lc.o(.ARM.Collect$$_printf_percent$$00000015) for _printf_lc
    dp_recorder.o(i._ZN37_INTERNAL_15_DP_Recorder_cpp_4f9bfee820Recorder_GetTimeConvEP10Recorder_tPKcPcj) refers to _printf_dec.o(.text) for _printf_int_dec
    dp_recorder.o(i._ZN37_INTERNAL_15_DP_Recorder_cpp_4f9bfee820Recorder_GetTimeConvEP10Recorder_tPKcPcj) refers to _printf_oct_int_ll.o(.text) for _printf_longlong_oct
    dp_recorder.o(i._ZN37_INTERNAL_15_DP_Recorder_cpp_4f9bfee820Recorder_GetTimeConvEP10Recorder_tPKcPcj) refers to _printf_hex_int_ll_ptr.o(.text) for _printf_longlong_hex
    dp_recorder.o(i._ZN37_INTERNAL_15_DP_Recorder_cpp_4f9bfee820Recorder_GetTimeConvEP10Recorder_tPKcPcj) refers to _printf_str.o(.text) for _printf_str
    dp_recorder.o(i._ZN37_INTERNAL_15_DP_Recorder_cpp_4f9bfee820Recorder_GetTimeConvEP10Recorder_tPKcPcj) refers to _printf_wctomb.o(.text) for _printf_wctomb
    dp_recorder.o(i._ZN37_INTERNAL_15_DP_Recorder_cpp_4f9bfee820Recorder_GetTimeConvEP10Recorder_tPKcPcj) refers to account.o(i._ZN7Account4PullEPKcPvj) for Account::Pull(const char*, void*, unsigned)
    dp_recorder.o(i._ZN37_INTERNAL_15_DP_Recorder_cpp_4f9bfee820Recorder_GetTimeConvEP10Recorder_tPKcPcj) refers to __2snprintf.o(.text) for __2snprintf
    dp_recorder.o(i._ZN37_INTERNAL_15_DP_Recorder_cpp_4f9bfee824Recorder_FileWriteStringEP12lv_fs_file_tPKc) refers to strlen.o(.text) for strlen
    dp_recorder.o(i._ZN37_INTERNAL_15_DP_Recorder_cpp_4f9bfee824Recorder_FileWriteStringEP12lv_fs_file_tPKc) refers to lv_fs.o(i.lv_fs_write) for lv_fs_write
    dp_recorder.o(i._ZN37_INTERNAL_15_DP_Recorder_cpp_4f9bfee87onEventEP7AccountPNS0_12EventParam_tE) refers to dp_recorder.o(i._ZN37_INTERNAL_15_DP_Recorder_cpp_4f9bfee817Recorder_RecPointEP10Recorder_tPN3HAL10GPS_Info_tE) for [local to DP_Recorder_cpp]::Recorder_RecPoint(Recorder_t*, HAL::GPS_Info_t*)
    dp_recorder.o(i._ZN37_INTERNAL_15_DP_Recorder_cpp_4f9bfee87onEventEP7AccountPNS0_12EventParam_tE) refers to rt_memcpy_v6.o(.text) for __aeabi_memcpy
    dp_recorder.o(i._ZN37_INTERNAL_15_DP_Recorder_cpp_4f9bfee87onEventEP7AccountPNS0_12EventParam_tE) refers to dp_recorder.o(i._ZN37_INTERNAL_15_DP_Recorder_cpp_4f9bfee817Recorder_RecStartEP10Recorder_tt) for [local to DP_Recorder_cpp]::Recorder_RecStart(Recorder_t*, unsigned short)
    dp_recorder.o(i._ZN37_INTERNAL_15_DP_Recorder_cpp_4f9bfee87onEventEP7AccountPNS0_12EventParam_tE) refers to dp_recorder.o(i._ZN37_INTERNAL_15_DP_Recorder_cpp_4f9bfee816Recorder_RecStopEP10Recorder_t) for [local to DP_Recorder_cpp]::Recorder_RecStop(Recorder_t*)
    dp_recorder.o(i._ZN37_INTERNAL_15_DP_Recorder_cpp_4f9bfee87onEventEP7AccountPNS0_12EventParam_tE) refers to account.o(i._ZN7Account6NotifyEPKcPKvj) for Account::Notify(const char*, const void*, unsigned)
    dp_recorder.o(.ARM.exidx) refers to dp_recorder.o(i._ZN37_INTERNAL_15_DP_Recorder_cpp_4f9bfee820Recorder_GetTimeConvEP10Recorder_tPKcPcj) for i._ZN37_INTERNAL_15_DP_Recorder_cpp_4f9bfee820Recorder_GetTimeConvEP10Recorder_tPKcPcj
    dp_recorder.o(.ARM.exidx) refers to dp_recorder.o(i._ZN37_INTERNAL_15_DP_Recorder_cpp_4f9bfee817Recorder_RecPointEP10Recorder_tPN3HAL10GPS_Info_tE) for i._ZN37_INTERNAL_15_DP_Recorder_cpp_4f9bfee817Recorder_RecPointEP10Recorder_tPN3HAL10GPS_Info_tE
    dp_recorder.o(.ARM.exidx) refers to dp_recorder.o(i._ZN37_INTERNAL_15_DP_Recorder_cpp_4f9bfee817Recorder_RecStartEP10Recorder_tt) for i._ZN37_INTERNAL_15_DP_Recorder_cpp_4f9bfee817Recorder_RecStartEP10Recorder_tt
    dp_recorder.o(.ARM.exidx) refers to dp_recorder.o(i._ZN37_INTERNAL_15_DP_Recorder_cpp_4f9bfee87onEventEP7AccountPNS0_12EventParam_tE) for i._ZN37_INTERNAL_15_DP_Recorder_cpp_4f9bfee87onEventEP7AccountPNS0_12EventParam_tE
    dp_recorder.o(.ARM.exidx) refers to dp_recorder.o(i._Z17_DP_Recorder_InitP7Account) for i._Z17_DP_Recorder_InitP7Account
    dp_recorder.o(.ARM.exidx) refers to dp_recorder.o(i._ZN37_INTERNAL_15_DP_Recorder_cpp_4f9bfee824Recorder_FileWriteStringEP12lv_fs_file_tPKc) for i._ZN37_INTERNAL_15_DP_Recorder_cpp_4f9bfee824Recorder_FileWriteStringEP12lv_fs_file_tPKc
    dp_recorder.o(.ARM.exidx) refers to dp_recorder.o(i._ZN37_INTERNAL_15_DP_Recorder_cpp_4f9bfee816Recorder_RecStopEP10Recorder_t) for i._ZN37_INTERNAL_15_DP_Recorder_cpp_4f9bfee816Recorder_RecStopEP10Recorder_t
    dp_sportstatus.o(i._Z20_DP_SportStatus_InitP7Account) refers to rt_memclr_w.o(.text) for __aeabi_memclr4
    dp_sportstatus.o(i._Z20_DP_SportStatus_InitP7Account) refers to account.o(i._ZN7Account9SubscribeEPKc) for Account::Subscribe(const char*)
    dp_sportstatus.o(i._Z20_DP_SportStatus_InitP7Account) refers to account.o(i._ZN7Account6NotifyEPKcPKvj) for Account::Notify(const char*, const void*, unsigned)
    dp_sportstatus.o(i._Z20_DP_SportStatus_InitP7Account) refers to dp_clock.o(i._ZN8DataProc7GetTickEv) for DataProc::GetTick()
    dp_sportstatus.o(i._Z20_DP_SportStatus_InitP7Account) refers to account.o(i._ZN7Account16SetEventCallbackEPFiPS_PNS_12EventParam_tEE) for Account::SetEventCallback(int(*)(Account*, Account::EventParam_t*))
    dp_sportstatus.o(i._Z20_DP_SportStatus_InitP7Account) refers to account.o(i._ZN7Account14SetTimerPeriodEj) for Account::SetTimerPeriod(unsigned)
    dp_sportstatus.o(i._Z20_DP_SportStatus_InitP7Account) refers to dp_sportstatus.o(.bss) for .bss
    dp_sportstatus.o(i._Z20_DP_SportStatus_InitP7Account) refers to dp_sportstatus.o(i._ZN40_INTERNAL_18_DP_SportStatus_cpp_a5c82bb67onEventEP7AccountPNS0_12EventParam_tE) for [local to DP_SportStatus_cpp]::onEvent(Account*, Account::EventParam_t*)
    dp_sportstatus.o(i._ZN40_INTERNAL_18_DP_SportStatus_cpp_a5c82bb67onEventEP7AccountPNS0_12EventParam_tE) refers to dp_sportstatus.o(i._ZN40_INTERNAL_18_DP_SportStatus_cpp_a5c82bb67onTimerEP7Account) for [local to DP_SportStatus_cpp]::onTimer(Account*)
    dp_sportstatus.o(i._ZN40_INTERNAL_18_DP_SportStatus_cpp_a5c82bb67onEventEP7AccountPNS0_12EventParam_tE) refers to rt_memcpy_v6.o(.text) for __aeabi_memcpy
    dp_sportstatus.o(i._ZN40_INTERNAL_18_DP_SportStatus_cpp_a5c82bb67onEventEP7AccountPNS0_12EventParam_tE) refers to dp_sportstatus.o(.bss) for .bss
    dp_sportstatus.o(i._ZN40_INTERNAL_18_DP_SportStatus_cpp_a5c82bb67onTimerEP7Account) refers to account.o(i._ZN7Account4PullEPKcPvj) for Account::Pull(const char*, void*, unsigned)
    dp_sportstatus.o(i._ZN40_INTERNAL_18_DP_SportStatus_cpp_a5c82bb67onTimerEP7Account) refers to dp_clock.o(i._ZN8DataProc12GetTickElapsEj) for DataProc::GetTickElaps(unsigned)
    dp_sportstatus.o(i._ZN40_INTERNAL_18_DP_SportStatus_cpp_a5c82bb67onTimerEP7Account) refers to d2f.o(x$fpl$d2f) for __aeabi_d2f
    dp_sportstatus.o(i._ZN40_INTERNAL_18_DP_SportStatus_cpp_a5c82bb67onTimerEP7Account) refers to ffltll_clz.o(x$fpl$ffltll) for __aeabi_ul2f
    dp_sportstatus.o(i._ZN40_INTERNAL_18_DP_SportStatus_cpp_a5c82bb67onTimerEP7Account) refers to dp_clock.o(i._ZN8DataProc7GetTickEv) for DataProc::GetTick()
    dp_sportstatus.o(i._ZN40_INTERNAL_18_DP_SportStatus_cpp_a5c82bb67onTimerEP7Account) refers to account.o(i._ZN7Account6CommitEPKvj) for Account::Commit(const void*, unsigned)
    dp_sportstatus.o(i._ZN40_INTERNAL_18_DP_SportStatus_cpp_a5c82bb67onTimerEP7Account) refers to account.o(i._ZN7Account7PublishEv) for Account::Publish()
    dp_sportstatus.o(i._ZN40_INTERNAL_18_DP_SportStatus_cpp_a5c82bb67onTimerEP7Account) refers to hal_gps.o(i._ZN3HAL21GPS_GetDistanceOffsetEPNS_10GPS_Info_tEdd) for HAL::GPS_GetDistanceOffset(HAL::GPS_Info_t*, double, double)
    dp_sportstatus.o(i._ZN40_INTERNAL_18_DP_SportStatus_cpp_a5c82bb67onTimerEP7Account) refers to dp_sportstatus.o(.bss) for .bss
    dp_sportstatus.o(i._ZN40_INTERNAL_18_DP_SportStatus_cpp_a5c82bb67onTimerEP7Account) refers to dp_sportstatus.o(.data) for .data
    dp_sportstatus.o(.ARM.exidx) refers to dp_sportstatus.o(i._ZN40_INTERNAL_18_DP_SportStatus_cpp_a5c82bb67onTimerEP7Account) for i._ZN40_INTERNAL_18_DP_SportStatus_cpp_a5c82bb67onTimerEP7Account
    dp_sportstatus.o(.ARM.exidx) refers to dp_sportstatus.o(i._ZN40_INTERNAL_18_DP_SportStatus_cpp_a5c82bb67onEventEP7AccountPNS0_12EventParam_tE) for i._ZN40_INTERNAL_18_DP_SportStatus_cpp_a5c82bb67onEventEP7AccountPNS0_12EventParam_tE
    dp_sportstatus.o(.ARM.exidx) refers to dp_sportstatus.o(i._Z20_DP_SportStatus_InitP7Account) for i._Z20_DP_SportStatus_InitP7Account
    dp_storage.o(i._Z16_DP_Storage_InitP7Account) refers to account.o(i._ZN7Account16SetEventCallbackEPFiPS_PNS_12EventParam_tEE) for Account::SetEventCallback(int(*)(Account*, Account::EventParam_t*))
    dp_storage.o(i._Z16_DP_Storage_InitP7Account) refers to account.o(i._ZN7Account9SubscribeEPKc) for Account::Subscribe(const char*)
    dp_storage.o(i._Z16_DP_Storage_InitP7Account) refers to hal_sd_card.o(i._ZN3HAL19SD_SetEventCallbackEPFvbE) for HAL::SD_SetEventCallback(void(*)(bool))
    dp_storage.o(i._Z16_DP_Storage_InitP7Account) refers to dp_storage.o(i._ZN36_INTERNAL_14_DP_Storage_cpp_d0a046f37onEventEP7AccountPNS0_12EventParam_tE) for [local to DP_Storage_cpp]::onEvent(Account*, Account::EventParam_t*)
    dp_storage.o(i._Z16_DP_Storage_InitP7Account) refers to dp_storage.o(i._ZN36_INTERNAL_14_DP_Storage_cpp_d0a046f39onSDEventEb) for [local to DP_Storage_cpp]::onSDEvent(bool)
    dp_storage.o(i._ZN36_INTERNAL_14_DP_Storage_cpp_d0a046f315MapConvGetRangeEPKcPsS2_) refers to lv_fs.o(i.lv_fs_dir_open) for lv_fs_dir_open
    dp_storage.o(i._ZN36_INTERNAL_14_DP_Storage_cpp_d0a046f315MapConvGetRangeEPKcPsS2_) refers to lv_fs.o(i.lv_fs_dir_read) for lv_fs_dir_read
    dp_storage.o(i._ZN36_INTERNAL_14_DP_Storage_cpp_d0a046f315MapConvGetRangeEPKcPsS2_) refers to lv_fs.o(i.lv_fs_dir_close) for lv_fs_dir_close
    dp_storage.o(i._ZN36_INTERNAL_14_DP_Storage_cpp_d0a046f315MapConvGetRangeEPKcPsS2_) refers to atoi.o(.text) for atoi
    dp_storage.o(i._ZN36_INTERNAL_14_DP_Storage_cpp_d0a046f36onLoadEP7Account) refers to storageservice.o(i._ZN14StorageService8LoadFileEv) for StorageService::LoadFile()
    dp_storage.o(i._ZN36_INTERNAL_14_DP_Storage_cpp_d0a046f36onLoadEP7Account) refers to account.o(i._ZN7Account4PullEPKcPvj) for Account::Pull(const char*, void*, unsigned)
    dp_storage.o(i._ZN36_INTERNAL_14_DP_Storage_cpp_d0a046f36onLoadEP7Account) refers to strncpy.o(.text) for strncpy
    dp_storage.o(i._ZN36_INTERNAL_14_DP_Storage_cpp_d0a046f36onLoadEP7Account) refers to dp_storage.o(i._ZN36_INTERNAL_14_DP_Storage_cpp_d0a046f315MapConvGetRangeEPKcPsS2_) for [local to DP_Storage_cpp]::MapConvGetRange(const char*, short*, short*)
    dp_storage.o(i._ZN36_INTERNAL_14_DP_Storage_cpp_d0a046f36onLoadEP7Account) refers to dp_storage.o(.bss) for .bss
    dp_storage.o(i._ZN36_INTERNAL_14_DP_Storage_cpp_d0a046f36onLoadEP7Account) refers to mapconv.o(.data) for MapConv::dirPath
    dp_storage.o(i._ZN36_INTERNAL_14_DP_Storage_cpp_d0a046f37onEventEP7AccountPNS0_12EventParam_tE) refers to hal_sd_card.o(i._ZN3HAL11SD_GetReadyEv) for HAL::SD_GetReady()
    dp_storage.o(i._ZN36_INTERNAL_14_DP_Storage_cpp_d0a046f37onEventEP7AccountPNS0_12EventParam_tE) refers to hal_sd_card.o(i._ZN3HAL16SD_GetCardSizeMBEv) for HAL::SD_GetCardSizeMB()
    dp_storage.o(i._ZN36_INTERNAL_14_DP_Storage_cpp_d0a046f37onEventEP7AccountPNS0_12EventParam_tE) refers to hal_sd_card.o(i._ZN3HAL14SD_GetTypeNameEv) for HAL::SD_GetTypeName()
    dp_storage.o(i._ZN36_INTERNAL_14_DP_Storage_cpp_d0a046f37onEventEP7AccountPNS0_12EventParam_tE) refers to dp_storage.o(i._ZN36_INTERNAL_14_DP_Storage_cpp_d0a046f38onNotifyEP7AccountPN8DataProc14Storage_Info_tE) for [local to DP_Storage_cpp]::onNotify(Account*, DataProc::Storage_Info_t*)
    dp_storage.o(i._ZN36_INTERNAL_14_DP_Storage_cpp_d0a046f38onNotifyEP7AccountPN8DataProc14Storage_Info_tE) refers to storageservice.o(i._ZN14StorageService6RemoveEPKc) for StorageService::Remove(const char*)
    dp_storage.o(i._ZN36_INTERNAL_14_DP_Storage_cpp_d0a046f38onNotifyEP7AccountPN8DataProc14Storage_Info_tE) refers to dp_storage.o(i._ZN36_INTERNAL_14_DP_Storage_cpp_d0a046f36onLoadEP7Account) for [local to DP_Storage_cpp]::onLoad(Account*)
    dp_storage.o(i._ZN36_INTERNAL_14_DP_Storage_cpp_d0a046f38onNotifyEP7AccountPN8DataProc14Storage_Info_tE) refers to storageservice.o(i._ZN14StorageService8SaveFileEPKc) for StorageService::SaveFile(const char*)
    dp_storage.o(i._ZN36_INTERNAL_14_DP_Storage_cpp_d0a046f38onNotifyEP7AccountPN8DataProc14Storage_Info_tE) refers to storageservice.o(i._ZN14StorageService3AddEPKcPvtNS_10DataType_tE) for StorageService::Add(const char*, void*, unsigned short, StorageService::DataType_t)
    dp_storage.o(i._ZN36_INTERNAL_14_DP_Storage_cpp_d0a046f38onNotifyEP7AccountPN8DataProc14Storage_Info_tE) refers to dp_storage.o(.data) for .data
    dp_storage.o(i._ZN36_INTERNAL_14_DP_Storage_cpp_d0a046f38onNotifyEP7AccountPN8DataProc14Storage_Info_tE) refers to dp_storage.o(.bss) for .bss
    dp_storage.o(i._ZN36_INTERNAL_14_DP_Storage_cpp_d0a046f39onSDEventEb) refers to dataproc.o(i._ZN8DataProc6CenterEv) for DataProc::Center()
    dp_storage.o(i._ZN36_INTERNAL_14_DP_Storage_cpp_d0a046f39onSDEventEb) refers to account.o(i._ZN7Account6NotifyEPKcPKvj) for Account::Notify(const char*, const void*, unsigned)
    dp_storage.o(i.__sti___14_DP_Storage_cpp_d0a046f3) refers to storageservice.o(i._ZN14StorageServiceC1EPKcj) for StorageService::StorageService(const char*, unsigned)
    dp_storage.o(i.__sti___14_DP_Storage_cpp_d0a046f3) refers to aeabi_atexit.o(.text) for __aeabi_atexit
    dp_storage.o(i.__sti___14_DP_Storage_cpp_d0a046f3) refers to dp_storage.o(.bss) for .bss
    dp_storage.o(i.__sti___14_DP_Storage_cpp_d0a046f3) refers to storageservice.o(i._ZN14StorageServiceD1Ev) for StorageService::~StorageService()
    dp_storage.o(.ARM.exidx) refers to dp_storage.o(i._ZN36_INTERNAL_14_DP_Storage_cpp_d0a046f37onEventEP7AccountPNS0_12EventParam_tE) for i._ZN36_INTERNAL_14_DP_Storage_cpp_d0a046f37onEventEP7AccountPNS0_12EventParam_tE
    dp_storage.o(.ARM.exidx) refers to dp_storage.o(i._ZN36_INTERNAL_14_DP_Storage_cpp_d0a046f39onSDEventEb) for i._ZN36_INTERNAL_14_DP_Storage_cpp_d0a046f39onSDEventEb
    dp_storage.o(.ARM.exidx) refers to dp_storage.o(i._Z16_DP_Storage_InitP7Account) for i._Z16_DP_Storage_InitP7Account
    dp_storage.o(.ARM.exidx) refers to dp_storage.o(i.__sti___14_DP_Storage_cpp_d0a046f3) for i.__sti___14_DP_Storage_cpp_d0a046f3
    dp_storage.o(.ARM.exidx) refers to dp_storage.o(i._ZN36_INTERNAL_14_DP_Storage_cpp_d0a046f38onNotifyEP7AccountPN8DataProc14Storage_Info_tE) for i._ZN36_INTERNAL_14_DP_Storage_cpp_d0a046f38onNotifyEP7AccountPN8DataProc14Storage_Info_tE
    dp_storage.o(.ARM.exidx) refers to dp_storage.o(i._ZN36_INTERNAL_14_DP_Storage_cpp_d0a046f36onLoadEP7Account) for i._ZN36_INTERNAL_14_DP_Storage_cpp_d0a046f36onLoadEP7Account
    dp_storage.o(.ARM.exidx) refers to dp_storage.o(i._ZN36_INTERNAL_14_DP_Storage_cpp_d0a046f315MapConvGetRangeEPKcPsS2_) for i._ZN36_INTERNAL_14_DP_Storage_cpp_d0a046f315MapConvGetRangeEPKcPsS2_
    dp_storage.o(.init_array) refers to dp_storage.o(i.__sti___14_DP_Storage_cpp_d0a046f3) for __sti___14_DP_Storage_cpp_d0a046f3
    dp_storage.o(.init_array) refers to init_aeabi.o(.text) for __cpp_initialize__aeabi_
    dp_sysconfig.o(i._Z18_DP_SysConfig_InitP7Account) refers to account.o(i._ZN7Account9SubscribeEPKc) for Account::Subscribe(const char*)
    dp_sysconfig.o(i._Z18_DP_SysConfig_InitP7Account) refers to account.o(i._ZN7Account16SetEventCallbackEPFiPS_PNS_12EventParam_tEE) for Account::SetEventCallback(int(*)(Account*, Account::EventParam_t*))
    dp_sysconfig.o(i._Z18_DP_SysConfig_InitP7Account) refers to rt_memclr_w.o(.text) for __aeabi_memclr4
    dp_sysconfig.o(i._Z18_DP_SysConfig_InitP7Account) refers to strncpy.o(.text) for strncpy
    dp_sysconfig.o(i._Z18_DP_SysConfig_InitP7Account) refers to account.o(i._ZN7Account6NotifyEPKcPKvj) for Account::Notify(const char*, const void*, unsigned)
    dp_sysconfig.o(i._Z18_DP_SysConfig_InitP7Account) refers to dp_sysconfig.o(i._ZN38_INTERNAL_16_DP_SysConfig_cpp_fa9ade947onEventEP7AccountPNS0_12EventParam_tE) for [local to DP_SysConfig_cpp]::onEvent(Account*, Account::EventParam_t*)
    dp_sysconfig.o(i._Z18_DP_SysConfig_InitP7Account) refers to dp_sysconfig.o(.bss) for .bss
    dp_sysconfig.o(i._ZN38_INTERNAL_16_DP_SysConfig_cpp_fa9ade947onEventEP7AccountPNS0_12EventParam_tE) refers to hal_buzz.o(i._ZN3HAL14Buzz_SetEnableEb) for HAL::Buzz_SetEnable(bool)
    dp_sysconfig.o(i._ZN38_INTERNAL_16_DP_SysConfig_cpp_fa9ade947onEventEP7AccountPNS0_12EventParam_tE) refers to account.o(i._ZN7Account4PullEPKcPvj) for Account::Pull(const char*, void*, unsigned)
    dp_sysconfig.o(i._ZN38_INTERNAL_16_DP_SysConfig_cpp_fa9ade947onEventEP7AccountPNS0_12EventParam_tE) refers to d2f.o(x$fpl$d2f) for __aeabi_d2f
    dp_sysconfig.o(i._ZN38_INTERNAL_16_DP_SysConfig_cpp_fa9ade947onEventEP7AccountPNS0_12EventParam_tE) refers to rt_memcpy_w.o(.text) for __aeabi_memcpy4
    dp_sysconfig.o(i._ZN38_INTERNAL_16_DP_SysConfig_cpp_fa9ade947onEventEP7AccountPNS0_12EventParam_tE) refers to dp_sysconfig.o(.bss) for .bss
    dp_sysconfig.o(.ARM.exidx) refers to dp_sysconfig.o(i._ZN38_INTERNAL_16_DP_SysConfig_cpp_fa9ade947onEventEP7AccountPNS0_12EventParam_tE) for i._ZN38_INTERNAL_16_DP_SysConfig_cpp_fa9ade947onEventEP7AccountPNS0_12EventParam_tE
    dp_sysconfig.o(.ARM.exidx) refers to dp_sysconfig.o(i._Z18_DP_SysConfig_InitP7Account) for i._Z18_DP_SysConfig_InitP7Account
    dp_tzconv.o(i._Z15_DP_TzConv_InitP7Account) refers to account.o(i._ZN7Account9SubscribeEPKc) for Account::Subscribe(const char*)
    dp_tzconv.o(i._Z15_DP_TzConv_InitP7Account) refers to account.o(i._ZN7Account16SetEventCallbackEPFiPS_PNS_12EventParam_tEE) for Account::SetEventCallback(int(*)(Account*, Account::EventParam_t*))
    dp_tzconv.o(i._Z15_DP_TzConv_InitP7Account) refers to dp_tzconv.o(i._ZN35_INTERNAL_13_DP_TzConv_cpp_8dd0f0727onEventEP7AccountPNS0_12EventParam_tE) for [local to DP_TzConv_cpp]::onEvent(Account*, Account::EventParam_t*)
    dp_tzconv.o(i._ZN35_INTERNAL_13_DP_TzConv_cpp_8dd0f0727onEventEP7AccountPNS0_12EventParam_tE) refers to account.o(i._ZN7Account4PullEPKcPvj) for Account::Pull(const char*, void*, unsigned)
    dp_tzconv.o(i._ZN35_INTERNAL_13_DP_TzConv_cpp_8dd0f0727onEventEP7AccountPNS0_12EventParam_tE) refers to time.o(i._Z7setTimeiiiiii) for setTime(int, int, int, int, int, int)
    dp_tzconv.o(i._ZN35_INTERNAL_13_DP_TzConv_cpp_8dd0f0727onEventEP7AccountPNS0_12EventParam_tE) refers to time.o(i._Z10adjustTimel) for adjustTime(long)
    dp_tzconv.o(i._ZN35_INTERNAL_13_DP_TzConv_cpp_8dd0f0727onEventEP7AccountPNS0_12EventParam_tE) refers to time.o(i._Z4yearv) for year()
    dp_tzconv.o(i._ZN35_INTERNAL_13_DP_TzConv_cpp_8dd0f0727onEventEP7AccountPNS0_12EventParam_tE) refers to time.o(i._Z5monthv) for month()
    dp_tzconv.o(i._ZN35_INTERNAL_13_DP_TzConv_cpp_8dd0f0727onEventEP7AccountPNS0_12EventParam_tE) refers to time.o(i._Z3dayv) for day()
    dp_tzconv.o(i._ZN35_INTERNAL_13_DP_TzConv_cpp_8dd0f0727onEventEP7AccountPNS0_12EventParam_tE) refers to time.o(i._Z4hourv) for hour()
    dp_tzconv.o(i._ZN35_INTERNAL_13_DP_TzConv_cpp_8dd0f0727onEventEP7AccountPNS0_12EventParam_tE) refers to time.o(i._Z6minutev) for minute()
    dp_tzconv.o(i._ZN35_INTERNAL_13_DP_TzConv_cpp_8dd0f0727onEventEP7AccountPNS0_12EventParam_tE) refers to time.o(i._Z6secondv) for second()
    dp_tzconv.o(.ARM.exidx) refers to dp_tzconv.o(i._ZN35_INTERNAL_13_DP_TzConv_cpp_8dd0f0727onEventEP7AccountPNS0_12EventParam_tE) for i._ZN35_INTERNAL_13_DP_TzConv_cpp_8dd0f0727onEventEP7AccountPNS0_12EventParam_tE
    dp_tzconv.o(.ARM.exidx) refers to dp_tzconv.o(i._Z15_DP_TzConv_InitP7Account) for i._Z15_DP_TzConv_InitP7Account
    dp_trackfilter.o(i._Z20_DP_TrackFilter_InitP7Account) refers to account.o(i._ZN7Account9SubscribeEPKc) for Account::Subscribe(const char*)
    dp_trackfilter.o(i._Z20_DP_TrackFilter_InitP7Account) refers to account.o(i._ZN7Account16SetEventCallbackEPFiPS_PNS_12EventParam_tEE) for Account::SetEventCallback(int(*)(Account*, Account::EventParam_t*))
    dp_trackfilter.o(i._Z20_DP_TrackFilter_InitP7Account) refers to mapconv.o(i._ZN7MapConv8SetLevelEi) for MapConv::SetLevel(int)
    dp_trackfilter.o(i._Z20_DP_TrackFilter_InitP7Account) refers to trackpointfilter.o(i._ZN16TrackPointFilter18SetOffsetThresholdEd) for TrackPointFilter::SetOffsetThreshold(double)
    dp_trackfilter.o(i._Z20_DP_TrackFilter_InitP7Account) refers to dp_trackfilter.o(i._ZN40_INTERNAL_18_DP_TrackFilter_cpp_a5ac639c7onEventEP7AccountPNS0_12EventParam_tE) for [local to DP_TrackFilter_cpp]::onEvent(Account*, Account::EventParam_t*)
    dp_trackfilter.o(i._Z20_DP_TrackFilter_InitP7Account) refers to dp_trackfilter.o(.bss) for .bss
    dp_trackfilter.o(i._ZN40_INTERNAL_18_DP_TrackFilter_cpp_a5ac639c7onEventEP7AccountPNS0_12EventParam_tE) refers to mapconv.o(i._ZN7MapConv20ConvertMapCoordinateEddPiS0_) for MapConv::ConvertMapCoordinate(double, double, int*, int*)
    dp_trackfilter.o(i._ZN40_INTERNAL_18_DP_TrackFilter_cpp_a5ac639c7onEventEP7AccountPNS0_12EventParam_tE) refers to dflt_clz.o(x$fpl$dflt) for __aeabi_i2d
    dp_trackfilter.o(i._ZN40_INTERNAL_18_DP_TrackFilter_cpp_a5ac639c7onEventEP7AccountPNS0_12EventParam_tE) refers to trackpointfilter.o(i._ZN16TrackPointFilter9PushPointEPKNS_7Point_tE) for TrackPointFilter::PushPoint(const TrackPointFilter::Point_t*)
    dp_trackfilter.o(i._ZN40_INTERNAL_18_DP_TrackFilter_cpp_a5ac639c7onEventEP7AccountPNS0_12EventParam_tE) refers to pointcontainer.o(i._ZN14PointContainer9PushPointEPKNS_11FullPoint_tE) for PointContainer::PushPoint(const PointContainer::FullPoint_t*)
    dp_trackfilter.o(i._ZN40_INTERNAL_18_DP_TrackFilter_cpp_a5ac639c7onEventEP7AccountPNS0_12EventParam_tE) refers to dp_trackfilter.o(i._ZN40_INTERNAL_18_DP_TrackFilter_cpp_a5ac639c8onNotifyEP7AccountPN8DataProc18TrackFilter_Info_tE) for [local to DP_TrackFilter_cpp]::onNotify(Account*, DataProc::TrackFilter_Info_t*)
    dp_trackfilter.o(i._ZN40_INTERNAL_18_DP_TrackFilter_cpp_a5ac639c7onEventEP7AccountPNS0_12EventParam_tE) refers to dp_trackfilter.o(.bss) for .bss
    dp_trackfilter.o(i._ZN40_INTERNAL_18_DP_TrackFilter_cpp_a5ac639c8onNotifyEP7AccountPN8DataProc18TrackFilter_Info_tE) refers to pointcontainer.o(i._ZN14PointContainerD1Ev) for PointContainer::~PointContainer()
    dp_trackfilter.o(i._ZN40_INTERNAL_18_DP_TrackFilter_cpp_a5ac639c8onNotifyEP7AccountPN8DataProc18TrackFilter_Info_tE) refers to new.o(i._ZdlPv) for operator delete (void*)
    dp_trackfilter.o(i._ZN40_INTERNAL_18_DP_TrackFilter_cpp_a5ac639c8onNotifyEP7AccountPN8DataProc18TrackFilter_Info_tE) refers to new.o(i._Znwj) for operator new(unsigned)
    dp_trackfilter.o(i._ZN40_INTERNAL_18_DP_TrackFilter_cpp_a5ac639c8onNotifyEP7AccountPN8DataProc18TrackFilter_Info_tE) refers to pointcontainer.o(i._ZN14PointContainerC1Ev) for PointContainer::PointContainer()
    dp_trackfilter.o(i._ZN40_INTERNAL_18_DP_TrackFilter_cpp_a5ac639c8onNotifyEP7AccountPN8DataProc18TrackFilter_Info_tE) refers to trackpointfilter.o(i._ZN16TrackPointFilter5ResetEv) for TrackPointFilter::Reset()
    dp_trackfilter.o(i._ZN40_INTERNAL_18_DP_TrackFilter_cpp_a5ac639c8onNotifyEP7AccountPN8DataProc18TrackFilter_Info_tE) refers to dp_trackfilter.o(.bss) for .bss
    dp_trackfilter.o(i.__sti___18_DP_TrackFilter_cpp_a5ac639c) refers to mapconv.o(i._ZN7MapConvC1Ev) for MapConv::MapConv()
    dp_trackfilter.o(i.__sti___18_DP_TrackFilter_cpp_a5ac639c) refers to trackpointfilter.o(i._ZN16TrackPointFilterC1Ev) for TrackPointFilter::TrackPointFilter()
    dp_trackfilter.o(i.__sti___18_DP_TrackFilter_cpp_a5ac639c) refers to aeabi_atexit.o(.text) for __aeabi_atexit
    dp_trackfilter.o(i.__sti___18_DP_TrackFilter_cpp_a5ac639c) refers to dp_trackfilter.o(.bss) for .bss
    dp_trackfilter.o(i.__sti___18_DP_TrackFilter_cpp_a5ac639c) refers to dp_trackfilter.o(i._ZN13TrackFilter_tD1Ev) for TrackFilter_t::~TrackFilter_t()
    dp_trackfilter.o(.ARM.exidx) refers to dp_trackfilter.o(i._ZN40_INTERNAL_18_DP_TrackFilter_cpp_a5ac639c7onEventEP7AccountPNS0_12EventParam_tE) for i._ZN40_INTERNAL_18_DP_TrackFilter_cpp_a5ac639c7onEventEP7AccountPNS0_12EventParam_tE
    dp_trackfilter.o(.ARM.exidx) refers to dp_trackfilter.o(i._Z20_DP_TrackFilter_InitP7Account) for i._Z20_DP_TrackFilter_InitP7Account
    dp_trackfilter.o(.ARM.exidx) refers to dp_trackfilter.o(i.__sti___18_DP_TrackFilter_cpp_a5ac639c) for i.__sti___18_DP_TrackFilter_cpp_a5ac639c
    dp_trackfilter.o(.ARM.exidx) refers to dp_trackfilter.o(i._ZN40_INTERNAL_18_DP_TrackFilter_cpp_a5ac639c8onNotifyEP7AccountPN8DataProc18TrackFilter_Info_tE) for i._ZN40_INTERNAL_18_DP_TrackFilter_cpp_a5ac639c8onNotifyEP7AccountPN8DataProc18TrackFilter_Info_tE
    dp_trackfilter.o(.init_array) refers to dp_trackfilter.o(i.__sti___18_DP_TrackFilter_cpp_a5ac639c) for __sti___18_DP_TrackFilter_cpp_a5ac639c
    dp_trackfilter.o(.init_array) refers to init_aeabi.o(.text) for __cpp_initialize__aeabi_
    dp_backlightctrl.o(i._Z22_DP_BacklightCtrl_InitP7Account) refers to account.o(i._ZN7Account9SubscribeEPKc) for Account::Subscribe(const char*)
    dp_backlightctrl.o(i._Z22_DP_BacklightCtrl_InitP7Account) refers to account.o(i._ZN7Account16SetEventCallbackEPFiPS_PNS_12EventParam_tEE) for Account::SetEventCallback(int(*)(Account*, Account::EventParam_t*))
    dp_backlightctrl.o(i._Z22_DP_BacklightCtrl_InitP7Account) refers to account.o(i._ZN7Account14SetTimerPeriodEj) for Account::SetTimerPeriod(unsigned)
    dp_backlightctrl.o(i._Z22_DP_BacklightCtrl_InitP7Account) refers to dp_backlightctrl.o(i._ZN42_INTERNAL_20_DP_BacklightCtrl_cpp_9c6a17277onEventEP7AccountPNS0_12EventParam_tE) for [local to DP_BacklightCtrl_cpp]::onEvent(Account*, Account::EventParam_t*)
    dp_backlightctrl.o(i._ZN42_INTERNAL_20_DP_BacklightCtrl_cpp_9c6a172718calcBacklightLevelEhhh) refers to atanf.o(i.__hardfp_atanf) for __hardfp_atanf
    dp_backlightctrl.o(i._ZN42_INTERNAL_20_DP_BacklightCtrl_cpp_9c6a172718calcBacklightLevelEhhh) refers to dp_backlightctrl.o(.data) for .data
    dp_backlightctrl.o(i._ZN42_INTERNAL_20_DP_BacklightCtrl_cpp_9c6a172718calcBacklightLevelEhhh) refers to dp_backlightctrl.o(.bss) for .bss
    dp_backlightctrl.o(i._ZN42_INTERNAL_20_DP_BacklightCtrl_cpp_9c6a17277onEventEP7AccountPNS0_12EventParam_tE) refers to account.o(i._ZN7Account4PullEPKcPvj) for Account::Pull(const char*, void*, unsigned)
    dp_backlightctrl.o(i._ZN42_INTERNAL_20_DP_BacklightCtrl_cpp_9c6a17277onEventEP7AccountPNS0_12EventParam_tE) refers to account.o(i._ZN7Account11UnsubscribeEPKc) for Account::Unsubscribe(const char*)
    dp_backlightctrl.o(i._ZN42_INTERNAL_20_DP_BacklightCtrl_cpp_9c6a17277onEventEP7AccountPNS0_12EventParam_tE) refers to hal_clock.o(i._ZN3HAL13Clock_GetInfoEPNS_12Clock_Info_tE) for HAL::Clock_GetInfo(HAL::Clock_Info_t*)
    dp_backlightctrl.o(i._ZN42_INTERNAL_20_DP_BacklightCtrl_cpp_9c6a17277onEventEP7AccountPNS0_12EventParam_tE) refers to d2f.o(x$fpl$d2f) for __aeabi_d2f
    dp_backlightctrl.o(i._ZN42_INTERNAL_20_DP_BacklightCtrl_cpp_9c6a17277onEventEP7AccountPNS0_12EventParam_tE) refers to sunrisecalc.o(i.SunRiseSunSetCalculator) for SunRiseSunSetCalculator
    dp_backlightctrl.o(i._ZN42_INTERNAL_20_DP_BacklightCtrl_cpp_9c6a17277onEventEP7AccountPNS0_12EventParam_tE) refers to dp_backlightctrl.o(i._ZN42_INTERNAL_20_DP_BacklightCtrl_cpp_9c6a172718calcBacklightLevelEhhh) for [local to DP_BacklightCtrl_cpp]::calcBacklightLevel(unsigned char, unsigned char, unsigned char)
    dp_backlightctrl.o(i._ZN42_INTERNAL_20_DP_BacklightCtrl_cpp_9c6a17277onEventEP7AccountPNS0_12EventParam_tE) refers to hal_backlight.o(i._ZN3HAL20Backlight_SetGradualEtt) for HAL::Backlight_SetGradual(unsigned short, unsigned short)
    dp_backlightctrl.o(i._ZN42_INTERNAL_20_DP_BacklightCtrl_cpp_9c6a17277onEventEP7AccountPNS0_12EventParam_tE) refers to dp_backlightctrl.o(.data) for .data
    dp_backlightctrl.o(i._ZN42_INTERNAL_20_DP_BacklightCtrl_cpp_9c6a17277onEventEP7AccountPNS0_12EventParam_tE) refers to dp_backlightctrl.o(.bss) for .bss
    dp_backlightctrl.o(.ARM.exidx) refers to dp_backlightctrl.o(i._ZN42_INTERNAL_20_DP_BacklightCtrl_cpp_9c6a172718calcBacklightLevelEhhh) for i._ZN42_INTERNAL_20_DP_BacklightCtrl_cpp_9c6a172718calcBacklightLevelEhhh
    dp_backlightctrl.o(.ARM.exidx) refers to dp_backlightctrl.o(i._ZN42_INTERNAL_20_DP_BacklightCtrl_cpp_9c6a17277onEventEP7AccountPNS0_12EventParam_tE) for i._ZN42_INTERNAL_20_DP_BacklightCtrl_cpp_9c6a17277onEventEP7AccountPNS0_12EventParam_tE
    dp_backlightctrl.o(.ARM.exidx) refers to dp_backlightctrl.o(i._Z22_DP_BacklightCtrl_InitP7Account) for i._Z22_DP_BacklightCtrl_InitP7Account
    appfactory.o(i._ZN10AppFactory10CreatePageEPKc) refers to strcmpv7m.o(.text) for strcmp
    appfactory.o(i._ZN10AppFactory10CreatePageEPKc) refers to new.o(i._Znwj) for operator new(unsigned)
    appfactory.o(i._ZN10AppFactory10CreatePageEPKc) refers to template.o(i._ZN4Page8TemplateC1Ev) for Page::Template::Template()
    appfactory.o(i._ZN10AppFactory10CreatePageEPKc) refers to livemap.o(i._ZN4Page7LiveMapC1Ev) for Page::LiveMap::LiveMap()
    appfactory.o(i._ZN10AppFactory10CreatePageEPKc) refers to dialplate.o(i._ZN4Page9DialplateC1Ev) for Page::Dialplate::Dialplate()
    appfactory.o(i._ZN10AppFactory10CreatePageEPKc) refers to systeminfos.o(i._ZN4Page11SystemInfosC1Ev) for Page::SystemInfos::SystemInfos()
    appfactory.o(i._ZN10AppFactory10CreatePageEPKc) refers to startup.o(i._ZN4Page7StartupC1Ev) for Page::Startup::Startup()
    appfactory.o(.ARM.exidx) refers to appfactory.o(i._ZN10AppFactory10CreatePageEPKc) for i._ZN10AppFactory10CreatePageEPKc
    statusbar.o(i._Z18_DP_StatusBar_InitP7Account) refers to account.o(i._ZN7Account9SubscribeEPKc) for Account::Subscribe(const char*)
    statusbar.o(i._Z18_DP_StatusBar_InitP7Account) refers to account.o(i._ZN7Account16SetEventCallbackEPFiPS_PNS_12EventParam_tEE) for Account::SetEventCallback(int(*)(Account*, Account::EventParam_t*))
    statusbar.o(i._Z18_DP_StatusBar_InitP7Account) refers to statusbar.o(i._ZN35_INTERNAL_13_StatusBar_cpp_2710b7997onEventEP7AccountPNS0_12EventParam_tE) for [local to StatusBar_cpp]::onEvent(Account*, Account::EventParam_t*)
    statusbar.o(i._Z18_DP_StatusBar_InitP7Account) refers to statusbar.o(.data) for .data
    statusbar.o(i._ZN35_INTERNAL_13_StatusBar_cpp_2710b79914lv_color_blackEv) refers to statusbar.o(i._ZN35_INTERNAL_13_StatusBar_cpp_2710b79913lv_color_makeEhhh) for [local to StatusBar_cpp]::lv_color_make(unsigned char, unsigned char, unsigned char)
    statusbar.o(i._ZN35_INTERNAL_13_StatusBar_cpp_2710b79914lv_color_whiteEv) refers to statusbar.o(i._ZN35_INTERNAL_13_StatusBar_cpp_2710b79913lv_color_makeEhhh) for [local to StatusBar_cpp]::lv_color_make(unsigned char, unsigned char, unsigned char)
    statusbar.o(i._ZN35_INTERNAL_13_StatusBar_cpp_2710b79916StatusBar_UpdateEP11_lv_timer_t) refers to account.o(i._ZN7Account4PullEPKcPvj) for Account::Pull(const char*, void*, unsigned)
    statusbar.o(i._ZN35_INTERNAL_13_StatusBar_cpp_2710b79916StatusBar_UpdateEP11_lv_timer_t) refers to lv_label.o(i.lv_label_set_text_fmt) for lv_label_set_text_fmt
    statusbar.o(i._ZN35_INTERNAL_13_StatusBar_cpp_2710b79916StatusBar_UpdateEP11_lv_timer_t) refers to lv_obj.o(i.lv_obj_clear_state) for lv_obj_clear_state
    statusbar.o(i._ZN35_INTERNAL_13_StatusBar_cpp_2710b79916StatusBar_UpdateEP11_lv_timer_t) refers to lv_obj.o(i.lv_obj_add_state) for lv_obj_add_state
    statusbar.o(i._ZN35_INTERNAL_13_StatusBar_cpp_2710b79916StatusBar_UpdateEP11_lv_timer_t) refers to statusbar.o(i._ZN35_INTERNAL_13_StatusBar_cpp_2710b79920StatusBar_AnimCreateEP9_lv_obj_t) for [local to StatusBar_cpp]::StatusBar_AnimCreate(_lv_obj_t*)
    statusbar.o(i._ZN35_INTERNAL_13_StatusBar_cpp_2710b79916StatusBar_UpdateEP11_lv_timer_t) refers to lv_anim.o(i.lv_anim_del) for lv_anim_del
    statusbar.o(i._ZN35_INTERNAL_13_StatusBar_cpp_2710b79916StatusBar_UpdateEP11_lv_timer_t) refers to statusbar.o(i._ZN35_INTERNAL_13_StatusBar_cpp_2710b79923StatusBar_ConBattSetOpaEP9_lv_obj_ti) for [local to StatusBar_cpp]::StatusBar_ConBattSetOpa(_lv_obj_t*, int)
    statusbar.o(i._ZN35_INTERNAL_13_StatusBar_cpp_2710b79916StatusBar_UpdateEP11_lv_timer_t) refers to statusbar.o(i._ZN35_INTERNAL_13_StatusBar_cpp_2710b79923lv_obj_get_style_heightEPK9_lv_obj_tj) for [local to StatusBar_cpp]::lv_obj_get_style_height(const _lv_obj_t*, unsigned)
    statusbar.o(i._ZN35_INTERNAL_13_StatusBar_cpp_2710b79916StatusBar_UpdateEP11_lv_timer_t) refers to lv_math.o(i.lv_map) for lv_map
    statusbar.o(i._ZN35_INTERNAL_13_StatusBar_cpp_2710b79916StatusBar_UpdateEP11_lv_timer_t) refers to lv_obj_pos.o(i.lv_obj_set_height) for lv_obj_set_height
    statusbar.o(i._ZN35_INTERNAL_13_StatusBar_cpp_2710b79916StatusBar_UpdateEP11_lv_timer_t) refers to statusbar.o(.data) for .data
    statusbar.o(i._ZN35_INTERNAL_13_StatusBar_cpp_2710b79916StatusBar_UpdateEP11_lv_timer_t) refers to statusbar.o(.bss) for .bss
    statusbar.o(i._ZN35_INTERNAL_13_StatusBar_cpp_2710b79918StatusBar_SetStyleEN8DataProc17StatusBar_Style_tE) refers to lv_obj.o(i.lv_obj_add_state) for lv_obj_add_state
    statusbar.o(i._ZN35_INTERNAL_13_StatusBar_cpp_2710b79918StatusBar_SetStyleEN8DataProc17StatusBar_Style_tE) refers to lv_obj.o(i.lv_obj_clear_state) for lv_obj_clear_state
    statusbar.o(i._ZN35_INTERNAL_13_StatusBar_cpp_2710b79918StatusBar_SetStyleEN8DataProc17StatusBar_Style_tE) refers to statusbar.o(.bss) for .bss
    statusbar.o(i._ZN35_INTERNAL_13_StatusBar_cpp_2710b79919StatusBar_StyleInitEP9_lv_obj_t) refers to lv_obj_style_gen.o(i.lv_obj_set_style_bg_opa) for lv_obj_set_style_bg_opa
    statusbar.o(i._ZN35_INTERNAL_13_StatusBar_cpp_2710b79919StatusBar_StyleInitEP9_lv_obj_t) refers to lv_obj_style_gen.o(i.lv_obj_set_style_bg_color) for lv_obj_set_style_bg_color
    statusbar.o(i._ZN35_INTERNAL_13_StatusBar_cpp_2710b79919StatusBar_StyleInitEP9_lv_obj_t) refers to statusbar.o(i._ZN35_INTERNAL_13_StatusBar_cpp_2710b79914lv_color_blackEv) for [local to StatusBar_cpp]::lv_color_black()
    statusbar.o(i._ZN35_INTERNAL_13_StatusBar_cpp_2710b79919StatusBar_StyleInitEP9_lv_obj_t) refers to lv_obj_style_gen.o(i.lv_obj_set_style_shadow_color) for lv_obj_set_style_shadow_color
    statusbar.o(i._ZN35_INTERNAL_13_StatusBar_cpp_2710b79919StatusBar_StyleInitEP9_lv_obj_t) refers to lv_obj_style_gen.o(i.lv_obj_set_style_shadow_width) for lv_obj_set_style_shadow_width
    statusbar.o(i._ZN35_INTERNAL_13_StatusBar_cpp_2710b79919StatusBar_StyleInitEP9_lv_obj_t) refers to lv_style.o(i.lv_style_transition_dsc_init) for lv_style_transition_dsc_init
    statusbar.o(i._ZN35_INTERNAL_13_StatusBar_cpp_2710b79919StatusBar_StyleInitEP9_lv_obj_t) refers to lv_obj_style_gen.o(i.lv_obj_set_style_transition) for lv_obj_set_style_transition
    statusbar.o(i._ZN35_INTERNAL_13_StatusBar_cpp_2710b79919StatusBar_StyleInitEP9_lv_obj_t) refers to lv_anim.o(i.lv_anim_path_ease_out) for lv_anim_path_ease_out
    statusbar.o(i._ZN35_INTERNAL_13_StatusBar_cpp_2710b79919StatusBar_StyleInitEP9_lv_obj_t) refers to statusbar.o(.constdata) for .constdata
    statusbar.o(i._ZN35_INTERNAL_13_StatusBar_cpp_2710b79919StatusBar_StyleInitEP9_lv_obj_t) refers to statusbar.o(.bss) for .bss
    statusbar.o(i._ZN35_INTERNAL_13_StatusBar_cpp_2710b79920StatusBar_AnimCreateEP9_lv_obj_t) refers to lv_anim.o(i.lv_anim_init) for lv_anim_init
    statusbar.o(i._ZN35_INTERNAL_13_StatusBar_cpp_2710b79920StatusBar_AnimCreateEP9_lv_obj_t) refers to statusbar.o(i._ZN35_INTERNAL_13_StatusBar_cpp_2710b79923lv_obj_get_style_heightEPK9_lv_obj_tj) for [local to StatusBar_cpp]::lv_obj_get_style_height(const _lv_obj_t*, unsigned)
    statusbar.o(i._ZN35_INTERNAL_13_StatusBar_cpp_2710b79920StatusBar_AnimCreateEP9_lv_obj_t) refers to lv_anim.o(i.lv_anim_start) for lv_anim_start
    statusbar.o(i._ZN35_INTERNAL_13_StatusBar_cpp_2710b79920StatusBar_AnimCreateEP9_lv_obj_t) refers to statusbar.o(i._ZZN35_INTERNAL_13_StatusBar_cpp_2710b79920StatusBar_AnimCreateEP9_lv_obj_tENUlPviE_4_FUNES2_i) for [local to StatusBar_cpp]::StatusBar_AnimCreate(_lv_obj_t*)::[lambda(void*, int) (instance 1)]::_FUN(void*, int)
    statusbar.o(i._ZN35_INTERNAL_13_StatusBar_cpp_2710b79920StatusBar_AnimCreateEP9_lv_obj_t) refers to statusbar.o(.bss) for .bss
    statusbar.o(i._ZN35_INTERNAL_13_StatusBar_cpp_2710b79920StatusBar_AnimCreateEP9_lv_obj_t) refers to statusbar.o(i._ZN35_INTERNAL_13_StatusBar_cpp_2710b79928StatusBar_onAnimHeightFinishEP10_lv_anim_t) for [local to StatusBar_cpp]::StatusBar_onAnimHeightFinish(_lv_anim_t*)
    statusbar.o(i._ZN35_INTERNAL_13_StatusBar_cpp_2710b79923StatusBar_ConBattSetOpaEP9_lv_obj_ti) refers to lv_obj_style_gen.o(i.lv_obj_set_style_opa) for lv_obj_set_style_opa
    statusbar.o(i._ZN35_INTERNAL_13_StatusBar_cpp_2710b79923lv_obj_get_style_heightEPK9_lv_obj_tj) refers to lv_obj_style.o(i.lv_obj_get_style_prop) for lv_obj_get_style_prop
    statusbar.o(i._ZN35_INTERNAL_13_StatusBar_cpp_2710b79925StatusBar_onAnimOpaFinishEP10_lv_anim_t) refers to statusbar.o(i._ZN35_INTERNAL_13_StatusBar_cpp_2710b79923StatusBar_ConBattSetOpaEP9_lv_obj_ti) for [local to StatusBar_cpp]::StatusBar_ConBattSetOpa(_lv_obj_t*, int)
    statusbar.o(i._ZN35_INTERNAL_13_StatusBar_cpp_2710b79925StatusBar_onAnimOpaFinishEP10_lv_anim_t) refers to statusbar.o(i._ZN35_INTERNAL_13_StatusBar_cpp_2710b79920StatusBar_AnimCreateEP9_lv_obj_t) for [local to StatusBar_cpp]::StatusBar_AnimCreate(_lv_obj_t*)
    statusbar.o(i._ZN35_INTERNAL_13_StatusBar_cpp_2710b79928StatusBar_RecAnimLabelCreateEP9_lv_obj_t) refers to lv_style.o(i.lv_style_init) for lv_style_init
    statusbar.o(i._ZN35_INTERNAL_13_StatusBar_cpp_2710b79928StatusBar_RecAnimLabelCreateEP9_lv_obj_t) refers to statusbar.o(i._ZN35_INTERNAL_13_StatusBar_cpp_2710b79914lv_color_whiteEv) for [local to StatusBar_cpp]::lv_color_white()
    statusbar.o(i._ZN35_INTERNAL_13_StatusBar_cpp_2710b79928StatusBar_RecAnimLabelCreateEP9_lv_obj_t) refers to lv_style_gen.o(i.lv_style_set_text_color) for lv_style_set_text_color
    statusbar.o(i._ZN35_INTERNAL_13_StatusBar_cpp_2710b79928StatusBar_RecAnimLabelCreateEP9_lv_obj_t) refers to resourcepool.o(i._ZN12ResourcePool7GetFontEPKc) for ResourcePool::GetFont(const char*)
    statusbar.o(i._ZN35_INTERNAL_13_StatusBar_cpp_2710b79928StatusBar_RecAnimLabelCreateEP9_lv_obj_t) refers to lv_style_gen.o(i.lv_style_set_text_font) for lv_style_set_text_font
    statusbar.o(i._ZN35_INTERNAL_13_StatusBar_cpp_2710b79928StatusBar_RecAnimLabelCreateEP9_lv_obj_t) refers to lv_anim_label.o(i.lv_anim_label_create) for lv_anim_label_create
    statusbar.o(i._ZN35_INTERNAL_13_StatusBar_cpp_2710b79928StatusBar_RecAnimLabelCreateEP9_lv_obj_t) refers to lv_obj_pos.o(i.lv_obj_set_size) for lv_obj_set_size
    statusbar.o(i._ZN35_INTERNAL_13_StatusBar_cpp_2710b79928StatusBar_RecAnimLabelCreateEP9_lv_obj_t) refers to lv_anim_label.o(i.lv_anim_label_set_enter_dir) for lv_anim_label_set_enter_dir
    statusbar.o(i._ZN35_INTERNAL_13_StatusBar_cpp_2710b79928StatusBar_RecAnimLabelCreateEP9_lv_obj_t) refers to lv_anim_label.o(i.lv_anim_label_set_exit_dir) for lv_anim_label_set_exit_dir
    statusbar.o(i._ZN35_INTERNAL_13_StatusBar_cpp_2710b79928StatusBar_RecAnimLabelCreateEP9_lv_obj_t) refers to lv_anim_label.o(i.lv_anim_label_set_path) for lv_anim_label_set_path
    statusbar.o(i._ZN35_INTERNAL_13_StatusBar_cpp_2710b79928StatusBar_RecAnimLabelCreateEP9_lv_obj_t) refers to lv_anim_label.o(i.lv_anim_label_set_time) for lv_anim_label_set_time
    statusbar.o(i._ZN35_INTERNAL_13_StatusBar_cpp_2710b79928StatusBar_RecAnimLabelCreateEP9_lv_obj_t) refers to lv_anim_label.o(i.lv_anim_label_add_style) for lv_anim_label_add_style
    statusbar.o(i._ZN35_INTERNAL_13_StatusBar_cpp_2710b79928StatusBar_RecAnimLabelCreateEP9_lv_obj_t) refers to lv_obj_pos.o(i.lv_obj_align) for lv_obj_align
    statusbar.o(i._ZN35_INTERNAL_13_StatusBar_cpp_2710b79928StatusBar_RecAnimLabelCreateEP9_lv_obj_t) refers to lv_anim.o(i.lv_anim_init) for lv_anim_init
    statusbar.o(i._ZN35_INTERNAL_13_StatusBar_cpp_2710b79928StatusBar_RecAnimLabelCreateEP9_lv_obj_t) refers to rt_memcpy_w.o(.text) for __aeabi_memcpy4
    statusbar.o(i._ZN35_INTERNAL_13_StatusBar_cpp_2710b79928StatusBar_RecAnimLabelCreateEP9_lv_obj_t) refers to lv_anim_label.o(i.lv_anim_label_set_custom_enter_anim) for lv_anim_label_set_custom_enter_anim
    statusbar.o(i._ZN35_INTERNAL_13_StatusBar_cpp_2710b79928StatusBar_RecAnimLabelCreateEP9_lv_obj_t) refers to lv_anim_label.o(i.lv_anim_label_set_custom_exit_anim) for lv_anim_label_set_custom_exit_anim
    statusbar.o(i._ZN35_INTERNAL_13_StatusBar_cpp_2710b79928StatusBar_RecAnimLabelCreateEP9_lv_obj_t) refers to statusbar.o(.data) for .data
    statusbar.o(i._ZN35_INTERNAL_13_StatusBar_cpp_2710b79928StatusBar_RecAnimLabelCreateEP9_lv_obj_t) refers to lv_anim.o(i.lv_anim_path_ease_out) for lv_anim_path_ease_out
    statusbar.o(i._ZN35_INTERNAL_13_StatusBar_cpp_2710b79928StatusBar_RecAnimLabelCreateEP9_lv_obj_t) refers to statusbar.o(i._ZZN35_INTERNAL_13_StatusBar_cpp_2710b79928StatusBar_RecAnimLabelCreateEP9_lv_obj_tENUlPviE_4_FUNES2_i) for [local to StatusBar_cpp]::StatusBar_RecAnimLabelCreate(_lv_obj_t*)::[lambda(void*, int) (instance 1)]::_FUN(void*, int)
    statusbar.o(i._ZN35_INTERNAL_13_StatusBar_cpp_2710b79928StatusBar_SdCardImage_CreateEP9_lv_obj_t) refers to lv_img.o(i.lv_img_create) for lv_img_create
    statusbar.o(i._ZN35_INTERNAL_13_StatusBar_cpp_2710b79928StatusBar_SdCardImage_CreateEP9_lv_obj_t) refers to resourcepool.o(i._ZN12ResourcePool8GetImageEPKc) for ResourcePool::GetImage(const char*)
    statusbar.o(i._ZN35_INTERNAL_13_StatusBar_cpp_2710b79928StatusBar_SdCardImage_CreateEP9_lv_obj_t) refers to lv_img.o(i.lv_img_set_src) for lv_img_set_src
    statusbar.o(i._ZN35_INTERNAL_13_StatusBar_cpp_2710b79928StatusBar_SdCardImage_CreateEP9_lv_obj_t) refers to lv_obj_pos.o(i.lv_obj_align) for lv_obj_align
    statusbar.o(i._ZN35_INTERNAL_13_StatusBar_cpp_2710b79928StatusBar_SdCardImage_CreateEP9_lv_obj_t) refers to lv_obj_style_gen.o(i.lv_obj_set_style_translate_y) for lv_obj_set_style_translate_y
    statusbar.o(i._ZN35_INTERNAL_13_StatusBar_cpp_2710b79928StatusBar_SdCardImage_CreateEP9_lv_obj_t) refers to lv_style.o(i.lv_style_transition_dsc_init) for lv_style_transition_dsc_init
    statusbar.o(i._ZN35_INTERNAL_13_StatusBar_cpp_2710b79928StatusBar_SdCardImage_CreateEP9_lv_obj_t) refers to lv_obj_style_gen.o(i.lv_obj_set_style_transition) for lv_obj_set_style_transition
    statusbar.o(i._ZN35_INTERNAL_13_StatusBar_cpp_2710b79928StatusBar_SdCardImage_CreateEP9_lv_obj_t) refers to lv_anim.o(i.lv_anim_path_overshoot) for lv_anim_path_overshoot
    statusbar.o(i._ZN35_INTERNAL_13_StatusBar_cpp_2710b79928StatusBar_SdCardImage_CreateEP9_lv_obj_t) refers to statusbar.o(.constdata) for .constdata
    statusbar.o(i._ZN35_INTERNAL_13_StatusBar_cpp_2710b79928StatusBar_SdCardImage_CreateEP9_lv_obj_t) refers to statusbar.o(.bss) for .bss
    statusbar.o(i._ZN35_INTERNAL_13_StatusBar_cpp_2710b79928StatusBar_onAnimHeightFinishEP10_lv_anim_t) refers to lv_anim.o(i.lv_anim_init) for lv_anim_init
    statusbar.o(i._ZN35_INTERNAL_13_StatusBar_cpp_2710b79928StatusBar_onAnimHeightFinishEP10_lv_anim_t) refers to lv_anim.o(i.lv_anim_start) for lv_anim_start
    statusbar.o(i._ZN35_INTERNAL_13_StatusBar_cpp_2710b79928StatusBar_onAnimHeightFinishEP10_lv_anim_t) refers to statusbar.o(i._ZN35_INTERNAL_13_StatusBar_cpp_2710b79923StatusBar_ConBattSetOpaEP9_lv_obj_ti) for [local to StatusBar_cpp]::StatusBar_ConBattSetOpa(_lv_obj_t*, int)
    statusbar.o(i._ZN35_INTERNAL_13_StatusBar_cpp_2710b79928StatusBar_onAnimHeightFinishEP10_lv_anim_t) refers to statusbar.o(i._ZN35_INTERNAL_13_StatusBar_cpp_2710b79925StatusBar_onAnimOpaFinishEP10_lv_anim_t) for [local to StatusBar_cpp]::StatusBar_onAnimOpaFinish(_lv_anim_t*)
    statusbar.o(i._ZN35_INTERNAL_13_StatusBar_cpp_2710b7997onEventEP7AccountPNS0_12EventParam_tE) refers to lv_anim.o(i.lv_anim_init) for lv_anim_init
    statusbar.o(i._ZN35_INTERNAL_13_StatusBar_cpp_2710b7997onEventEP7AccountPNS0_12EventParam_tE) refers to lv_anim.o(i.lv_anim_start) for lv_anim_start
    statusbar.o(i._ZN35_INTERNAL_13_StatusBar_cpp_2710b7997onEventEP7AccountPNS0_12EventParam_tE) refers to statusbar.o(i._ZN35_INTERNAL_13_StatusBar_cpp_2710b79918StatusBar_SetStyleEN8DataProc17StatusBar_Style_tE) for [local to StatusBar_cpp]::StatusBar_SetStyle(DataProc::StatusBar_Style_t)
    statusbar.o(i._ZN35_INTERNAL_13_StatusBar_cpp_2710b7997onEventEP7AccountPNS0_12EventParam_tE) refers to lv_anim_label.o(i.lv_anim_label_set_text) for lv_anim_label_set_text
    statusbar.o(i._ZN35_INTERNAL_13_StatusBar_cpp_2710b7997onEventEP7AccountPNS0_12EventParam_tE) refers to statusbar.o(.bss) for .bss
    statusbar.o(i._ZN35_INTERNAL_13_StatusBar_cpp_2710b7997onEventEP7AccountPNS0_12EventParam_tE) refers to lv_obj_pos.o(i.lv_obj_set_y) for lv_obj_set_y
    statusbar.o(i._ZN35_INTERNAL_13_StatusBar_cpp_2710b7997onEventEP7AccountPNS0_12EventParam_tE) refers to lv_anim.o(i.lv_anim_path_ease_out) for lv_anim_path_ease_out
    statusbar.o(i._ZN4Page16StatusBar_CreateEP9_lv_obj_t) refers to lv_obj.o(i.lv_obj_create) for lv_obj_create
    statusbar.o(i._ZN4Page16StatusBar_CreateEP9_lv_obj_t) refers to lv_obj_style.o(i.lv_obj_remove_style) for lv_obj_remove_style
    statusbar.o(i._ZN4Page16StatusBar_CreateEP9_lv_obj_t) refers to lv_hal_disp.o(i.lv_disp_get_default) for lv_disp_get_default
    statusbar.o(i._ZN4Page16StatusBar_CreateEP9_lv_obj_t) refers to lv_hal_disp.o(i.lv_disp_get_hor_res) for lv_disp_get_hor_res
    statusbar.o(i._ZN4Page16StatusBar_CreateEP9_lv_obj_t) refers to lv_obj_pos.o(i.lv_obj_set_size) for lv_obj_set_size
    statusbar.o(i._ZN4Page16StatusBar_CreateEP9_lv_obj_t) refers to lv_obj_pos.o(i.lv_obj_set_y) for lv_obj_set_y
    statusbar.o(i._ZN4Page16StatusBar_CreateEP9_lv_obj_t) refers to statusbar.o(i._ZN35_INTERNAL_13_StatusBar_cpp_2710b79919StatusBar_StyleInitEP9_lv_obj_t) for [local to StatusBar_cpp]::StatusBar_StyleInit(_lv_obj_t*)
    statusbar.o(i._ZN4Page16StatusBar_CreateEP9_lv_obj_t) refers to lv_style.o(i.lv_style_init) for lv_style_init
    statusbar.o(i._ZN4Page16StatusBar_CreateEP9_lv_obj_t) refers to statusbar.o(i._ZN35_INTERNAL_13_StatusBar_cpp_2710b79914lv_color_whiteEv) for [local to StatusBar_cpp]::lv_color_white()
    statusbar.o(i._ZN4Page16StatusBar_CreateEP9_lv_obj_t) refers to lv_style_gen.o(i.lv_style_set_text_color) for lv_style_set_text_color
    statusbar.o(i._ZN4Page16StatusBar_CreateEP9_lv_obj_t) refers to resourcepool.o(i._ZN12ResourcePool7GetFontEPKc) for ResourcePool::GetFont(const char*)
    statusbar.o(i._ZN4Page16StatusBar_CreateEP9_lv_obj_t) refers to lv_style_gen.o(i.lv_style_set_text_font) for lv_style_set_text_font
    statusbar.o(i._ZN4Page16StatusBar_CreateEP9_lv_obj_t) refers to lv_img.o(i.lv_img_create) for lv_img_create
    statusbar.o(i._ZN4Page16StatusBar_CreateEP9_lv_obj_t) refers to resourcepool.o(i._ZN12ResourcePool8GetImageEPKc) for ResourcePool::GetImage(const char*)
    statusbar.o(i._ZN4Page16StatusBar_CreateEP9_lv_obj_t) refers to lv_img.o(i.lv_img_set_src) for lv_img_set_src
    statusbar.o(i._ZN4Page16StatusBar_CreateEP9_lv_obj_t) refers to lv_obj_pos.o(i.lv_obj_align) for lv_obj_align
    statusbar.o(i._ZN4Page16StatusBar_CreateEP9_lv_obj_t) refers to lv_label.o(i.lv_label_create) for lv_label_create
    statusbar.o(i._ZN4Page16StatusBar_CreateEP9_lv_obj_t) refers to lv_obj_style.o(i.lv_obj_add_style) for lv_obj_add_style
    statusbar.o(i._ZN4Page16StatusBar_CreateEP9_lv_obj_t) refers to lv_obj_pos.o(i.lv_obj_align_to) for lv_obj_align_to
    statusbar.o(i._ZN4Page16StatusBar_CreateEP9_lv_obj_t) refers to lv_label.o(i.lv_label_set_text) for lv_label_set_text
    statusbar.o(i._ZN4Page16StatusBar_CreateEP9_lv_obj_t) refers to statusbar.o(i._ZN35_INTERNAL_13_StatusBar_cpp_2710b79928StatusBar_SdCardImage_CreateEP9_lv_obj_t) for [local to StatusBar_cpp]::StatusBar_SdCardImage_Create(_lv_obj_t*)
    statusbar.o(i._ZN4Page16StatusBar_CreateEP9_lv_obj_t) refers to statusbar.o(i._ZN35_INTERNAL_13_StatusBar_cpp_2710b79928StatusBar_RecAnimLabelCreateEP9_lv_obj_t) for [local to StatusBar_cpp]::StatusBar_RecAnimLabelCreate(_lv_obj_t*)
    statusbar.o(i._ZN4Page16StatusBar_CreateEP9_lv_obj_t) refers to lv_obj_style_gen.o(i.lv_obj_set_style_bg_color) for lv_obj_set_style_bg_color
    statusbar.o(i._ZN4Page16StatusBar_CreateEP9_lv_obj_t) refers to lv_obj_style_gen.o(i.lv_obj_set_style_bg_opa) for lv_obj_set_style_bg_opa
    statusbar.o(i._ZN4Page16StatusBar_CreateEP9_lv_obj_t) refers to lv_obj_style_gen.o(i.lv_obj_set_style_opa) for lv_obj_set_style_opa
    statusbar.o(i._ZN4Page16StatusBar_CreateEP9_lv_obj_t) refers to statusbar.o(i._ZN35_INTERNAL_13_StatusBar_cpp_2710b79923lv_obj_get_style_heightEPK9_lv_obj_tj) for [local to StatusBar_cpp]::lv_obj_get_style_height(const _lv_obj_t*, unsigned)
    statusbar.o(i._ZN4Page16StatusBar_CreateEP9_lv_obj_t) refers to lv_obj_style.o(i.lv_obj_get_style_prop) for lv_obj_get_style_prop
    statusbar.o(i._ZN4Page16StatusBar_CreateEP9_lv_obj_t) refers to statusbar.o(i._ZN35_INTERNAL_13_StatusBar_cpp_2710b79918StatusBar_SetStyleEN8DataProc17StatusBar_Style_tE) for [local to StatusBar_cpp]::StatusBar_SetStyle(DataProc::StatusBar_Style_t)
    statusbar.o(i._ZN4Page16StatusBar_CreateEP9_lv_obj_t) refers to lv_timer.o(i.lv_timer_create) for lv_timer_create
    statusbar.o(i._ZN4Page16StatusBar_CreateEP9_lv_obj_t) refers to lv_timer.o(i.lv_timer_ready) for lv_timer_ready
    statusbar.o(i._ZN4Page16StatusBar_CreateEP9_lv_obj_t) refers to statusbar.o(.bss) for .bss
    statusbar.o(i._ZN4Page16StatusBar_CreateEP9_lv_obj_t) refers to statusbar.o(.data) for .data
    statusbar.o(i._ZN4Page16StatusBar_CreateEP9_lv_obj_t) refers to statusbar.o(i._ZN35_INTERNAL_13_StatusBar_cpp_2710b79916StatusBar_UpdateEP11_lv_timer_t) for [local to StatusBar_cpp]::StatusBar_Update(_lv_timer_t*)
    statusbar.o(i._ZZN35_INTERNAL_13_StatusBar_cpp_2710b79920StatusBar_AnimCreateEP9_lv_obj_tENUlPviE_4_FUNES2_i) refers to lv_obj_pos.o(i.lv_obj_set_height) for lv_obj_set_height
    statusbar.o(i._ZZN35_INTERNAL_13_StatusBar_cpp_2710b79928StatusBar_RecAnimLabelCreateEP9_lv_obj_tENUlPviE_4_FUNES2_i) refers to lv_obj_style_gen.o(i.lv_obj_set_style_opa) for lv_obj_set_style_opa
    statusbar.o(.ARM.exidx) refers to statusbar.o(i._ZN35_INTERNAL_13_StatusBar_cpp_2710b79913lv_color_makeEhhh) for i._ZN35_INTERNAL_13_StatusBar_cpp_2710b79913lv_color_makeEhhh
    statusbar.o(.ARM.exidx) refers to statusbar.o(i._ZN35_INTERNAL_13_StatusBar_cpp_2710b79928StatusBar_onAnimHeightFinishEP10_lv_anim_t) for i._ZN35_INTERNAL_13_StatusBar_cpp_2710b79928StatusBar_onAnimHeightFinishEP10_lv_anim_t
    statusbar.o(.ARM.exidx) refers to statusbar.o(i._ZZN35_INTERNAL_13_StatusBar_cpp_2710b79920StatusBar_AnimCreateEP9_lv_obj_tENUlPviE_4_FUNES2_i) for i._ZZN35_INTERNAL_13_StatusBar_cpp_2710b79920StatusBar_AnimCreateEP9_lv_obj_tENUlPviE_4_FUNES2_i
    statusbar.o(.ARM.exidx) refers to statusbar.o(i._ZN35_INTERNAL_13_StatusBar_cpp_2710b79920StatusBar_AnimCreateEP9_lv_obj_t) for i._ZN35_INTERNAL_13_StatusBar_cpp_2710b79920StatusBar_AnimCreateEP9_lv_obj_t
    statusbar.o(.ARM.exidx) refers to statusbar.o(i._ZN35_INTERNAL_13_StatusBar_cpp_2710b79925StatusBar_onAnimOpaFinishEP10_lv_anim_t) for i._ZN35_INTERNAL_13_StatusBar_cpp_2710b79925StatusBar_onAnimOpaFinishEP10_lv_anim_t
    statusbar.o(.ARM.exidx) refers to statusbar.o(i._ZZN35_INTERNAL_13_StatusBar_cpp_2710b79928StatusBar_RecAnimLabelCreateEP9_lv_obj_tENUlPviE_4_FUNES2_i) for i._ZZN35_INTERNAL_13_StatusBar_cpp_2710b79928StatusBar_RecAnimLabelCreateEP9_lv_obj_tENUlPviE_4_FUNES2_i
    statusbar.o(.ARM.exidx) refers to statusbar.o(i._ZN35_INTERNAL_13_StatusBar_cpp_2710b79928StatusBar_RecAnimLabelCreateEP9_lv_obj_t) for i._ZN35_INTERNAL_13_StatusBar_cpp_2710b79928StatusBar_RecAnimLabelCreateEP9_lv_obj_t
    statusbar.o(.ARM.exidx) refers to statusbar.o(i._ZN35_INTERNAL_13_StatusBar_cpp_2710b79916StatusBar_UpdateEP11_lv_timer_t) for i._ZN35_INTERNAL_13_StatusBar_cpp_2710b79916StatusBar_UpdateEP11_lv_timer_t
    statusbar.o(.ARM.exidx) refers to statusbar.o(i._ZN35_INTERNAL_13_StatusBar_cpp_2710b7997onEventEP7AccountPNS0_12EventParam_tE) for i._ZN35_INTERNAL_13_StatusBar_cpp_2710b7997onEventEP7AccountPNS0_12EventParam_tE
    statusbar.o(.ARM.exidx) refers to statusbar.o(i._Z18_DP_StatusBar_InitP7Account) for i._Z18_DP_StatusBar_InitP7Account
    statusbar.o(.ARM.exidx) refers to statusbar.o(i._ZN4Page16StatusBar_CreateEP9_lv_obj_t) for i._ZN4Page16StatusBar_CreateEP9_lv_obj_t
    statusbar.o(.ARM.exidx) refers to statusbar.o(i._ZN35_INTERNAL_13_StatusBar_cpp_2710b79914lv_color_whiteEv) for i._ZN35_INTERNAL_13_StatusBar_cpp_2710b79914lv_color_whiteEv
    statusbar.o(.ARM.exidx) refers to statusbar.o(i._ZN35_INTERNAL_13_StatusBar_cpp_2710b79923lv_obj_get_style_heightEPK9_lv_obj_tj) for i._ZN35_INTERNAL_13_StatusBar_cpp_2710b79923lv_obj_get_style_heightEPK9_lv_obj_tj
    statusbar.o(.ARM.exidx) refers to statusbar.o(i._ZN35_INTERNAL_13_StatusBar_cpp_2710b79923StatusBar_ConBattSetOpaEP9_lv_obj_ti) for i._ZN35_INTERNAL_13_StatusBar_cpp_2710b79923StatusBar_ConBattSetOpaEP9_lv_obj_ti
    statusbar.o(.ARM.exidx) refers to statusbar.o(i._ZN35_INTERNAL_13_StatusBar_cpp_2710b79919StatusBar_StyleInitEP9_lv_obj_t) for i._ZN35_INTERNAL_13_StatusBar_cpp_2710b79919StatusBar_StyleInitEP9_lv_obj_t
    statusbar.o(.ARM.exidx) refers to statusbar.o(i._ZN35_INTERNAL_13_StatusBar_cpp_2710b79928StatusBar_SdCardImage_CreateEP9_lv_obj_t) for i._ZN35_INTERNAL_13_StatusBar_cpp_2710b79928StatusBar_SdCardImage_CreateEP9_lv_obj_t
    statusbar.o(.ARM.exidx) refers to statusbar.o(i._ZN35_INTERNAL_13_StatusBar_cpp_2710b79918StatusBar_SetStyleEN8DataProc17StatusBar_Style_tE) for i._ZN35_INTERNAL_13_StatusBar_cpp_2710b79918StatusBar_SetStyleEN8DataProc17StatusBar_Style_tE
    statusbar.o(.ARM.exidx) refers to statusbar.o(i._ZN35_INTERNAL_13_StatusBar_cpp_2710b79914lv_color_blackEv) for i._ZN35_INTERNAL_13_StatusBar_cpp_2710b79914lv_color_blackEv
    startup.o(i._ZN4Page7Startup10onViewLoadEv) refers to startupmodel.o(i._ZN4Page12StartupModel4InitEv) for Page::StartupModel::Init()
    startup.o(i._ZN4Page7Startup10onViewLoadEv) refers to hal_encoder.o(i._ZN3HAL17Encoder_SetEnableEb) for HAL::Encoder_SetEnable(bool)
    startup.o(i._ZN4Page7Startup10onViewLoadEv) refers to startupview.o(i._ZN4Page11StartupView6CreateEP9_lv_obj_t) for Page::StartupView::Create(_lv_obj_t*)
    startup.o(i._ZN4Page7Startup10onViewLoadEv) refers to lv_timer.o(i.lv_timer_create) for lv_timer_create
    startup.o(i._ZN4Page7Startup10onViewLoadEv) refers to lv_timer.o(i.lv_timer_set_repeat_count) for lv_timer_set_repeat_count
    startup.o(i._ZN4Page7Startup10onViewLoadEv) refers to startup.o(i._ZN4Page7Startup7onTimerEP11_lv_timer_t) for Page::Startup::onTimer(_lv_timer_t*)
    startup.o(i._ZN4Page7Startup13onViewDidLoadEv) refers to lv_obj_style.o(i.lv_obj_fade_out) for lv_obj_fade_out
    startup.o(i._ZN4Page7Startup15onViewDidUnloadEv) refers to startupview.o(i._ZN4Page11StartupView6DeleteEv) for Page::StartupView::Delete()
    startup.o(i._ZN4Page7Startup15onViewDidUnloadEv) refers to hal_encoder.o(i._ZN3HAL17Encoder_SetEnableEb) for HAL::Encoder_SetEnable(bool)
    startup.o(i._ZN4Page7Startup15onViewDidUnloadEv) refers to startupmodel.o(i._ZN4Page12StartupModel6DeinitEv) for Page::StartupModel::Deinit()
    startup.o(i._ZN4Page7Startup16onViewWillAppearEv) refers to startupmodel.o(i._ZN4Page12StartupModel9PlayMusicEPKc) for Page::StartupModel::PlayMusic(const char*)
    startup.o(i._ZN4Page7Startup16onViewWillAppearEv) refers to lv_anim_timeline.o(i.lv_anim_timeline_start) for lv_anim_timeline_start
    startup.o(i._ZN4Page7Startup18onCustomAttrConfigEv) refers to lv_anim.o(i.lv_anim_path_ease_out) for lv_anim_path_ease_out
    startup.o(i._ZN4Page7Startup18onViewDidDisappearEv) refers to startupmodel.o(i._ZN4Page12StartupModel18SetStatusBarAppearEb) for Page::StartupModel::SetStatusBarAppear(bool)
    startup.o(i._ZN4Page7Startup7onEventEP11_lv_event_t) refers to lv_event.o(i.lv_event_get_user_data) for lv_event_get_user_data
    startup.o(i._ZN4Page7Startup7onEventEP11_lv_event_t) refers to lv_event.o(i.lv_event_get_current_target) for lv_event_get_current_target
    startup.o(i._ZN4Page7Startup7onEventEP11_lv_event_t) refers to lv_event.o(i.lv_event_get_code) for lv_event_get_code
    startup.o(i._ZN4Page7Startup7onTimerEP11_lv_timer_t) refers to pm_router.o(i._ZN11PageManager4PushEPKcPKN8PageBase7Stash_tE) for PageManager::Push(const char*, const PageBase::Stash_t*)
    startup.o(i._ZN4Page7StartupC1Ev) refers to startup.o(.constdata__ZTVN4Page7StartupE) for vtable for Page::Startup
    startup.o(i._ZN4Page7StartupD0Ev) refers to new.o(i._ZdlPv) for operator delete (void*)
    startup.o(.ARM.exidx) refers to startup.o(i._ZN4Page7StartupC1Ev) for i._ZN4Page7StartupC1Ev
    startup.o(.ARM.exidx) refers to startup.o(i._ZN4Page7StartupD1Ev) for i._ZN4Page7StartupD1Ev
    startup.o(.ARM.exidx) refers to startup.o(i._ZN4Page7StartupD0Ev) for i._ZN4Page7StartupD0Ev
    startup.o(.ARM.exidx) refers to startup.o(i._ZN4Page7Startup18onCustomAttrConfigEv) for i._ZN4Page7Startup18onCustomAttrConfigEv
    startup.o(.ARM.exidx) refers to startup.o(i._ZN4Page7Startup7onTimerEP11_lv_timer_t) for i._ZN4Page7Startup7onTimerEP11_lv_timer_t
    startup.o(.ARM.exidx) refers to startup.o(i._ZN4Page7Startup10onViewLoadEv) for i._ZN4Page7Startup10onViewLoadEv
    startup.o(.ARM.exidx) refers to startup.o(i._ZN4Page7Startup13onViewDidLoadEv) for i._ZN4Page7Startup13onViewDidLoadEv
    startup.o(.ARM.exidx) refers to startup.o(i._ZN4Page7Startup16onViewWillAppearEv) for i._ZN4Page7Startup16onViewWillAppearEv
    startup.o(.ARM.exidx) refers to startup.o(i._ZN4Page7Startup15onViewDidAppearEv) for i._ZN4Page7Startup15onViewDidAppearEv
    startup.o(.ARM.exidx) refers to startup.o(i._ZN4Page7Startup19onViewWillDisappearEv) for i._ZN4Page7Startup19onViewWillDisappearEv
    startup.o(.ARM.exidx) refers to startup.o(i._ZN4Page7Startup18onViewDidDisappearEv) for i._ZN4Page7Startup18onViewDidDisappearEv
    startup.o(.ARM.exidx) refers to startup.o(i._ZN4Page7Startup15onViewDidUnloadEv) for i._ZN4Page7Startup15onViewDidUnloadEv
    startup.o(.ARM.exidx) refers to startup.o(i._ZN4Page7Startup7onEventEP11_lv_event_t) for i._ZN4Page7Startup7onEventEP11_lv_event_t
    startupmodel.o(i._ZN4Page12StartupModel18SetStatusBarAppearEb) refers to account.o(i._ZN7Account6NotifyEPKcPKvj) for Account::Notify(const char*, const void*, unsigned)
    startupmodel.o(i._ZN4Page12StartupModel4InitEv) refers to new.o(i._Znwj) for operator new(unsigned)
    startupmodel.o(i._ZN4Page12StartupModel4InitEv) refers to dataproc.o(i._ZN8DataProc6CenterEv) for DataProc::Center()
    startupmodel.o(i._ZN4Page12StartupModel4InitEv) refers to account.o(i._ZN7AccountC1EPKcP10DataCenterjPv) for Account::Account(const char*, DataCenter*, unsigned, void*)
    startupmodel.o(i._ZN4Page12StartupModel4InitEv) refers to account.o(i._ZN7Account9SubscribeEPKc) for Account::Subscribe(const char*)
    startupmodel.o(i._ZN4Page12StartupModel6DeinitEv) refers to account.o(i._ZN7AccountD1Ev) for Account::~Account()
    startupmodel.o(i._ZN4Page12StartupModel6DeinitEv) refers to new.o(i._ZdlPv) for operator delete (void*)
    startupmodel.o(i._ZN4Page12StartupModel9PlayMusicEPKc) refers to account.o(i._ZN7Account6NotifyEPKcPKvj) for Account::Notify(const char*, const void*, unsigned)
    startupmodel.o(.ARM.exidx) refers to startupmodel.o(i._ZN4Page12StartupModel4InitEv) for i._ZN4Page12StartupModel4InitEv
    startupmodel.o(.ARM.exidx) refers to startupmodel.o(i._ZN4Page12StartupModel6DeinitEv) for i._ZN4Page12StartupModel6DeinitEv
    startupmodel.o(.ARM.exidx) refers to startupmodel.o(i._ZN4Page12StartupModel9PlayMusicEPKc) for i._ZN4Page12StartupModel9PlayMusicEPKc
    startupmodel.o(.ARM.exidx) refers to startupmodel.o(i._ZN4Page12StartupModel18SetStatusBarAppearEb) for i._ZN4Page12StartupModel18SetStatusBarAppearEb
    startupview.o(i._ZN37_INTERNAL_15_StartupView_cpp_6896854213lv_obj_centerEP9_lv_obj_t) refers to lv_obj_pos.o(i.lv_obj_align) for lv_obj_align
    startupview.o(i._ZN4Page11StartupView6CreateEP9_lv_obj_t) refers to lv_obj_style.o(i.lv_obj_remove_style) for lv_obj_remove_style
    startupview.o(i._ZN4Page11StartupView6CreateEP9_lv_obj_t) refers to lv_hal_disp.o(i.lv_disp_get_default) for lv_disp_get_default
    startupview.o(i._ZN4Page11StartupView6CreateEP9_lv_obj_t) refers to lv_hal_disp.o(i.lv_disp_get_ver_res) for lv_disp_get_ver_res
    startupview.o(i._ZN4Page11StartupView6CreateEP9_lv_obj_t) refers to lv_hal_disp.o(i.lv_disp_get_hor_res) for lv_disp_get_hor_res
    startupview.o(i._ZN4Page11StartupView6CreateEP9_lv_obj_t) refers to lv_obj_pos.o(i.lv_obj_set_size) for lv_obj_set_size
    startupview.o(i._ZN4Page11StartupView6CreateEP9_lv_obj_t) refers to lv_obj.o(i.lv_obj_create) for lv_obj_create
    startupview.o(i._ZN4Page11StartupView6CreateEP9_lv_obj_t) refers to lv_obj.o(i.lv_obj_clear_flag) for lv_obj_clear_flag
    startupview.o(i._ZN4Page11StartupView6CreateEP9_lv_obj_t) refers to lv_obj_style_gen.o(i.lv_obj_set_style_border_color) for lv_obj_set_style_border_color
    startupview.o(i._ZN4Page11StartupView6CreateEP9_lv_obj_t) refers to lv_obj_style_gen.o(i.lv_obj_set_style_border_side) for lv_obj_set_style_border_side
    startupview.o(i._ZN4Page11StartupView6CreateEP9_lv_obj_t) refers to lv_obj_style_gen.o(i.lv_obj_set_style_border_width) for lv_obj_set_style_border_width
    startupview.o(i._ZN4Page11StartupView6CreateEP9_lv_obj_t) refers to lv_obj_style_gen.o(i.lv_obj_set_style_border_post) for lv_obj_set_style_border_post
    startupview.o(i._ZN4Page11StartupView6CreateEP9_lv_obj_t) refers to startupview.o(i._ZN37_INTERNAL_15_StartupView_cpp_6896854213lv_obj_centerEP9_lv_obj_t) for [local to StartupView_cpp]::lv_obj_center(_lv_obj_t*)
    startupview.o(i._ZN4Page11StartupView6CreateEP9_lv_obj_t) refers to lv_label.o(i.lv_label_create) for lv_label_create
    startupview.o(i._ZN4Page11StartupView6CreateEP9_lv_obj_t) refers to resourcepool.o(i._ZN12ResourcePool7GetFontEPKc) for ResourcePool::GetFont(const char*)
    startupview.o(i._ZN4Page11StartupView6CreateEP9_lv_obj_t) refers to lv_obj_style_gen.o(i.lv_obj_set_style_text_font) for lv_obj_set_style_text_font
    startupview.o(i._ZN4Page11StartupView6CreateEP9_lv_obj_t) refers to lv_obj_style_gen.o(i.lv_obj_set_style_text_color) for lv_obj_set_style_text_color
    startupview.o(i._ZN4Page11StartupView6CreateEP9_lv_obj_t) refers to lv_label.o(i.lv_label_set_text) for lv_label_set_text
    startupview.o(i._ZN4Page11StartupView6CreateEP9_lv_obj_t) refers to lv_anim_timeline.o(i.lv_anim_timeline_create) for lv_anim_timeline_create
    startupview.o(i._ZN4Page11StartupView6CreateEP9_lv_obj_t) refers to rt_memcpy_w.o(.text) for __aeabi_memcpy4
    startupview.o(i._ZN4Page11StartupView6CreateEP9_lv_obj_t) refers to lv_obj_style.o(i.lv_obj_get_style_prop) for lv_obj_get_style_prop
    startupview.o(i._ZN4Page11StartupView6CreateEP9_lv_obj_t) refers to lv_obj_pos.o(i.lv_obj_get_y) for lv_obj_get_y
    startupview.o(i._ZN4Page11StartupView6CreateEP9_lv_obj_t) refers to lv_anim_timeline_wrapper.o(i.lv_anim_timeline_add_wrapper) for lv_anim_timeline_add_wrapper
    startupview.o(i._ZN4Page11StartupView6CreateEP9_lv_obj_t) refers to startupview.o(.constdata) for .constdata
    startupview.o(i._ZN4Page11StartupView6DeleteEv) refers to lv_anim_timeline.o(i.lv_anim_timeline_del) for lv_anim_timeline_del
    startupview.o(.ARM.exidx) refers to startupview.o(i._ZN4Page11StartupView6CreateEP9_lv_obj_t) for i._ZN4Page11StartupView6CreateEP9_lv_obj_t
    startupview.o(.ARM.exidx) refers to startupview.o(i._ZN4Page11StartupView6DeleteEv) for i._ZN4Page11StartupView6DeleteEv
    startupview.o(.ARM.exidx) refers to startupview.o(i._ZN37_INTERNAL_15_StartupView_cpp_6896854213lv_obj_centerEP9_lv_obj_t) for i._ZN37_INTERNAL_15_StartupView_cpp_6896854213lv_obj_centerEP9_lv_obj_t
    startupview.o(.constdata) refers to lv_obj_pos.o(i.lv_obj_set_width) for lv_obj_set_width
    startupview.o(.constdata) refers to lv_anim.o(i.lv_anim_path_ease_out) for lv_anim_path_ease_out
    startupview.o(.constdata) refers to lv_obj_pos.o(i.lv_obj_set_y) for lv_obj_set_y
    dialplate.o(i._ZN4Page9Dialplate10onViewLoadEv) refers to dialplatemodel.o(i._ZN4Page14DialplateModel4InitEv) for Page::DialplateModel::Init()
    dialplate.o(i._ZN4Page9Dialplate10onViewLoadEv) refers to dialplateview.o(i._ZN4Page13DialplateView6CreateEP9_lv_obj_t) for Page::DialplateView::Create(_lv_obj_t*)
    dialplate.o(i._ZN4Page9Dialplate10onViewLoadEv) refers to dialplate.o(i._ZN4Page9Dialplate11AttachEventEP9_lv_obj_t) for Page::Dialplate::AttachEvent(_lv_obj_t*)
    dialplate.o(i._ZN4Page9Dialplate11AttachEventEP9_lv_obj_t) refers to lv_event.o(i.lv_obj_add_event_cb) for lv_obj_add_event_cb
    dialplate.o(i._ZN4Page9Dialplate11AttachEventEP9_lv_obj_t) refers to dialplate.o(i._ZN4Page9Dialplate7onEventEP11_lv_event_t) for Page::Dialplate::onEvent(_lv_event_t*)
    dialplate.o(i._ZN4Page9Dialplate12onBtnClickedEP9_lv_obj_t) refers to pm_router.o(i._ZN11PageManager4PushEPKcPKN8PageBase7Stash_tE) for PageManager::Push(const char*, const PageBase::Stash_t*)
    dialplate.o(i._ZN4Page9Dialplate13onTimerUpdateEP11_lv_timer_t) refers to dialplate.o(i._ZN4Page9Dialplate6UpdateEv) for Page::Dialplate::Update()
    dialplate.o(i._ZN4Page9Dialplate15SetBtnRecImgSrcEPKc) refers to resourcepool.o(i._ZN12ResourcePool8GetImageEPKc) for ResourcePool::GetImage(const char*)
    dialplate.o(i._ZN4Page9Dialplate15SetBtnRecImgSrcEPKc) refers to lv_obj_style_gen.o(i.lv_obj_set_style_bg_img_src) for lv_obj_set_style_bg_img_src
    dialplate.o(i._ZN4Page9Dialplate15onViewDidAppearEv) refers to lv_timer.o(i.lv_timer_create) for lv_timer_create
    dialplate.o(i._ZN4Page9Dialplate15onViewDidAppearEv) refers to dialplate.o(i._ZN4Page9Dialplate13onTimerUpdateEP11_lv_timer_t) for Page::Dialplate::onTimerUpdate(_lv_timer_t*)
    dialplate.o(i._ZN4Page9Dialplate15onViewDidUnloadEv) refers to dialplatemodel.o(i._ZN4Page14DialplateModel6DeinitEv) for Page::DialplateModel::Deinit()
    dialplate.o(i._ZN4Page9Dialplate15onViewDidUnloadEv) refers to dialplateview.o(i._ZN4Page13DialplateView6DeleteEv) for Page::DialplateView::Delete()
    dialplate.o(i._ZN4Page9Dialplate16onViewWillAppearEv) refers to lv_indev.o(i.lv_indev_get_act) for lv_indev_get_act
    dialplate.o(i._ZN4Page9Dialplate16onViewWillAppearEv) refers to lv_indev.o(i.lv_indev_wait_release) for lv_indev_wait_release
    dialplate.o(i._ZN4Page9Dialplate16onViewWillAppearEv) refers to lv_group.o(i.lv_group_get_default) for lv_group_get_default
    dialplate.o(i._ZN4Page9Dialplate16onViewWillAppearEv) refers to lv_group.o(i.lv_group_set_wrap) for lv_group_set_wrap
    dialplate.o(i._ZN4Page9Dialplate16onViewWillAppearEv) refers to lv_group.o(i.lv_group_add_obj) for lv_group_add_obj
    dialplate.o(i._ZN4Page9Dialplate16onViewWillAppearEv) refers to lv_group.o(i.lv_group_focus_obj) for lv_group_focus_obj
    dialplate.o(i._ZN4Page9Dialplate16onViewWillAppearEv) refers to dialplatemodel.o(i._ZN4Page14DialplateModel17SetStatusBarStyleEN8DataProc17StatusBar_Style_tE) for Page::DialplateModel::SetStatusBarStyle(DataProc::StatusBar_Style_t)
    dialplate.o(i._ZN4Page9Dialplate16onViewWillAppearEv) refers to dialplate.o(i._ZN4Page9Dialplate6UpdateEv) for Page::Dialplate::Update()
    dialplate.o(i._ZN4Page9Dialplate16onViewWillAppearEv) refers to dialplateview.o(i._ZN4Page13DialplateView15AppearAnimStartEb) for Page::DialplateView::AppearAnimStart(bool)
    dialplate.o(i._ZN4Page9Dialplate18onCustomAttrConfigEv) refers to lv_anim.o(i.lv_anim_path_ease_out) for lv_anim_path_ease_out
    dialplate.o(i._ZN4Page9Dialplate19onViewWillDisappearEv) refers to lv_group.o(i.lv_group_get_default) for lv_group_get_default
    dialplate.o(i._ZN4Page9Dialplate19onViewWillDisappearEv) refers to lv_group.o(i.lv_group_get_focused) for lv_group_get_focused
    dialplate.o(i._ZN4Page9Dialplate19onViewWillDisappearEv) refers to lv_group.o(i.lv_group_remove_all_objs) for lv_group_remove_all_objs
    dialplate.o(i._ZN4Page9Dialplate19onViewWillDisappearEv) refers to lv_timer.o(i.lv_timer_del) for lv_timer_del
    dialplate.o(i._ZN4Page9Dialplate6UpdateEv) refers to lv_label.o(i.lv_label_set_text_fmt) for lv_label_set_text_fmt
    dialplate.o(i._ZN4Page9Dialplate6UpdateEv) refers to f2d.o(x$fpl$f2d) for __aeabi_f2d
    dialplate.o(i._ZN4Page9Dialplate6UpdateEv) refers to dp_clock.o(i._ZN8DataProc14MakeTimeStringEyPct) for DataProc::MakeTimeString(unsigned long long, char*, unsigned short)
    dialplate.o(i._ZN4Page9Dialplate6UpdateEv) refers to lv_label.o(i.lv_label_set_text) for lv_label_set_text
    dialplate.o(i._ZN4Page9Dialplate7onEventEP11_lv_event_t) refers to lv_event.o(i.lv_event_get_user_data) for lv_event_get_user_data
    dialplate.o(i._ZN4Page9Dialplate7onEventEP11_lv_event_t) refers to lv_event.o(i.lv_event_get_current_target) for lv_event_get_current_target
    dialplate.o(i._ZN4Page9Dialplate7onEventEP11_lv_event_t) refers to lv_event.o(i.lv_event_get_code) for lv_event_get_code
    dialplate.o(i._ZN4Page9Dialplate7onEventEP11_lv_event_t) refers to dialplate.o(i._ZN4Page9Dialplate12onBtnClickedEP9_lv_obj_t) for Page::Dialplate::onBtnClicked(_lv_obj_t*)
    dialplate.o(i._ZN4Page9Dialplate7onEventEP11_lv_event_t) refers to dialplate.o(i._ZN4Page9Dialplate8onRecordEb) for Page::Dialplate::onRecord(bool)
    dialplate.o(i._ZN4Page9Dialplate8onRecordEb) refers to dialplatemodel.o(i._ZN4Page14DialplateModel9PlayMusicEPKc) for Page::DialplateModel::PlayMusic(const char*)
    dialplate.o(i._ZN4Page9Dialplate8onRecordEb) refers to dialplatemodel.o(i._ZN4Page14DialplateModel15RecorderCommandENS0_8RecCmd_tE) for Page::DialplateModel::RecorderCommand(Page::DialplateModel::RecCmd_t)
    dialplate.o(i._ZN4Page9Dialplate8onRecordEb) refers to dialplate.o(i._ZN4Page9Dialplate15SetBtnRecImgSrcEPKc) for Page::Dialplate::SetBtnRecImgSrc(const char*)
    dialplate.o(i._ZN4Page9Dialplate8onRecordEb) refers to dialplatemodel.o(i._ZN4Page14DialplateModel11GetGPSReadyEv) for Page::DialplateModel::GetGPSReady()
    dialplate.o(i._ZN4Page9DialplateC1Ev) refers to dialplate.o(.constdata__ZTVN4Page9DialplateE) for vtable for Page::Dialplate
    dialplate.o(i._ZN4Page9DialplateD0Ev) refers to new.o(i._ZdlPv) for operator delete (void*)
    dialplate.o(.ARM.exidx) refers to dialplate.o(i._ZN4Page9DialplateC1Ev) for i._ZN4Page9DialplateC1Ev
    dialplate.o(.ARM.exidx) refers to dialplate.o(i._ZN4Page9DialplateD1Ev) for i._ZN4Page9DialplateD1Ev
    dialplate.o(.ARM.exidx) refers to dialplate.o(i._ZN4Page9DialplateD0Ev) for i._ZN4Page9DialplateD0Ev
    dialplate.o(.ARM.exidx) refers to dialplate.o(i._ZN4Page9Dialplate18onCustomAttrConfigEv) for i._ZN4Page9Dialplate18onCustomAttrConfigEv
    dialplate.o(.ARM.exidx) refers to dialplate.o(i._ZN4Page9Dialplate15SetBtnRecImgSrcEPKc) for i._ZN4Page9Dialplate15SetBtnRecImgSrcEPKc
    dialplate.o(.ARM.exidx) refers to dialplate.o(i._ZN4Page9Dialplate8onRecordEb) for i._ZN4Page9Dialplate8onRecordEb
    dialplate.o(.ARM.exidx) refers to dialplate.o(i._ZN4Page9Dialplate12onBtnClickedEP9_lv_obj_t) for i._ZN4Page9Dialplate12onBtnClickedEP9_lv_obj_t
    dialplate.o(.ARM.exidx) refers to dialplate.o(i._ZN4Page9Dialplate7onEventEP11_lv_event_t) for i._ZN4Page9Dialplate7onEventEP11_lv_event_t
    dialplate.o(.ARM.exidx) refers to dialplate.o(i._ZN4Page9Dialplate11AttachEventEP9_lv_obj_t) for i._ZN4Page9Dialplate11AttachEventEP9_lv_obj_t
    dialplate.o(.ARM.exidx) refers to dialplate.o(i._ZN4Page9Dialplate10onViewLoadEv) for i._ZN4Page9Dialplate10onViewLoadEv
    dialplate.o(.ARM.exidx) refers to dialplate.o(i._ZN4Page9Dialplate13onViewDidLoadEv) for i._ZN4Page9Dialplate13onViewDidLoadEv
    dialplate.o(.ARM.exidx) refers to dialplate.o(i._ZN4Page9Dialplate6UpdateEv) for i._ZN4Page9Dialplate6UpdateEv
    dialplate.o(.ARM.exidx) refers to dialplate.o(i._ZN4Page9Dialplate16onViewWillAppearEv) for i._ZN4Page9Dialplate16onViewWillAppearEv
    dialplate.o(.ARM.exidx) refers to dialplate.o(i._ZN4Page9Dialplate13onTimerUpdateEP11_lv_timer_t) for i._ZN4Page9Dialplate13onTimerUpdateEP11_lv_timer_t
    dialplate.o(.ARM.exidx) refers to dialplate.o(i._ZN4Page9Dialplate15onViewDidAppearEv) for i._ZN4Page9Dialplate15onViewDidAppearEv
    dialplate.o(.ARM.exidx) refers to dialplate.o(i._ZN4Page9Dialplate19onViewWillDisappearEv) for i._ZN4Page9Dialplate19onViewWillDisappearEv
    dialplate.o(.ARM.exidx) refers to dialplate.o(i._ZN4Page9Dialplate18onViewDidDisappearEv) for i._ZN4Page9Dialplate18onViewDidDisappearEv
    dialplate.o(.ARM.exidx) refers to dialplate.o(i._ZN4Page9Dialplate15onViewDidUnloadEv) for i._ZN4Page9Dialplate15onViewDidUnloadEv
    dialplatemodel.o(i._ZN4Page14DialplateModel11GetGPSReadyEv) refers to account.o(i._ZN7Account4PullEPKcPvj) for Account::Pull(const char*, void*, unsigned)
    dialplatemodel.o(i._ZN4Page14DialplateModel15RecorderCommandENS0_8RecCmd_tE) refers to account.o(i._ZN7Account6NotifyEPKcPKvj) for Account::Notify(const char*, const void*, unsigned)
    dialplatemodel.o(i._ZN4Page14DialplateModel17SetStatusBarStyleEN8DataProc17StatusBar_Style_tE) refers to account.o(i._ZN7Account6NotifyEPKcPKvj) for Account::Notify(const char*, const void*, unsigned)
    dialplatemodel.o(i._ZN4Page14DialplateModel4InitEv) refers to new.o(i._Znwj) for operator new(unsigned)
    dialplatemodel.o(i._ZN4Page14DialplateModel4InitEv) refers to dataproc.o(i._ZN8DataProc6CenterEv) for DataProc::Center()
    dialplatemodel.o(i._ZN4Page14DialplateModel4InitEv) refers to account.o(i._ZN7AccountC1EPKcP10DataCenterjPv) for Account::Account(const char*, DataCenter*, unsigned, void*)
    dialplatemodel.o(i._ZN4Page14DialplateModel4InitEv) refers to account.o(i._ZN7Account9SubscribeEPKc) for Account::Subscribe(const char*)
    dialplatemodel.o(i._ZN4Page14DialplateModel4InitEv) refers to account.o(i._ZN7Account16SetEventCallbackEPFiPS_PNS_12EventParam_tEE) for Account::SetEventCallback(int(*)(Account*, Account::EventParam_t*))
    dialplatemodel.o(i._ZN4Page14DialplateModel4InitEv) refers to dialplatemodel.o(i._ZN4Page14DialplateModel7onEventEP7AccountPNS1_12EventParam_tE) for Page::DialplateModel::onEvent(Account*, Account::EventParam_t*)
    dialplatemodel.o(i._ZN4Page14DialplateModel6DeinitEv) refers to account.o(i._ZN7AccountD1Ev) for Account::~Account()
    dialplatemodel.o(i._ZN4Page14DialplateModel6DeinitEv) refers to new.o(i._ZdlPv) for operator delete (void*)
    dialplatemodel.o(i._ZN4Page14DialplateModel7onEventEP7AccountPNS1_12EventParam_tE) refers to strcmpv7m.o(.text) for strcmp
    dialplatemodel.o(i._ZN4Page14DialplateModel7onEventEP7AccountPNS1_12EventParam_tE) refers to rt_memcpy_v6.o(.text) for __aeabi_memcpy
    dialplatemodel.o(i._ZN4Page14DialplateModel9PlayMusicEPKc) refers to account.o(i._ZN7Account6NotifyEPKcPKvj) for Account::Notify(const char*, const void*, unsigned)
    dialplatemodel.o(.ARM.exidx) refers to dialplatemodel.o(i._ZN4Page14DialplateModel7onEventEP7AccountPNS1_12EventParam_tE) for i._ZN4Page14DialplateModel7onEventEP7AccountPNS1_12EventParam_tE
    dialplatemodel.o(.ARM.exidx) refers to dialplatemodel.o(i._ZN4Page14DialplateModel4InitEv) for i._ZN4Page14DialplateModel4InitEv
    dialplatemodel.o(.ARM.exidx) refers to dialplatemodel.o(i._ZN4Page14DialplateModel6DeinitEv) for i._ZN4Page14DialplateModel6DeinitEv
    dialplatemodel.o(.ARM.exidx) refers to dialplatemodel.o(i._ZN4Page14DialplateModel11GetGPSReadyEv) for i._ZN4Page14DialplateModel11GetGPSReadyEv
    dialplatemodel.o(.ARM.exidx) refers to dialplatemodel.o(i._ZN4Page14DialplateModel15RecorderCommandENS0_8RecCmd_tE) for i._ZN4Page14DialplateModel15RecorderCommandENS0_8RecCmd_tE
    dialplatemodel.o(.ARM.exidx) refers to dialplatemodel.o(i._ZN4Page14DialplateModel9PlayMusicEPKc) for i._ZN4Page14DialplateModel9PlayMusicEPKc
    dialplatemodel.o(.ARM.exidx) refers to dialplatemodel.o(i._ZN4Page14DialplateModel17SetStatusBarStyleEN8DataProc17StatusBar_Style_tE) for i._ZN4Page14DialplateModel17SetStatusBarStyleEN8DataProc17StatusBar_Style_tE
    dialplateview.o(i._ZN39_INTERNAL_17_DialplateView_cpp_ef33934714lv_color_whiteEv) refers to dialplateview.o(i._ZN39_INTERNAL_17_DialplateView_cpp_ef33934713lv_color_makeEhhh) for [local to DialplateView_cpp]::lv_color_make(unsigned char, unsigned char, unsigned char)
    dialplateview.o(i._ZN39_INTERNAL_17_DialplateView_cpp_ef33934723lv_obj_remove_style_allEP9_lv_obj_t) refers to lv_obj_style.o(i.lv_obj_remove_style) for lv_obj_remove_style
    dialplateview.o(i._ZN4Page13DialplateView10Btn_CreateEP9_lv_obj_tPKvs) refers to lv_obj.o(i.lv_obj_create) for lv_obj_create
    dialplateview.o(i._ZN4Page13DialplateView10Btn_CreateEP9_lv_obj_tPKvs) refers to dialplateview.o(i._ZN39_INTERNAL_17_DialplateView_cpp_ef33934723lv_obj_remove_style_allEP9_lv_obj_t) for [local to DialplateView_cpp]::lv_obj_remove_style_all(_lv_obj_t*)
    dialplateview.o(i._ZN4Page13DialplateView10Btn_CreateEP9_lv_obj_tPKvs) refers to lv_obj_pos.o(i.lv_obj_set_size) for lv_obj_set_size
    dialplateview.o(i._ZN4Page13DialplateView10Btn_CreateEP9_lv_obj_tPKvs) refers to lv_obj.o(i.lv_obj_clear_flag) for lv_obj_clear_flag
    dialplateview.o(i._ZN4Page13DialplateView10Btn_CreateEP9_lv_obj_tPKvs) refers to lv_obj_pos.o(i.lv_obj_align) for lv_obj_align
    dialplateview.o(i._ZN4Page13DialplateView10Btn_CreateEP9_lv_obj_tPKvs) refers to lv_obj_style_gen.o(i.lv_obj_set_style_bg_img_src) for lv_obj_set_style_bg_img_src
    dialplateview.o(i._ZN4Page13DialplateView10Btn_CreateEP9_lv_obj_tPKvs) refers to lv_obj_style_gen.o(i.lv_obj_set_style_bg_opa) for lv_obj_set_style_bg_opa
    dialplateview.o(i._ZN4Page13DialplateView10Btn_CreateEP9_lv_obj_tPKvs) refers to lv_obj_style_gen.o(i.lv_obj_set_style_width) for lv_obj_set_style_width
    dialplateview.o(i._ZN4Page13DialplateView10Btn_CreateEP9_lv_obj_tPKvs) refers to lv_obj_style_gen.o(i.lv_obj_set_style_height) for lv_obj_set_style_height
    dialplateview.o(i._ZN4Page13DialplateView10Btn_CreateEP9_lv_obj_tPKvs) refers to dialplateview.o(i._ZN39_INTERNAL_17_DialplateView_cpp_ef33934712lv_color_hexEj) for [local to DialplateView_cpp]::lv_color_hex(unsigned)
    dialplateview.o(i._ZN4Page13DialplateView10Btn_CreateEP9_lv_obj_tPKvs) refers to lv_obj_style_gen.o(i.lv_obj_set_style_bg_color) for lv_obj_set_style_bg_color
    dialplateview.o(i._ZN4Page13DialplateView10Btn_CreateEP9_lv_obj_tPKvs) refers to lv_obj_style_gen.o(i.lv_obj_set_style_radius) for lv_obj_set_style_radius
    dialplateview.o(i._ZN4Page13DialplateView10Btn_CreateEP9_lv_obj_tPKvs) refers to lv_style.o(i.lv_style_transition_dsc_init) for lv_style_transition_dsc_init
    dialplateview.o(i._ZN4Page13DialplateView10Btn_CreateEP9_lv_obj_tPKvs) refers to lv_obj_style_gen.o(i.lv_obj_set_style_transition) for lv_obj_set_style_transition
    dialplateview.o(i._ZN4Page13DialplateView10Btn_CreateEP9_lv_obj_tPKvs) refers to lv_obj_pos.o(i.lv_obj_update_layout) for lv_obj_update_layout
    dialplateview.o(i._ZN4Page13DialplateView10Btn_CreateEP9_lv_obj_tPKvs) refers to lv_anim.o(i.lv_anim_path_ease_out) for lv_anim_path_ease_out
    dialplateview.o(i._ZN4Page13DialplateView10Btn_CreateEP9_lv_obj_tPKvs) refers to dialplateview.o(.constdata) for .constdata
    dialplateview.o(i._ZN4Page13DialplateView10Btn_CreateEP9_lv_obj_tPKvs) refers to dialplateview.o(.bss) for .bss
    dialplateview.o(i._ZN4Page13DialplateView14BtnCont_CreateEP9_lv_obj_t) refers to lv_obj.o(i.lv_obj_create) for lv_obj_create
    dialplateview.o(i._ZN4Page13DialplateView14BtnCont_CreateEP9_lv_obj_t) refers to dialplateview.o(i._ZN39_INTERNAL_17_DialplateView_cpp_ef33934723lv_obj_remove_style_allEP9_lv_obj_t) for [local to DialplateView_cpp]::lv_obj_remove_style_all(_lv_obj_t*)
    dialplateview.o(i._ZN4Page13DialplateView14BtnCont_CreateEP9_lv_obj_t) refers to lv_hal_disp.o(i.lv_disp_get_default) for lv_disp_get_default
    dialplateview.o(i._ZN4Page13DialplateView14BtnCont_CreateEP9_lv_obj_t) refers to lv_hal_disp.o(i.lv_disp_get_hor_res) for lv_disp_get_hor_res
    dialplateview.o(i._ZN4Page13DialplateView14BtnCont_CreateEP9_lv_obj_t) refers to lv_obj_pos.o(i.lv_obj_set_size) for lv_obj_set_size
    dialplateview.o(i._ZN4Page13DialplateView14BtnCont_CreateEP9_lv_obj_t) refers to lv_obj_pos.o(i.lv_obj_align_to) for lv_obj_align_to
    dialplateview.o(i._ZN4Page13DialplateView14BtnCont_CreateEP9_lv_obj_t) refers to resourcepool.o(i._ZN12ResourcePool8GetImageEPKc) for ResourcePool::GetImage(const char*)
    dialplateview.o(i._ZN4Page13DialplateView14BtnCont_CreateEP9_lv_obj_t) refers to dialplateview.o(i._ZN4Page13DialplateView10Btn_CreateEP9_lv_obj_tPKvs) for Page::DialplateView::Btn_Create(_lv_obj_t*, const void*, short)
    dialplateview.o(i._ZN4Page13DialplateView14TopInfo_CreateEP9_lv_obj_t) refers to lv_hal_disp.o(i.lv_disp_get_default) for lv_disp_get_default
    dialplateview.o(i._ZN4Page13DialplateView14TopInfo_CreateEP9_lv_obj_t) refers to lv_hal_disp.o(i.lv_disp_get_ver_res) for lv_disp_get_ver_res
    dialplateview.o(i._ZN4Page13DialplateView14TopInfo_CreateEP9_lv_obj_t) refers to dflt_clz.o(x$fpl$dflt) for __aeabi_i2d
    dialplateview.o(i._ZN4Page13DialplateView14TopInfo_CreateEP9_lv_obj_t) refers to ddiv.o(x$fpl$ddiv) for __aeabi_ddiv
    dialplateview.o(i._ZN4Page13DialplateView14TopInfo_CreateEP9_lv_obj_t) refers to dfix.o(x$fpl$dfix) for __aeabi_d2iz
    dialplateview.o(i._ZN4Page13DialplateView14TopInfo_CreateEP9_lv_obj_t) refers to lv_obj.o(i.lv_obj_create) for lv_obj_create
    dialplateview.o(i._ZN4Page13DialplateView14TopInfo_CreateEP9_lv_obj_t) refers to dialplateview.o(i._ZN39_INTERNAL_17_DialplateView_cpp_ef33934723lv_obj_remove_style_allEP9_lv_obj_t) for [local to DialplateView_cpp]::lv_obj_remove_style_all(_lv_obj_t*)
    dialplateview.o(i._ZN4Page13DialplateView14TopInfo_CreateEP9_lv_obj_t) refers to lv_hal_disp.o(i.lv_disp_get_hor_res) for lv_disp_get_hor_res
    dialplateview.o(i._ZN4Page13DialplateView14TopInfo_CreateEP9_lv_obj_t) refers to lv_obj_pos.o(i.lv_obj_set_size) for lv_obj_set_size
    dialplateview.o(i._ZN4Page13DialplateView14TopInfo_CreateEP9_lv_obj_t) refers to lv_obj_style_gen.o(i.lv_obj_set_style_bg_opa) for lv_obj_set_style_bg_opa
    dialplateview.o(i._ZN4Page13DialplateView14TopInfo_CreateEP9_lv_obj_t) refers to dialplateview.o(i._ZN39_INTERNAL_17_DialplateView_cpp_ef33934712lv_color_hexEj) for [local to DialplateView_cpp]::lv_color_hex(unsigned)
    dialplateview.o(i._ZN4Page13DialplateView14TopInfo_CreateEP9_lv_obj_t) refers to lv_obj_style_gen.o(i.lv_obj_set_style_bg_color) for lv_obj_set_style_bg_color
    dialplateview.o(i._ZN4Page13DialplateView14TopInfo_CreateEP9_lv_obj_t) refers to lv_obj_style_gen.o(i.lv_obj_set_style_radius) for lv_obj_set_style_radius
    dialplateview.o(i._ZN4Page13DialplateView14TopInfo_CreateEP9_lv_obj_t) refers to lv_obj_pos.o(i.lv_obj_set_y) for lv_obj_set_y
    dialplateview.o(i._ZN4Page13DialplateView14TopInfo_CreateEP9_lv_obj_t) refers to lv_label.o(i.lv_label_create) for lv_label_create
    dialplateview.o(i._ZN4Page13DialplateView14TopInfo_CreateEP9_lv_obj_t) refers to resourcepool.o(i._ZN12ResourcePool7GetFontEPKc) for ResourcePool::GetFont(const char*)
    dialplateview.o(i._ZN4Page13DialplateView14TopInfo_CreateEP9_lv_obj_t) refers to lv_obj_style_gen.o(i.lv_obj_set_style_text_font) for lv_obj_set_style_text_font
    dialplateview.o(i._ZN4Page13DialplateView14TopInfo_CreateEP9_lv_obj_t) refers to dialplateview.o(i._ZN39_INTERNAL_17_DialplateView_cpp_ef33934714lv_color_whiteEv) for [local to DialplateView_cpp]::lv_color_white()
    dialplateview.o(i._ZN4Page13DialplateView14TopInfo_CreateEP9_lv_obj_t) refers to lv_obj_style_gen.o(i.lv_obj_set_style_text_color) for lv_obj_set_style_text_color
    dialplateview.o(i._ZN4Page13DialplateView14TopInfo_CreateEP9_lv_obj_t) refers to lv_label.o(i.lv_label_set_text) for lv_label_set_text
    dialplateview.o(i._ZN4Page13DialplateView14TopInfo_CreateEP9_lv_obj_t) refers to lv_obj_pos.o(i.lv_obj_align) for lv_obj_align
    dialplateview.o(i._ZN4Page13DialplateView14TopInfo_CreateEP9_lv_obj_t) refers to lv_obj_pos.o(i.lv_obj_align_to) for lv_obj_align_to
    dialplateview.o(i._ZN4Page13DialplateView15AppearAnimStartEb) refers to lv_anim_timeline.o(i.lv_anim_timeline_set_reverse) for lv_anim_timeline_set_reverse
    dialplateview.o(i._ZN4Page13DialplateView15AppearAnimStartEb) refers to lv_anim_timeline.o(i.lv_anim_timeline_start) for lv_anim_timeline_start
    dialplateview.o(i._ZN4Page13DialplateView17BottomInfo_CreateEP9_lv_obj_t) refers to lv_obj.o(i.lv_obj_create) for lv_obj_create
    dialplateview.o(i._ZN4Page13DialplateView17BottomInfo_CreateEP9_lv_obj_t) refers to dialplateview.o(i._ZN39_INTERNAL_17_DialplateView_cpp_ef33934723lv_obj_remove_style_allEP9_lv_obj_t) for [local to DialplateView_cpp]::lv_obj_remove_style_all(_lv_obj_t*)
    dialplateview.o(i._ZN4Page13DialplateView17BottomInfo_CreateEP9_lv_obj_t) refers to dialplateview.o(i._ZN39_INTERNAL_17_DialplateView_cpp_ef33934713lv_color_makeEhhh) for [local to DialplateView_cpp]::lv_color_make(unsigned char, unsigned char, unsigned char)
    dialplateview.o(i._ZN4Page13DialplateView17BottomInfo_CreateEP9_lv_obj_t) refers to lv_obj_style_gen.o(i.lv_obj_set_style_bg_color) for lv_obj_set_style_bg_color
    dialplateview.o(i._ZN4Page13DialplateView17BottomInfo_CreateEP9_lv_obj_t) refers to lv_hal_disp.o(i.lv_disp_get_default) for lv_disp_get_default
    dialplateview.o(i._ZN4Page13DialplateView17BottomInfo_CreateEP9_lv_obj_t) refers to lv_hal_disp.o(i.lv_disp_get_ver_res) for lv_disp_get_ver_res
    dialplateview.o(i._ZN4Page13DialplateView17BottomInfo_CreateEP9_lv_obj_t) refers to lv_hal_disp.o(i.lv_disp_get_hor_res) for lv_disp_get_hor_res
    dialplateview.o(i._ZN4Page13DialplateView17BottomInfo_CreateEP9_lv_obj_t) refers to lv_obj_pos.o(i.lv_obj_set_size) for lv_obj_set_size
    dialplateview.o(i._ZN4Page13DialplateView17BottomInfo_CreateEP9_lv_obj_t) refers to lv_obj_pos.o(i.lv_obj_align) for lv_obj_align
    dialplateview.o(i._ZN4Page13DialplateView17BottomInfo_CreateEP9_lv_obj_t) refers to lv_flex.o(i.lv_obj_set_flex_flow) for lv_obj_set_flex_flow
    dialplateview.o(i._ZN4Page13DialplateView17BottomInfo_CreateEP9_lv_obj_t) refers to lv_flex.o(i.lv_obj_set_flex_align) for lv_obj_set_flex_align
    dialplateview.o(i._ZN4Page13DialplateView17BottomInfo_CreateEP9_lv_obj_t) refers to dialplateview.o(i._ZN4Page13DialplateView17SubInfoGrp_CreateEP9_lv_obj_tPNS0_9SubInfo_tEPKc) for Page::DialplateView::SubInfoGrp_Create(_lv_obj_t*, Page::DialplateView::SubInfo_t*, const char*)
    dialplateview.o(i._ZN4Page13DialplateView17BottomInfo_CreateEP9_lv_obj_t) refers to dialplateview.o(.constdata) for .constdata
    dialplateview.o(i._ZN4Page13DialplateView17SubInfoGrp_CreateEP9_lv_obj_tPNS0_9SubInfo_tEPKc) refers to lv_obj.o(i.lv_obj_create) for lv_obj_create
    dialplateview.o(i._ZN4Page13DialplateView17SubInfoGrp_CreateEP9_lv_obj_tPNS0_9SubInfo_tEPKc) refers to dialplateview.o(i._ZN39_INTERNAL_17_DialplateView_cpp_ef33934723lv_obj_remove_style_allEP9_lv_obj_t) for [local to DialplateView_cpp]::lv_obj_remove_style_all(_lv_obj_t*)
    dialplateview.o(i._ZN4Page13DialplateView17SubInfoGrp_CreateEP9_lv_obj_tPNS0_9SubInfo_tEPKc) refers to lv_obj_pos.o(i.lv_obj_set_size) for lv_obj_set_size
    dialplateview.o(i._ZN4Page13DialplateView17SubInfoGrp_CreateEP9_lv_obj_tPNS0_9SubInfo_tEPKc) refers to lv_flex.o(i.lv_obj_set_flex_flow) for lv_obj_set_flex_flow
    dialplateview.o(i._ZN4Page13DialplateView17SubInfoGrp_CreateEP9_lv_obj_tPNS0_9SubInfo_tEPKc) refers to lv_flex.o(i.lv_obj_set_flex_align) for lv_obj_set_flex_align
    dialplateview.o(i._ZN4Page13DialplateView17SubInfoGrp_CreateEP9_lv_obj_tPNS0_9SubInfo_tEPKc) refers to lv_label.o(i.lv_label_create) for lv_label_create
    dialplateview.o(i._ZN4Page13DialplateView17SubInfoGrp_CreateEP9_lv_obj_tPNS0_9SubInfo_tEPKc) refers to resourcepool.o(i._ZN12ResourcePool7GetFontEPKc) for ResourcePool::GetFont(const char*)
    dialplateview.o(i._ZN4Page13DialplateView17SubInfoGrp_CreateEP9_lv_obj_tPNS0_9SubInfo_tEPKc) refers to lv_obj_style_gen.o(i.lv_obj_set_style_text_font) for lv_obj_set_style_text_font
    dialplateview.o(i._ZN4Page13DialplateView17SubInfoGrp_CreateEP9_lv_obj_tPNS0_9SubInfo_tEPKc) refers to dialplateview.o(i._ZN39_INTERNAL_17_DialplateView_cpp_ef33934714lv_color_whiteEv) for [local to DialplateView_cpp]::lv_color_white()
    dialplateview.o(i._ZN4Page13DialplateView17SubInfoGrp_CreateEP9_lv_obj_tPNS0_9SubInfo_tEPKc) refers to lv_obj_style_gen.o(i.lv_obj_set_style_text_color) for lv_obj_set_style_text_color
    dialplateview.o(i._ZN4Page13DialplateView17SubInfoGrp_CreateEP9_lv_obj_tPNS0_9SubInfo_tEPKc) refers to dialplateview.o(i._ZN39_INTERNAL_17_DialplateView_cpp_ef33934712lv_color_hexEj) for [local to DialplateView_cpp]::lv_color_hex(unsigned)
    dialplateview.o(i._ZN4Page13DialplateView17SubInfoGrp_CreateEP9_lv_obj_tPNS0_9SubInfo_tEPKc) refers to lv_label.o(i.lv_label_set_text) for lv_label_set_text
    dialplateview.o(i._ZN4Page13DialplateView6CreateEP9_lv_obj_t) refers to dialplateview.o(i._ZN39_INTERNAL_17_DialplateView_cpp_ef33934723lv_obj_remove_style_allEP9_lv_obj_t) for [local to DialplateView_cpp]::lv_obj_remove_style_all(_lv_obj_t*)
    dialplateview.o(i._ZN4Page13DialplateView6CreateEP9_lv_obj_t) refers to lv_hal_disp.o(i.lv_disp_get_default) for lv_disp_get_default
    dialplateview.o(i._ZN4Page13DialplateView6CreateEP9_lv_obj_t) refers to lv_hal_disp.o(i.lv_disp_get_ver_res) for lv_disp_get_ver_res
    dialplateview.o(i._ZN4Page13DialplateView6CreateEP9_lv_obj_t) refers to lv_hal_disp.o(i.lv_disp_get_hor_res) for lv_disp_get_hor_res
    dialplateview.o(i._ZN4Page13DialplateView6CreateEP9_lv_obj_t) refers to lv_obj_pos.o(i.lv_obj_set_size) for lv_obj_set_size
    dialplateview.o(i._ZN4Page13DialplateView6CreateEP9_lv_obj_t) refers to dialplateview.o(i._ZN4Page13DialplateView17BottomInfo_CreateEP9_lv_obj_t) for Page::DialplateView::BottomInfo_Create(_lv_obj_t*)
    dialplateview.o(i._ZN4Page13DialplateView6CreateEP9_lv_obj_t) refers to dialplateview.o(i._ZN4Page13DialplateView14TopInfo_CreateEP9_lv_obj_t) for Page::DialplateView::TopInfo_Create(_lv_obj_t*)
    dialplateview.o(i._ZN4Page13DialplateView6CreateEP9_lv_obj_t) refers to dialplateview.o(i._ZN4Page13DialplateView14BtnCont_CreateEP9_lv_obj_t) for Page::DialplateView::BtnCont_Create(_lv_obj_t*)
    dialplateview.o(i._ZN4Page13DialplateView6CreateEP9_lv_obj_t) refers to lv_anim_timeline.o(i.lv_anim_timeline_create) for lv_anim_timeline_create
    dialplateview.o(i._ZN4Page13DialplateView6CreateEP9_lv_obj_t) refers to lv_obj_pos.o(i.lv_obj_get_y) for lv_obj_get_y
    dialplateview.o(i._ZN4Page13DialplateView6CreateEP9_lv_obj_t) refers to lv_obj_pos.o(i.lv_obj_get_height) for lv_obj_get_height
    dialplateview.o(i._ZN4Page13DialplateView6CreateEP9_lv_obj_t) refers to rt_memcpy_w.o(.text) for __aeabi_memcpy4
    dialplateview.o(i._ZN4Page13DialplateView6CreateEP9_lv_obj_t) refers to lv_anim_timeline_wrapper.o(i.lv_anim_timeline_add_wrapper) for lv_anim_timeline_add_wrapper
    dialplateview.o(i._ZN4Page13DialplateView6CreateEP9_lv_obj_t) refers to dialplateview.o(.constdata) for .constdata
    dialplateview.o(i._ZN4Page13DialplateView6DeleteEv) refers to lv_anim_timeline.o(i.lv_anim_timeline_del) for lv_anim_timeline_del
    dialplateview.o(.ARM.exidx) refers to dialplateview.o(i._ZN39_INTERNAL_17_DialplateView_cpp_ef33934713lv_color_makeEhhh) for i._ZN39_INTERNAL_17_DialplateView_cpp_ef33934713lv_color_makeEhhh
    dialplateview.o(.ARM.exidx) refers to dialplateview.o(i._ZN4Page13DialplateView10Btn_CreateEP9_lv_obj_tPKvs) for i._ZN4Page13DialplateView10Btn_CreateEP9_lv_obj_tPKvs
    dialplateview.o(.ARM.exidx) refers to dialplateview.o(i._ZN4Page13DialplateView14BtnCont_CreateEP9_lv_obj_t) for i._ZN4Page13DialplateView14BtnCont_CreateEP9_lv_obj_t
    dialplateview.o(.ARM.exidx) refers to dialplateview.o(i._ZN4Page13DialplateView14TopInfo_CreateEP9_lv_obj_t) for i._ZN4Page13DialplateView14TopInfo_CreateEP9_lv_obj_t
    dialplateview.o(.ARM.exidx) refers to dialplateview.o(i._ZN4Page13DialplateView17SubInfoGrp_CreateEP9_lv_obj_tPNS0_9SubInfo_tEPKc) for i._ZN4Page13DialplateView17SubInfoGrp_CreateEP9_lv_obj_tPNS0_9SubInfo_tEPKc
    dialplateview.o(.ARM.exidx) refers to dialplateview.o(i._ZN4Page13DialplateView17BottomInfo_CreateEP9_lv_obj_t) for i._ZN4Page13DialplateView17BottomInfo_CreateEP9_lv_obj_t
    dialplateview.o(.ARM.exidx) refers to dialplateview.o(i._ZN4Page13DialplateView6CreateEP9_lv_obj_t) for i._ZN4Page13DialplateView6CreateEP9_lv_obj_t
    dialplateview.o(.ARM.exidx) refers to dialplateview.o(i._ZN4Page13DialplateView6DeleteEv) for i._ZN4Page13DialplateView6DeleteEv
    dialplateview.o(.ARM.exidx) refers to dialplateview.o(i._ZN4Page13DialplateView15AppearAnimStartEb) for i._ZN4Page13DialplateView15AppearAnimStartEb
    dialplateview.o(.ARM.exidx) refers to dialplateview.o(i._ZN39_INTERNAL_17_DialplateView_cpp_ef33934712lv_color_hexEj) for i._ZN39_INTERNAL_17_DialplateView_cpp_ef33934712lv_color_hexEj
    dialplateview.o(.ARM.exidx) refers to dialplateview.o(i._ZN39_INTERNAL_17_DialplateView_cpp_ef33934714lv_color_whiteEv) for i._ZN39_INTERNAL_17_DialplateView_cpp_ef33934714lv_color_whiteEv
    dialplateview.o(.ARM.exidx) refers to dialplateview.o(i._ZN39_INTERNAL_17_DialplateView_cpp_ef33934723lv_obj_remove_style_allEP9_lv_obj_t) for i._ZN39_INTERNAL_17_DialplateView_cpp_ef33934723lv_obj_remove_style_allEP9_lv_obj_t
    dialplateview.o(.constdata) refers to lv_obj_pos.o(i.lv_obj_set_y) for lv_obj_set_y
    dialplateview.o(.constdata) refers to lv_anim.o(i.lv_anim_path_ease_out) for lv_anim_path_ease_out
    dialplateview.o(.constdata) refers to lv_obj_ext_func.o(i._Z20lv_obj_set_opa_scaleP9_lv_obj_ts) for lv_obj_set_opa_scale(_lv_obj_t*, short)
    dialplateview.o(.constdata) refers to lv_obj_pos.o(i.lv_obj_set_height) for lv_obj_set_height
    dialplateview.o(.constdata) refers to dialplateview.o(.conststring) for .conststring
    livemap.o(i._ZN4Page7LiveMap10onViewLoadEv) refers to lv_hal_disp.o(i.lv_disp_get_default) for lv_disp_get_default
    livemap.o(i._ZN4Page7LiveMap10onViewLoadEv) refers to lv_hal_disp.o(i.lv_disp_get_hor_res) for lv_disp_get_hor_res
    livemap.o(i._ZN4Page7LiveMap10onViewLoadEv) refers to lv_hal_disp.o(i.lv_disp_get_ver_res) for lv_disp_get_ver_res
    livemap.o(i._ZN4Page7LiveMap10onViewLoadEv) refers to tileconv.o(i._ZN8TileConv11SetFocusPosEii) for TileConv::SetFocusPos(int, int)
    livemap.o(i._ZN4Page7LiveMap10onViewLoadEv) refers to tileconv.o(i._ZN8TileConv16GetTileContainerEPNS_6Rect_tE) for TileConv::GetTileContainer(TileConv::Rect_t*)
    livemap.o(i._ZN4Page7LiveMap10onViewLoadEv) refers to livemapview.o(i._ZN4Page11LiveMapView6CreateEP9_lv_obj_tj) for Page::LiveMapView::Create(_lv_obj_t*, unsigned)
    livemap.o(i._ZN4Page7LiveMap10onViewLoadEv) refers to lv_bar.o(i.lv_bar_set_range) for lv_bar_set_range
    livemap.o(i._ZN4Page7LiveMap10onViewLoadEv) refers to livemapview.o(i._ZN4Page11LiveMapView10SetMapTileEjj) for Page::LiveMapView::SetMapTile(unsigned, unsigned)
    livemap.o(i._ZN4Page7LiveMap10onViewLoadEv) refers to livemap.o(i._ZN4Page7LiveMap11AttachEventEP9_lv_obj_t) for Page::LiveMap::AttachEvent(_lv_obj_t*)
    livemap.o(i._ZN4Page7LiveMap10onViewLoadEv) refers to lv_bar.o(i.lv_bar_set_value) for lv_bar_set_value
    livemap.o(i._ZN4Page7LiveMap10onViewLoadEv) refers to mapconv.o(i._ZN7MapConv8SetLevelEi) for MapConv::SetLevel(int)
    livemap.o(i._ZN4Page7LiveMap10onViewLoadEv) refers to lv_obj.o(i.lv_obj_add_flag) for lv_obj_add_flag
    livemap.o(i._ZN4Page7LiveMap10onViewLoadEv) refers to trackpointfilter.o(i._ZN16TrackPointFilter18SetOffsetThresholdEd) for TrackPointFilter::SetOffsetThreshold(double)
    livemap.o(i._ZN4Page7LiveMap10onViewLoadEv) refers to trackpointfilter.o(i._ZN16TrackPointFilter22SetOutputPointCallbackEPFvPS_PKNS_7Point_tEE) for TrackPointFilter::SetOutputPointCallback(void(*)(TrackPointFilter*, const TrackPointFilter::Point_t*))
    livemap.o(i._ZN4Page7LiveMap10onViewLoadEv) refers to tracklinefilter.o(i._ZN15TrackLineFilter22SetOutputPointCallbackEPFvPS_PNS_7Event_tEE) for TrackLineFilter::SetOutputPointCallback(void(*)(TrackLineFilter*, TrackLineFilter::Event_t*))
    livemap.o(i._ZN4Page7LiveMap10onViewLoadEv) refers to mapconv.o(.data) for MapConv::levelMin
    livemap.o(i._ZN4Page7LiveMap10onViewLoadEv) refers to livemap.o(.data) for .data
    livemap.o(i._ZN4Page7LiveMap10onViewLoadEv) refers to livemap.o(i._ZZN4Page7LiveMap10onViewLoadEvENUlP16TrackPointFilterPKNS1_7Point_tEE_4_FUNES2_S5_) for Page::LiveMap::onViewLoad()::[lambda(TrackPointFilter*, const TrackPointFilter::Point_t*) (instance 1)]::_FUN(TrackPointFilter*, const TrackPointFilter::Point_t*)
    livemap.o(i._ZN4Page7LiveMap10onViewLoadEv) refers to livemap.o(i._ZN4Page7LiveMap16onTrackLineEventEP15TrackLineFilterPNS1_7Event_tE) for Page::LiveMap::onTrackLineEvent(TrackLineFilter*, TrackLineFilter::Event_t*)
    livemap.o(i._ZN4Page7LiveMap11AttachEventEP9_lv_obj_t) refers to lv_event.o(i.lv_obj_add_event_cb) for lv_obj_add_event_cb
    livemap.o(i._ZN4Page7LiveMap11AttachEventEP9_lv_obj_t) refers to livemap.o(i._ZN4Page7LiveMap7onEventEP11_lv_event_t) for Page::LiveMap::onEvent(_lv_event_t*)
    livemap.o(i._ZN4Page7LiveMap11UpdateDelayEj) refers to lv_hal_tick.o(i.lv_tick_get) for lv_tick_get
    livemap.o(i._ZN4Page7LiveMap13CheckPositionEv) refers to livemapmodel.o(i._ZN4Page12LiveMapModel11GetGPS_InfoEPN3HAL10GPS_Info_tE) for Page::LiveMapModel::GetGPS_Info(HAL::GPS_Info_t*)
    livemap.o(i._ZN4Page7LiveMap13CheckPositionEv) refers to lv_bar.o(i.lv_bar_get_value) for lv_bar_get_value
    livemap.o(i._ZN4Page7LiveMap13CheckPositionEv) refers to mapconv.o(i._ZN7MapConv8SetLevelEi) for MapConv::SetLevel(int)
    livemap.o(i._ZN4Page7LiveMap13CheckPositionEv) refers to mapconv.o(i._ZN7MapConv20ConvertMapCoordinateEddPiS0_) for MapConv::ConvertMapCoordinate(double, double, int*, int*)
    livemap.o(i._ZN4Page7LiveMap13CheckPositionEv) refers to tileconv.o(i._ZN8TileConv11SetFocusPosEii) for TileConv::SetFocusPos(int, int)
    livemap.o(i._ZN4Page7LiveMap13CheckPositionEv) refers to livemap.o(i._ZN4Page7LiveMap23GetIsMapTileContChangedEv) for Page::LiveMap::GetIsMapTileContChanged()
    livemap.o(i._ZN4Page7LiveMap13CheckPositionEv) refers to tileconv.o(i._ZN8TileConv16GetTileContainerEPNS_6Rect_tE) for TileConv::GetTileContainer(TileConv::Rect_t*)
    livemap.o(i._ZN4Page7LiveMap13CheckPositionEv) refers to livemap.o(i._ZN4Page7LiveMap20onMapTileContRefreshEPKN15TrackLineFilter6Area_tEii) for Page::LiveMap::onMapTileContRefresh(const TrackLineFilter::Area_t*, int, int)
    livemap.o(i._ZN4Page7LiveMap13CheckPositionEv) refers to livemap.o(i._ZN4Page7LiveMap17MapTileContUpdateEiif) for Page::LiveMap::MapTileContUpdate(int, int, float)
    livemap.o(i._ZN4Page7LiveMap13CheckPositionEv) refers to dflt_clz.o(x$fpl$dflt) for __aeabi_i2d
    livemap.o(i._ZN4Page7LiveMap13CheckPositionEv) refers to trackpointfilter.o(i._ZN16TrackPointFilter9PushPointEPKNS_7Point_tE) for TrackPointFilter::PushPoint(const TrackPointFilter::Point_t*)
    livemap.o(i._ZN4Page7LiveMap13CheckPositionEv) refers to livemap.o(.data) for .data
    livemap.o(i._ZN4Page7LiveMap15SportInfoUpdateEv) refers to lv_label.o(i.lv_label_set_text_fmt) for lv_label_set_text_fmt
    livemap.o(i._ZN4Page7LiveMap15SportInfoUpdateEv) refers to f2d.o(x$fpl$f2d) for __aeabi_f2d
    livemap.o(i._ZN4Page7LiveMap15SportInfoUpdateEv) refers to dp_clock.o(i._ZN8DataProc14MakeTimeStringEyPct) for DataProc::MakeTimeString(unsigned long long, char*, unsigned short)
    livemap.o(i._ZN4Page7LiveMap15SportInfoUpdateEv) refers to lv_label.o(i.lv_label_set_text) for lv_label_set_text
    livemap.o(i._ZN4Page7LiveMap15TrackLineAppendEii) refers to tileconv.o(i._ZN8TileConv9GetOffsetEPNS_7Point_tEPKS0_) for TileConv::GetOffset(TileConv::Point_t*, const TileConv::Point_t*)
    livemap.o(i._ZN4Page7LiveMap15TrackLineAppendEii) refers to lv_poly_line.o(i._ZN12lv_poly_line6appendEPK10lv_point_t) for lv_poly_line::append(const lv_point_t*)
    livemap.o(i._ZN4Page7LiveMap15TrackLineReloadEPKN15TrackLineFilter6Area_tEii) refers to tracklinefilter.o(i._ZN15TrackLineFilter11SetClipAreaEPKNS_6Area_tE) for TrackLineFilter::SetClipArea(const TrackLineFilter::Area_t*)
    livemap.o(i._ZN4Page7LiveMap15TrackLineReloadEPKN15TrackLineFilter6Area_tEii) refers to tracklinefilter.o(i._ZN15TrackLineFilter5ResetEv) for TrackLineFilter::Reset()
    livemap.o(i._ZN4Page7LiveMap15TrackLineReloadEPKN15TrackLineFilter6Area_tEii) refers to livemapmodel.o(i._ZN4Page12LiveMapModel11TrackReloadEPFvP16TrackPointFilterPKNS1_7Point_tEEPv) for Page::LiveMapModel::TrackReload(void(*)(TrackPointFilter*, const TrackPointFilter::Point_t*), void*)
    livemap.o(i._ZN4Page7LiveMap15TrackLineReloadEPKN15TrackLineFilter6Area_tEii) refers to livemap.o(i._ZN15TrackLineFilter9PushPointEii) for TrackLineFilter::PushPoint(int, int)
    livemap.o(i._ZN4Page7LiveMap15TrackLineReloadEPKN15TrackLineFilter6Area_tEii) refers to tracklinefilter.o(i._ZN15TrackLineFilter7PushEndEv) for TrackLineFilter::PushEnd()
    livemap.o(i._ZN4Page7LiveMap15TrackLineReloadEPKN15TrackLineFilter6Area_tEii) refers to livemap.o(i._ZZN4Page7LiveMap15TrackLineReloadEPKN15TrackLineFilter6Area_tEiiENUlP16TrackPointFilterPKNS5_7Point_tEE_4_FUNES6_S9_) for Page::LiveMap::TrackLineReload(const TrackLineFilter::Area_t*, int, int)::[lambda(TrackPointFilter*, const TrackPointFilter::Point_t*) (instance 1)]::_FUN(TrackPointFilter*, const TrackPointFilter::Point_t*)
    livemap.o(i._ZN4Page7LiveMap15onViewDidAppearEv) refers to lv_timer.o(i.lv_timer_create) for lv_timer_create
    livemap.o(i._ZN4Page7LiveMap15onViewDidAppearEv) refers to lv_obj.o(i.lv_obj_clear_flag) for lv_obj_clear_flag
    livemap.o(i._ZN4Page7LiveMap15onViewDidAppearEv) refers to lv_obj.o(i.lv_obj_add_flag) for lv_obj_add_flag
    livemap.o(i._ZN4Page7LiveMap15onViewDidAppearEv) refers to livemapmodel.o(i._ZN4Page12LiveMapModel20GetTrackFilterActiveEv) for Page::LiveMapModel::GetTrackFilterActive()
    livemap.o(i._ZN4Page7LiveMap15onViewDidAppearEv) refers to trackpointfilter.o(i._ZN16TrackPointFilter22SetOutputPointCallbackEPFvPS_PKNS_7Point_tEE) for TrackPointFilter::SetOutputPointCallback(void(*)(TrackPointFilter*, const TrackPointFilter::Point_t*))
    livemap.o(i._ZN4Page7LiveMap15onViewDidAppearEv) refers to lv_group.o(i.lv_group_get_default) for lv_group_get_default
    livemap.o(i._ZN4Page7LiveMap15onViewDidAppearEv) refers to lv_group.o(i.lv_group_add_obj) for lv_group_add_obj
    livemap.o(i._ZN4Page7LiveMap15onViewDidAppearEv) refers to lv_group.o(i.lv_group_set_editing) for lv_group_set_editing
    livemap.o(i._ZN4Page7LiveMap15onViewDidAppearEv) refers to livemap.o(i._ZZN4Page7LiveMap15onViewDidAppearEvENUlP11_lv_timer_tE_4_FUNES2_) for Page::LiveMap::onViewDidAppear()::[lambda(_lv_timer_t*) (instance 1)]::_FUN(_lv_timer_t*)
    livemap.o(i._ZN4Page7LiveMap15onViewDidUnloadEv) refers to livemapview.o(i._ZN4Page11LiveMapView6DeleteEv) for Page::LiveMapView::Delete()
    livemap.o(i._ZN4Page7LiveMap16onTrackLineEventEP15TrackLineFilterPNS1_7Event_tE) refers to lv_poly_line.o(i._ZN12lv_poly_line5resetEv) for lv_poly_line::reset()
    livemap.o(i._ZN4Page7LiveMap16onTrackLineEventEP15TrackLineFilterPNS1_7Event_tE) refers to lv_poly_line.o(i._ZN12lv_poly_line5startEv) for lv_poly_line::start()
    livemap.o(i._ZN4Page7LiveMap16onTrackLineEventEP15TrackLineFilterPNS1_7Event_tE) refers to livemap.o(i._ZN4Page7LiveMap15TrackLineAppendEii) for Page::LiveMap::TrackLineAppend(int, int)
    livemap.o(i._ZN4Page7LiveMap16onTrackLineEventEP15TrackLineFilterPNS1_7Event_tE) refers to lv_poly_line.o(i._ZN12lv_poly_line4stopEv) for lv_poly_line::stop()
    livemap.o(i._ZN4Page7LiveMap16onViewWillAppearEv) refers to livemapmodel.o(i._ZN4Page12LiveMapModel4InitEv) for Page::LiveMapModel::Init()
    livemap.o(i._ZN4Page7LiveMap16onViewWillAppearEv) refers to livemapmodel.o(i._ZN4Page12LiveMapModel13GetArrowThemeEPcj) for Page::LiveMapModel::GetArrowTheme(char*, unsigned)
    livemap.o(i._ZN4Page7LiveMap16onViewWillAppearEv) refers to livemapview.o(i._ZN4Page11LiveMapView13SetArrowThemeEPKc) for Page::LiveMapView::SetArrowTheme(const char*)
    livemap.o(i._ZN4Page7LiveMap16onViewWillAppearEv) refers to livemapmodel.o(i._ZN4Page12LiveMapModel20GetTrackFilterActiveEv) for Page::LiveMapModel::GetTrackFilterActive()
    livemap.o(i._ZN4Page7LiveMap16onViewWillAppearEv) refers to livemapmodel.o(i._ZN4Page12LiveMapModel17SetStatusBarStyleEN8DataProc17StatusBar_Style_tE) for Page::LiveMapModel::SetStatusBarStyle(DataProc::StatusBar_Style_t)
    livemap.o(i._ZN4Page7LiveMap16onViewWillAppearEv) refers to livemap.o(i._ZN4Page7LiveMap15SportInfoUpdateEv) for Page::LiveMap::SportInfoUpdate()
    livemap.o(i._ZN4Page7LiveMap16onViewWillAppearEv) refers to lv_obj.o(i.lv_obj_clear_flag) for lv_obj_clear_flag
    livemap.o(i._ZN4Page7LiveMap17MapTileContReloadEv) refers to tileconv.o(i._ZN8TileConv10GetTilePosEjPNS_7Point_tE) for TileConv::GetTilePos(unsigned, TileConv::Point_t*)
    livemap.o(i._ZN4Page7LiveMap17MapTileContReloadEv) refers to mapconv.o(i._ZN7MapConv14ConvertMapPathEiiPcj) for MapConv::ConvertMapPath(int, int, char*, unsigned)
    livemap.o(i._ZN4Page7LiveMap17MapTileContReloadEv) refers to livemapview.o(i._ZN4Page11LiveMapView13SetMapTileSrcEjPKc) for Page::LiveMapView::SetMapTileSrc(unsigned, const char*)
    livemap.o(i._ZN4Page7LiveMap17MapTileContUpdateEiif) refers to tileconv.o(i._ZN8TileConv9GetOffsetEPNS_7Point_tEPKS0_) for TileConv::GetOffset(TileConv::Point_t*, const TileConv::Point_t*)
    livemap.o(i._ZN4Page7LiveMap17MapTileContUpdateEiif) refers to tileconv.o(i._ZN8TileConv14GetFocusOffsetEPNS_7Point_tE) for TileConv::GetFocusOffset(TileConv::Point_t*)
    livemap.o(i._ZN4Page7LiveMap17MapTileContUpdateEiif) refers to lv_obj_pos.o(i.lv_obj_get_width) for lv_obj_get_width
    livemap.o(i._ZN4Page7LiveMap17MapTileContUpdateEiif) refers to lv_obj_pos.o(i.lv_obj_get_height) for lv_obj_get_height
    livemap.o(i._ZN4Page7LiveMap17MapTileContUpdateEiif) refers to lv_obj_pos.o(i.lv_obj_set_pos) for lv_obj_set_pos
    livemap.o(i._ZN4Page7LiveMap17MapTileContUpdateEiif) refers to lv_img.o(i.lv_img_set_angle) for lv_img_set_angle
    livemap.o(i._ZN4Page7LiveMap17MapTileContUpdateEiif) refers to livemapview.o(i._ZN4Page11LiveMapView18SetLineActivePointEss) for Page::LiveMapView::SetLineActivePoint(short, short)
    livemap.o(i._ZN4Page7LiveMap17MapTileContUpdateEiif) refers to tileconv.o(i._ZN8TileConv22GetTileContainerOffsetEPNS_7Point_tE) for TileConv::GetTileContainerOffset(TileConv::Point_t*)
    livemap.o(i._ZN4Page7LiveMap17MapTileContUpdateEiif) refers to lv_hal_disp.o(i.lv_disp_get_default) for lv_disp_get_default
    livemap.o(i._ZN4Page7LiveMap17MapTileContUpdateEiif) refers to lv_hal_disp.o(i.lv_disp_get_hor_res) for lv_disp_get_hor_res
    livemap.o(i._ZN4Page7LiveMap17MapTileContUpdateEiif) refers to lv_hal_disp.o(i.lv_disp_get_ver_res) for lv_disp_get_ver_res
    livemap.o(i._ZN4Page7LiveMap18onViewDidDisappearEv) refers to livemapmodel.o(i._ZN4Page12LiveMapModel6DeinitEv) for Page::LiveMapModel::Deinit()
    livemap.o(i._ZN4Page7LiveMap19onViewWillDisappearEv) refers to lv_timer.o(i.lv_timer_del) for lv_timer_del
    livemap.o(i._ZN4Page7LiveMap19onViewWillDisappearEv) refers to lv_obj.o(i.lv_obj_add_flag) for lv_obj_add_flag
    livemap.o(i._ZN4Page7LiveMap19onViewWillDisappearEv) refers to lv_obj_style.o(i.lv_obj_fade_out) for lv_obj_fade_out
    livemap.o(i._ZN4Page7LiveMap20TrackLineAppendToEndEii) refers to tileconv.o(i._ZN8TileConv9GetOffsetEPNS_7Point_tEPKS0_) for TileConv::GetOffset(TileConv::Point_t*, const TileConv::Point_t*)
    livemap.o(i._ZN4Page7LiveMap20TrackLineAppendToEndEii) refers to lv_poly_line.o(i._ZN12lv_poly_line13append_to_endEPK10lv_point_t) for lv_poly_line::append_to_end(const lv_point_t*)
    livemap.o(i._ZN4Page7LiveMap20onMapTileContRefreshEPKN15TrackLineFilter6Area_tEii) refers to livemap.o(i._ZN4Page7LiveMap17MapTileContReloadEv) for Page::LiveMap::MapTileContReload()
    livemap.o(i._ZN4Page7LiveMap20onMapTileContRefreshEPKN15TrackLineFilter6Area_tEii) refers to livemap.o(i._ZN4Page7LiveMap15TrackLineReloadEPKN15TrackLineFilter6Area_tEii) for Page::LiveMap::TrackLineReload(const TrackLineFilter::Area_t*, int, int)
    livemap.o(i._ZN4Page7LiveMap23GetIsMapTileContChangedEv) refers to tileconv.o(i._ZN8TileConv10GetTilePosEjPNS_7Point_tE) for TileConv::GetTilePos(unsigned, TileConv::Point_t*)
    livemap.o(i._ZN4Page7LiveMap6UpdateEv) refers to lv_hal_tick.o(i.lv_tick_elaps) for lv_tick_elaps
    livemap.o(i._ZN4Page7LiveMap6UpdateEv) refers to livemap.o(i._ZN4Page7LiveMap13CheckPositionEv) for Page::LiveMap::CheckPosition()
    livemap.o(i._ZN4Page7LiveMap6UpdateEv) refers to livemap.o(i._ZN4Page7LiveMap15SportInfoUpdateEv) for Page::LiveMap::SportInfoUpdate()
    livemap.o(i._ZN4Page7LiveMap6UpdateEv) refers to lv_hal_tick.o(i.lv_tick_get) for lv_tick_get
    livemap.o(i._ZN4Page7LiveMap6UpdateEv) refers to lv_obj.o(i.lv_obj_add_state) for lv_obj_add_state
    livemap.o(i._ZN4Page7LiveMap7onEventEP11_lv_event_t) refers to lv_event.o(i.lv_event_get_user_data) for lv_event_get_user_data
    livemap.o(i._ZN4Page7LiveMap7onEventEP11_lv_event_t) refers to lv_event.o(i.lv_event_get_current_target) for lv_event_get_current_target
    livemap.o(i._ZN4Page7LiveMap7onEventEP11_lv_event_t) refers to lv_event.o(i.lv_event_get_code) for lv_event_get_code
    livemap.o(i._ZN4Page7LiveMap7onEventEP11_lv_event_t) refers to lv_bar.o(i.lv_bar_get_value) for lv_bar_get_value
    livemap.o(i._ZN4Page7LiveMap7onEventEP11_lv_event_t) refers to lv_label.o(i.lv_label_set_text_fmt) for lv_label_set_text_fmt
    livemap.o(i._ZN4Page7LiveMap7onEventEP11_lv_event_t) refers to lv_obj.o(i.lv_obj_clear_state) for lv_obj_clear_state
    livemap.o(i._ZN4Page7LiveMap7onEventEP11_lv_event_t) refers to lv_hal_tick.o(i.lv_tick_get) for lv_tick_get
    livemap.o(i._ZN4Page7LiveMap7onEventEP11_lv_event_t) refers to livemap.o(i._ZN4Page7LiveMap11UpdateDelayEj) for Page::LiveMap::UpdateDelay(unsigned)
    livemap.o(i._ZN4Page7LiveMap7onEventEP11_lv_event_t) refers to pm_router.o(i._ZN11PageManager3PopEv) for PageManager::Pop()
    livemap.o(i._ZN4Page7LiveMap7onEventEP11_lv_event_t) refers to mapconv.o(.data) for MapConv::levelMax
    livemap.o(i._ZN4Page7LiveMapC1Ev) refers to livemapmodel.o(i._ZN4Page12LiveMapModelC1Ev) for Page::LiveMapModel::LiveMapModel()
    livemap.o(i._ZN4Page7LiveMapC1Ev) refers to rt_memclr_w.o(.text) for __aeabi_memclr4
    livemap.o(i._ZN4Page7LiveMapC1Ev) refers to livemap.o(.constdata__ZTVN4Page7LiveMapE) for vtable for Page::LiveMap
    livemap.o(i._ZN4Page7LiveMapD0Ev) refers to livemap.o(i._ZN4Page7LiveMapD1Ev) for Page::LiveMap::~LiveMap()
    livemap.o(i._ZN4Page7LiveMapD0Ev) refers to new.o(i._ZdlPv) for operator delete (void*)
    livemap.o(i._ZN4Page7LiveMapD1Ev) refers to tracklinefilter.o(i._ZN15TrackLineFilterD1Ev) for TrackLineFilter::~TrackLineFilter()
    livemap.o(i._ZN4Page7LiveMapD1Ev) refers to trackpointfilter.o(i._ZN16TrackPointFilterD1Ev) for TrackPointFilter::~TrackPointFilter()
    livemap.o(i._ZN4Page7LiveMapD1Ev) refers to livemap.o(.constdata__ZTVN4Page7LiveMapE) for vtable for Page::LiveMap
    livemap.o(i._ZZN4Page7LiveMap10onViewLoadEvENUlP16TrackPointFilterPKNS1_7Point_tEE_4_FUNES2_S5_) refers to dfix.o(x$fpl$dfix) for __aeabi_d2iz
    livemap.o(i._ZZN4Page7LiveMap10onViewLoadEvENUlP16TrackPointFilterPKNS1_7Point_tEE_4_FUNES2_S5_) refers to livemap.o(i._ZN4Page7LiveMap20TrackLineAppendToEndEii) for Page::LiveMap::TrackLineAppendToEnd(int, int)
    livemap.o(i._ZZN4Page7LiveMap15TrackLineReloadEPKN15TrackLineFilter6Area_tEiiENUlP16TrackPointFilterPKNS5_7Point_tEE_4_FUNES6_S9_) refers to dfix.o(x$fpl$dfix) for __aeabi_d2iz
    livemap.o(i._ZZN4Page7LiveMap15TrackLineReloadEPKN15TrackLineFilter6Area_tEiiENUlP16TrackPointFilterPKNS5_7Point_tEE_4_FUNES6_S9_) refers to livemap.o(i._ZN15TrackLineFilter9PushPointEii) for TrackLineFilter::PushPoint(int, int)
    livemap.o(i._ZZN4Page7LiveMap15onViewDidAppearEvENUlP11_lv_timer_tE_4_FUNES2_) refers to livemap.o(i._ZN4Page7LiveMap6UpdateEv) for Page::LiveMap::Update()
    livemap.o(.ARM.exidx) refers to livemap.o(i._ZN4Page7LiveMap20TrackLineAppendToEndEii) for i._ZN4Page7LiveMap20TrackLineAppendToEndEii
    livemap.o(.ARM.exidx) refers to livemap.o(i._ZZN4Page7LiveMap10onViewLoadEvENUlP16TrackPointFilterPKNS1_7Point_tEE_4_FUNES2_S5_) for i._ZZN4Page7LiveMap10onViewLoadEvENUlP16TrackPointFilterPKNS1_7Point_tEE_4_FUNES2_S5_
    livemap.o(.ARM.exidx) refers to livemap.o(i._ZN4Page7LiveMap15SportInfoUpdateEv) for i._ZN4Page7LiveMap15SportInfoUpdateEv
    livemap.o(.ARM.exidx) refers to livemap.o(i._ZN4Page7LiveMap17MapTileContUpdateEiif) for i._ZN4Page7LiveMap17MapTileContUpdateEiif
    livemap.o(.ARM.exidx) refers to livemap.o(i._ZZN4Page7LiveMap15TrackLineReloadEPKN15TrackLineFilter6Area_tEiiENUlP16TrackPointFilterPKNS5_7Point_tEE_4_FUNES6_S9_) for i._ZZN4Page7LiveMap15TrackLineReloadEPKN15TrackLineFilter6Area_tEiiENUlP16TrackPointFilterPKNS5_7Point_tEE_4_FUNES6_S9_
    livemap.o(.ARM.exidx) refers to livemap.o(i._ZN4Page7LiveMap15TrackLineReloadEPKN15TrackLineFilter6Area_tEii) for i._ZN4Page7LiveMap15TrackLineReloadEPKN15TrackLineFilter6Area_tEii
    livemap.o(.ARM.exidx) refers to livemap.o(i._ZN4Page7LiveMap17MapTileContReloadEv) for i._ZN4Page7LiveMap17MapTileContReloadEv
    livemap.o(.ARM.exidx) refers to livemap.o(i._ZN4Page7LiveMap20onMapTileContRefreshEPKN15TrackLineFilter6Area_tEii) for i._ZN4Page7LiveMap20onMapTileContRefreshEPKN15TrackLineFilter6Area_tEii
    livemap.o(.ARM.exidx) refers to livemap.o(i._ZN4Page7LiveMap23GetIsMapTileContChangedEv) for i._ZN4Page7LiveMap23GetIsMapTileContChangedEv
    livemap.o(.ARM.exidx) refers to livemap.o(i._ZN4Page7LiveMap13CheckPositionEv) for i._ZN4Page7LiveMap13CheckPositionEv
    livemap.o(.ARM.exidx) refers to livemap.o(i._ZN4Page7LiveMap6UpdateEv) for i._ZN4Page7LiveMap6UpdateEv
    livemap.o(.ARM.exidx) refers to livemap.o(i._ZZN4Page7LiveMap15onViewDidAppearEvENUlP11_lv_timer_tE_4_FUNES2_) for i._ZZN4Page7LiveMap15onViewDidAppearEvENUlP11_lv_timer_tE_4_FUNES2_
    livemap.o(.ARM.exidx) refers to livemap.o(i._ZN4Page7LiveMapC1Ev) for i._ZN4Page7LiveMapC1Ev
    livemap.o(.ARM.exidx) refers to livemap.o(i._ZN4Page7LiveMapD1Ev) for i._ZN4Page7LiveMapD1Ev
    livemap.o(.ARM.exidx) refers to livemap.o(i._ZN4Page7LiveMapD0Ev) for i._ZN4Page7LiveMapD0Ev
    livemap.o(.ARM.exidx) refers to livemap.o(i._ZN4Page7LiveMap18onCustomAttrConfigEv) for i._ZN4Page7LiveMap18onCustomAttrConfigEv
    livemap.o(.ARM.exidx) refers to livemap.o(i._ZN4Page7LiveMap15TrackLineAppendEii) for i._ZN4Page7LiveMap15TrackLineAppendEii
    livemap.o(.ARM.exidx) refers to livemap.o(i._ZN4Page7LiveMap16onTrackLineEventEP15TrackLineFilterPNS1_7Event_tE) for i._ZN4Page7LiveMap16onTrackLineEventEP15TrackLineFilterPNS1_7Event_tE
    livemap.o(.ARM.exidx) refers to livemap.o(i._ZN4Page7LiveMap11UpdateDelayEj) for i._ZN4Page7LiveMap11UpdateDelayEj
    livemap.o(.ARM.exidx) refers to livemap.o(i._ZN4Page7LiveMap7onEventEP11_lv_event_t) for i._ZN4Page7LiveMap7onEventEP11_lv_event_t
    livemap.o(.ARM.exidx) refers to livemap.o(i._ZN4Page7LiveMap11AttachEventEP9_lv_obj_t) for i._ZN4Page7LiveMap11AttachEventEP9_lv_obj_t
    livemap.o(.ARM.exidx) refers to livemap.o(i._ZN4Page7LiveMap10onViewLoadEv) for i._ZN4Page7LiveMap10onViewLoadEv
    livemap.o(.ARM.exidx) refers to livemap.o(i._ZN4Page7LiveMap13onViewDidLoadEv) for i._ZN4Page7LiveMap13onViewDidLoadEv
    livemap.o(.ARM.exidx) refers to livemap.o(i._ZN4Page7LiveMap16onViewWillAppearEv) for i._ZN4Page7LiveMap16onViewWillAppearEv
    livemap.o(.ARM.exidx) refers to livemap.o(i._ZN4Page7LiveMap15onViewDidAppearEv) for i._ZN4Page7LiveMap15onViewDidAppearEv
    livemap.o(.ARM.exidx) refers to livemap.o(i._ZN4Page7LiveMap19onViewWillDisappearEv) for i._ZN4Page7LiveMap19onViewWillDisappearEv
    livemap.o(.ARM.exidx) refers to livemap.o(i._ZN4Page7LiveMap18onViewDidDisappearEv) for i._ZN4Page7LiveMap18onViewDidDisappearEv
    livemap.o(.ARM.exidx) refers to livemap.o(i._ZN4Page7LiveMap15onViewDidUnloadEv) for i._ZN4Page7LiveMap15onViewDidUnloadEv
    livemapmodel.o(i._ZN4Page12LiveMapModel11GetGPS_InfoEPN3HAL10GPS_Info_tE) refers to rt_memclr_w.o(.text) for __aeabi_memclr4
    livemapmodel.o(i._ZN4Page12LiveMapModel11GetGPS_InfoEPN3HAL10GPS_Info_tE) refers to account.o(i._ZN7Account4PullEPKcPvj) for Account::Pull(const char*, void*, unsigned)
    livemapmodel.o(i._ZN4Page12LiveMapModel11GetGPS_InfoEPN3HAL10GPS_Info_tE) refers to f2d.o(x$fpl$f2d) for __aeabi_f2d
    livemapmodel.o(i._ZN4Page12LiveMapModel11TrackReloadEPFvP16TrackPointFilterPKNS1_7Point_tEEPv) refers to account.o(i._ZN7Account4PullEPKcPvj) for Account::Pull(const char*, void*, unsigned)
    livemapmodel.o(i._ZN4Page12LiveMapModel11TrackReloadEPFvP16TrackPointFilterPKNS1_7Point_tEEPv) refers to pointcontainer.o(i._ZN14PointContainer8PopStartEv) for PointContainer::PopStart()
    livemapmodel.o(i._ZN4Page12LiveMapModel11TrackReloadEPFvP16TrackPointFilterPKNS1_7Point_tEEPv) refers to trackpointfilter.o(i._ZN16TrackPointFilter5ResetEv) for TrackPointFilter::Reset()
    livemapmodel.o(i._ZN4Page12LiveMapModel11TrackReloadEPFvP16TrackPointFilterPKNS1_7Point_tEEPv) refers to trackpointfilter.o(i._ZN16TrackPointFilterC1Ev) for TrackPointFilter::TrackPointFilter()
    livemapmodel.o(i._ZN4Page12LiveMapModel11TrackReloadEPFvP16TrackPointFilterPKNS1_7Point_tEEPv) refers to trackpointfilter.o(i._ZN16TrackPointFilter18SetOffsetThresholdEd) for TrackPointFilter::SetOffsetThreshold(double)
    livemapmodel.o(i._ZN4Page12LiveMapModel11TrackReloadEPFvP16TrackPointFilterPKNS1_7Point_tEEPv) refers to trackpointfilter.o(i._ZN16TrackPointFilter22SetOutputPointCallbackEPFvPS_PKNS_7Point_tEE) for TrackPointFilter::SetOutputPointCallback(void(*)(TrackPointFilter*, const TrackPointFilter::Point_t*))
    livemapmodel.o(i._ZN4Page12LiveMapModel11TrackReloadEPFvP16TrackPointFilterPKNS1_7Point_tEEPv) refers to trackpointfilter.o(i._ZN16TrackPointFilter25SetSecondFilterModeEnableEb) for TrackPointFilter::SetSecondFilterModeEnable(bool)
    livemapmodel.o(i._ZN4Page12LiveMapModel11TrackReloadEPFvP16TrackPointFilterPKNS1_7Point_tEEPv) refers to pointcontainer.o(i._ZN14PointContainer8PopPointEPNS_11FullPoint_tE) for PointContainer::PopPoint(PointContainer::FullPoint_t*)
    livemapmodel.o(i._ZN4Page12LiveMapModel11TrackReloadEPFvP16TrackPointFilterPKNS1_7Point_tEEPv) refers to mapconv.o(i._ZN7MapConv18ConvertMapLevelPosEPiS0_iii) for MapConv::ConvertMapLevelPos(int*, int*, int, int, int)
    livemapmodel.o(i._ZN4Page12LiveMapModel11TrackReloadEPFvP16TrackPointFilterPKNS1_7Point_tEEPv) refers to dflt_clz.o(x$fpl$dflt) for __aeabi_i2d
    livemapmodel.o(i._ZN4Page12LiveMapModel11TrackReloadEPFvP16TrackPointFilterPKNS1_7Point_tEEPv) refers to trackpointfilter.o(i._ZN16TrackPointFilter9PushPointEPKNS_7Point_tE) for TrackPointFilter::PushPoint(const TrackPointFilter::Point_t*)
    livemapmodel.o(i._ZN4Page12LiveMapModel11TrackReloadEPFvP16TrackPointFilterPKNS1_7Point_tEEPv) refers to trackpointfilter.o(i._ZN16TrackPointFilter7PushEndEv) for TrackPointFilter::PushEnd()
    livemapmodel.o(i._ZN4Page12LiveMapModel11TrackReloadEPFvP16TrackPointFilterPKNS1_7Point_tEEPv) refers to trackpointfilter.o(i._ZN16TrackPointFilterD1Ev) for TrackPointFilter::~TrackPointFilter()
    livemapmodel.o(i._ZN4Page12LiveMapModel13GetArrowThemeEPcj) refers to account.o(i._ZN7Account4PullEPKcPvj) for Account::Pull(const char*, void*, unsigned)
    livemapmodel.o(i._ZN4Page12LiveMapModel13GetArrowThemeEPcj) refers to strncpy.o(.text) for strncpy
    livemapmodel.o(i._ZN4Page12LiveMapModel17SetStatusBarStyleEN8DataProc17StatusBar_Style_tE) refers to account.o(i._ZN7Account6NotifyEPKcPKvj) for Account::Notify(const char*, const void*, unsigned)
    livemapmodel.o(i._ZN4Page12LiveMapModel20GetTrackFilterActiveEv) refers to account.o(i._ZN7Account4PullEPKcPvj) for Account::Pull(const char*, void*, unsigned)
    livemapmodel.o(i._ZN4Page12LiveMapModel4InitEv) refers to new.o(i._Znwj) for operator new(unsigned)
    livemapmodel.o(i._ZN4Page12LiveMapModel4InitEv) refers to dataproc.o(i._ZN8DataProc6CenterEv) for DataProc::Center()
    livemapmodel.o(i._ZN4Page12LiveMapModel4InitEv) refers to account.o(i._ZN7AccountC1EPKcP10DataCenterjPv) for Account::Account(const char*, DataCenter*, unsigned, void*)
    livemapmodel.o(i._ZN4Page12LiveMapModel4InitEv) refers to account.o(i._ZN7Account9SubscribeEPKc) for Account::Subscribe(const char*)
    livemapmodel.o(i._ZN4Page12LiveMapModel4InitEv) refers to account.o(i._ZN7Account16SetEventCallbackEPFiPS_PNS_12EventParam_tEE) for Account::SetEventCallback(int(*)(Account*, Account::EventParam_t*))
    livemapmodel.o(i._ZN4Page12LiveMapModel4InitEv) refers to livemapmodel.o(i._ZN4Page12LiveMapModel7onEventEP7AccountPNS1_12EventParam_tE) for Page::LiveMapModel::onEvent(Account*, Account::EventParam_t*)
    livemapmodel.o(i._ZN4Page12LiveMapModel6DeinitEv) refers to account.o(i._ZN7AccountD1Ev) for Account::~Account()
    livemapmodel.o(i._ZN4Page12LiveMapModel6DeinitEv) refers to new.o(i._ZdlPv) for operator delete (void*)
    livemapmodel.o(i._ZN4Page12LiveMapModel7onEventEP7AccountPNS1_12EventParam_tE) refers to strcmpv7m.o(.text) for strcmp
    livemapmodel.o(i._ZN4Page12LiveMapModel7onEventEP7AccountPNS1_12EventParam_tE) refers to rt_memcpy_v6.o(.text) for __aeabi_memcpy
    livemapmodel.o(i._ZN4Page12LiveMapModelC1Ev) refers to mapconv.o(i._ZN7MapConvC1Ev) for MapConv::MapConv()
    livemapmodel.o(i._ZN4Page12LiveMapModelC1Ev) refers to tileconv.o(i._ZN8TileConvC1Ejjj) for TileConv::TileConv(unsigned, unsigned, unsigned)
    livemapmodel.o(i._ZN4Page12LiveMapModelC1Ev) refers to trackpointfilter.o(i._ZN16TrackPointFilterC1Ev) for TrackPointFilter::TrackPointFilter()
    livemapmodel.o(i._ZN4Page12LiveMapModelC1Ev) refers to tracklinefilter.o(i._ZN15TrackLineFilterC1Ev) for TrackLineFilter::TrackLineFilter()
    livemapmodel.o(.ARM.exidx) refers to livemapmodel.o(i._ZN4Page12LiveMapModelC1Ev) for i._ZN4Page12LiveMapModelC1Ev
    livemapmodel.o(.ARM.exidx) refers to livemapmodel.o(i._ZN4Page12LiveMapModel7onEventEP7AccountPNS1_12EventParam_tE) for i._ZN4Page12LiveMapModel7onEventEP7AccountPNS1_12EventParam_tE
    livemapmodel.o(.ARM.exidx) refers to livemapmodel.o(i._ZN4Page12LiveMapModel4InitEv) for i._ZN4Page12LiveMapModel4InitEv
    livemapmodel.o(.ARM.exidx) refers to livemapmodel.o(i._ZN4Page12LiveMapModel6DeinitEv) for i._ZN4Page12LiveMapModel6DeinitEv
    livemapmodel.o(.ARM.exidx) refers to livemapmodel.o(i._ZN4Page12LiveMapModel11GetGPS_InfoEPN3HAL10GPS_Info_tE) for i._ZN4Page12LiveMapModel11GetGPS_InfoEPN3HAL10GPS_Info_tE
    livemapmodel.o(.ARM.exidx) refers to livemapmodel.o(i._ZN4Page12LiveMapModel13GetArrowThemeEPcj) for i._ZN4Page12LiveMapModel13GetArrowThemeEPcj
    livemapmodel.o(.ARM.exidx) refers to livemapmodel.o(i._ZN4Page12LiveMapModel20GetTrackFilterActiveEv) for i._ZN4Page12LiveMapModel20GetTrackFilterActiveEv
    livemapmodel.o(.ARM.exidx) refers to livemapmodel.o(i._ZN4Page12LiveMapModel11TrackReloadEPFvP16TrackPointFilterPKNS1_7Point_tEEPv) for i._ZN4Page12LiveMapModel11TrackReloadEPFvP16TrackPointFilterPKNS1_7Point_tEEPv
    livemapmodel.o(.ARM.exidx) refers to livemapmodel.o(i._ZN4Page12LiveMapModel17SetStatusBarStyleEN8DataProc17StatusBar_Style_tE) for i._ZN4Page12LiveMapModel17SetStatusBarStyleEN8DataProc17StatusBar_Style_tE
    livemapview.o(i._ZN37_INTERNAL_15_LiveMapView_cpp_76fd96df14lv_color_blackEv) refers to livemapview.o(i._ZN37_INTERNAL_15_LiveMapView_cpp_76fd96df13lv_color_makeEhhh) for [local to LiveMapView_cpp]::lv_color_make(unsigned char, unsigned char, unsigned char)
    livemapview.o(i._ZN37_INTERNAL_15_LiveMapView_cpp_76fd96df14lv_color_whiteEv) refers to livemapview.o(i._ZN37_INTERNAL_15_LiveMapView_cpp_76fd96df13lv_color_makeEhhh) for [local to LiveMapView_cpp]::lv_color_make(unsigned char, unsigned char, unsigned char)
    livemapview.o(i._ZN37_INTERNAL_15_LiveMapView_cpp_76fd96df22lv_obj_get_style_widthEPK9_lv_obj_tj) refers to lv_obj_style.o(i.lv_obj_get_style_prop) for lv_obj_get_style_prop
    livemapview.o(i._ZN37_INTERNAL_15_LiveMapView_cpp_76fd96df23lv_obj_remove_style_allEP9_lv_obj_t) refers to lv_obj_style.o(i.lv_obj_remove_style) for lv_obj_remove_style
    livemapview.o(i._ZN4Page11LiveMapView10Map_CreateEP9_lv_obj_tj) refers to lv_obj.o(i.lv_obj_create) for lv_obj_create
    livemapview.o(i._ZN4Page11LiveMapView10Map_CreateEP9_lv_obj_tj) refers to livemapview.o(i._ZN37_INTERNAL_15_LiveMapView_cpp_76fd96df23lv_obj_remove_style_allEP9_lv_obj_t) for [local to LiveMapView_cpp]::lv_obj_remove_style_all(_lv_obj_t*)
    livemapview.o(i._ZN4Page11LiveMapView10Map_CreateEP9_lv_obj_tj) refers to lv_mem.o(i.lv_mem_alloc) for lv_mem_alloc
    livemapview.o(i._ZN4Page11LiveMapView10Map_CreateEP9_lv_obj_tj) refers to lv_img.o(i.lv_img_create) for lv_img_create
    livemapview.o(i._ZN4Page11LiveMapView10Map_CreateEP9_lv_obj_tj) refers to livemapview.o(i._ZN4Page11LiveMapView12Track_CreateEP9_lv_obj_t) for Page::LiveMapView::Track_Create(_lv_obj_t*)
    livemapview.o(i._ZN4Page11LiveMapView10Map_CreateEP9_lv_obj_tj) refers to resourcepool.o(i._ZN12ResourcePool8GetImageEPKc) for ResourcePool::GetImage(const char*)
    livemapview.o(i._ZN4Page11LiveMapView10Map_CreateEP9_lv_obj_tj) refers to lv_img.o(i.lv_img_set_src) for lv_img_set_src
    livemapview.o(i._ZN4Page11LiveMapView10Map_CreateEP9_lv_obj_tj) refers to lv_obj_pos.o(i.lv_obj_set_pos) for lv_obj_set_pos
    livemapview.o(i._ZN4Page11LiveMapView10SetMapTileEjj) refers to lv_obj_pos.o(i.lv_obj_set_size) for lv_obj_set_size
    livemapview.o(i._ZN4Page11LiveMapView10SetMapTileEjj) refers to lv_obj_pos.o(i.lv_obj_set_pos) for lv_obj_set_pos
    livemapview.o(i._ZN4Page11LiveMapView12Style_CreateEv) refers to lv_style.o(i.lv_style_init) for lv_style_init
    livemapview.o(i._ZN4Page11LiveMapView12Style_CreateEv) refers to livemapview.o(i._ZN37_INTERNAL_15_LiveMapView_cpp_76fd96df14lv_color_blackEv) for [local to LiveMapView_cpp]::lv_color_black()
    livemapview.o(i._ZN4Page11LiveMapView12Style_CreateEv) refers to lv_style_gen.o(i.lv_style_set_bg_color) for lv_style_set_bg_color
    livemapview.o(i._ZN4Page11LiveMapView12Style_CreateEv) refers to lv_style_gen.o(i.lv_style_set_bg_opa) for lv_style_set_bg_opa
    livemapview.o(i._ZN4Page11LiveMapView12Style_CreateEv) refers to lv_style_gen.o(i.lv_style_set_radius) for lv_style_set_radius
    livemapview.o(i._ZN4Page11LiveMapView12Style_CreateEv) refers to lv_style_gen.o(i.lv_style_set_shadow_width) for lv_style_set_shadow_width
    livemapview.o(i._ZN4Page11LiveMapView12Style_CreateEv) refers to lv_style_gen.o(i.lv_style_set_shadow_color) for lv_style_set_shadow_color
    livemapview.o(i._ZN4Page11LiveMapView12Style_CreateEv) refers to resourcepool.o(i._ZN12ResourcePool7GetFontEPKc) for ResourcePool::GetFont(const char*)
    livemapview.o(i._ZN4Page11LiveMapView12Style_CreateEv) refers to lv_style_gen.o(i.lv_style_set_text_font) for lv_style_set_text_font
    livemapview.o(i._ZN4Page11LiveMapView12Style_CreateEv) refers to livemapview.o(i._ZN37_INTERNAL_15_LiveMapView_cpp_76fd96df14lv_color_whiteEv) for [local to LiveMapView_cpp]::lv_color_white()
    livemapview.o(i._ZN4Page11LiveMapView12Style_CreateEv) refers to lv_style_gen.o(i.lv_style_set_text_color) for lv_style_set_text_color
    livemapview.o(i._ZN4Page11LiveMapView12Style_CreateEv) refers to lv_style_gen.o(i.lv_style_set_line_color) for lv_style_set_line_color
    livemapview.o(i._ZN4Page11LiveMapView12Style_CreateEv) refers to lv_style_gen.o(i.lv_style_set_line_width) for lv_style_set_line_width
    livemapview.o(i._ZN4Page11LiveMapView12Style_CreateEv) refers to lv_style_gen.o(i.lv_style_set_line_opa) for lv_style_set_line_opa
    livemapview.o(i._ZN4Page11LiveMapView12Style_CreateEv) refers to lv_style_gen.o(i.lv_style_set_line_rounded) for lv_style_set_line_rounded
    livemapview.o(i._ZN4Page11LiveMapView12Track_CreateEP9_lv_obj_t) refers to lv_obj.o(i.lv_obj_create) for lv_obj_create
    livemapview.o(i._ZN4Page11LiveMapView12Track_CreateEP9_lv_obj_t) refers to livemapview.o(i._ZN37_INTERNAL_15_LiveMapView_cpp_76fd96df23lv_obj_remove_style_allEP9_lv_obj_t) for [local to LiveMapView_cpp]::lv_obj_remove_style_all(_lv_obj_t*)
    livemapview.o(i._ZN4Page11LiveMapView12Track_CreateEP9_lv_obj_t) refers to lv_obj_pos.o(i.lv_obj_set_size) for lv_obj_set_size
    livemapview.o(i._ZN4Page11LiveMapView12Track_CreateEP9_lv_obj_t) refers to new.o(i._Znwj) for operator new(unsigned)
    livemapview.o(i._ZN4Page11LiveMapView12Track_CreateEP9_lv_obj_t) refers to lv_poly_line.o(i._ZN12lv_poly_lineC1EP9_lv_obj_t) for lv_poly_line::lv_poly_line(_lv_obj_t*)
    livemapview.o(i._ZN4Page11LiveMapView12Track_CreateEP9_lv_obj_t) refers to lv_line.o(i.lv_line_create) for lv_line_create
    livemapview.o(i._ZN4Page11LiveMapView12Track_CreateEP9_lv_obj_t) refers to lv_obj_style.o(i.lv_obj_add_style) for lv_obj_add_style
    livemapview.o(i._ZN4Page11LiveMapView13SetArrowThemeEPKc) refers to _printf_percent.o(.ARM.Collect$$_printf_percent$$00000000) for _printf_percent
    livemapview.o(i._ZN4Page11LiveMapView13SetArrowThemeEPKc) refers to _printf_s.o(.ARM.Collect$$_printf_percent$$00000014) for _printf_s
    livemapview.o(i._ZN4Page11LiveMapView13SetArrowThemeEPKc) refers to _printf_str.o(.text) for _printf_str
    livemapview.o(i._ZN4Page11LiveMapView13SetArrowThemeEPKc) refers to __2snprintf.o(.text) for __2snprintf
    livemapview.o(i._ZN4Page11LiveMapView13SetArrowThemeEPKc) refers to resourcepool.o(i._ZN12ResourcePool8GetImageEPKc) for ResourcePool::GetImage(const char*)
    livemapview.o(i._ZN4Page11LiveMapView13SetArrowThemeEPKc) refers to lv_img.o(i.lv_img_set_src) for lv_img_set_src
    livemapview.o(i._ZN4Page11LiveMapView13SetMapTileSrcEjPKc) refers to lv_img.o(i.lv_img_set_src) for lv_img_set_src
    livemapview.o(i._ZN4Page11LiveMapView15ImgLabel_CreateEP9_lv_obj_tPKvss) refers to lv_img.o(i.lv_img_create) for lv_img_create
    livemapview.o(i._ZN4Page11LiveMapView15ImgLabel_CreateEP9_lv_obj_tPKvss) refers to lv_img.o(i.lv_img_set_src) for lv_img_set_src
    livemapview.o(i._ZN4Page11LiveMapView15ImgLabel_CreateEP9_lv_obj_tPKvss) refers to lv_obj_pos.o(i.lv_obj_align) for lv_obj_align
    livemapview.o(i._ZN4Page11LiveMapView15ImgLabel_CreateEP9_lv_obj_tPKvss) refers to lv_label.o(i.lv_label_create) for lv_label_create
    livemapview.o(i._ZN4Page11LiveMapView15ImgLabel_CreateEP9_lv_obj_tPKvss) refers to lv_label.o(i.lv_label_set_text) for lv_label_set_text
    livemapview.o(i._ZN4Page11LiveMapView15ImgLabel_CreateEP9_lv_obj_tPKvss) refers to lv_obj_style.o(i.lv_obj_add_style) for lv_obj_add_style
    livemapview.o(i._ZN4Page11LiveMapView15ImgLabel_CreateEP9_lv_obj_tPKvss) refers to lv_obj_pos.o(i.lv_obj_align_to) for lv_obj_align_to
    livemapview.o(i._ZN4Page11LiveMapView15ZoomCtrl_CreateEP9_lv_obj_t) refers to lv_obj.o(i.lv_obj_create) for lv_obj_create
    livemapview.o(i._ZN4Page11LiveMapView15ZoomCtrl_CreateEP9_lv_obj_t) refers to livemapview.o(i._ZN37_INTERNAL_15_LiveMapView_cpp_76fd96df23lv_obj_remove_style_allEP9_lv_obj_t) for [local to LiveMapView_cpp]::lv_obj_remove_style_all(_lv_obj_t*)
    livemapview.o(i._ZN4Page11LiveMapView15ZoomCtrl_CreateEP9_lv_obj_t) refers to lv_obj_style.o(i.lv_obj_add_style) for lv_obj_add_style
    livemapview.o(i._ZN4Page11LiveMapView15ZoomCtrl_CreateEP9_lv_obj_t) refers to lv_obj_style_gen.o(i.lv_obj_set_style_opa) for lv_obj_set_style_opa
    livemapview.o(i._ZN4Page11LiveMapView15ZoomCtrl_CreateEP9_lv_obj_t) refers to lv_obj_pos.o(i.lv_obj_set_size) for lv_obj_set_size
    livemapview.o(i._ZN4Page11LiveMapView15ZoomCtrl_CreateEP9_lv_obj_t) refers to livemapview.o(i._ZN37_INTERNAL_15_LiveMapView_cpp_76fd96df22lv_obj_get_style_widthEPK9_lv_obj_tj) for [local to LiveMapView_cpp]::lv_obj_get_style_width(const _lv_obj_t*, unsigned)
    livemapview.o(i._ZN4Page11LiveMapView15ZoomCtrl_CreateEP9_lv_obj_t) refers to lv_obj_pos.o(i.lv_obj_set_pos) for lv_obj_set_pos
    livemapview.o(i._ZN4Page11LiveMapView15ZoomCtrl_CreateEP9_lv_obj_t) refers to lv_style.o(i.lv_style_transition_dsc_init) for lv_style_transition_dsc_init
    livemapview.o(i._ZN4Page11LiveMapView15ZoomCtrl_CreateEP9_lv_obj_t) refers to lv_obj_style_gen.o(i.lv_obj_set_style_x) for lv_obj_set_style_x
    livemapview.o(i._ZN4Page11LiveMapView15ZoomCtrl_CreateEP9_lv_obj_t) refers to lv_obj.o(i.lv_obj_add_state) for lv_obj_add_state
    livemapview.o(i._ZN4Page11LiveMapView15ZoomCtrl_CreateEP9_lv_obj_t) refers to lv_obj_style_gen.o(i.lv_obj_set_style_transition) for lv_obj_set_style_transition
    livemapview.o(i._ZN4Page11LiveMapView15ZoomCtrl_CreateEP9_lv_obj_t) refers to lv_label.o(i.lv_label_create) for lv_label_create
    livemapview.o(i._ZN4Page11LiveMapView15ZoomCtrl_CreateEP9_lv_obj_t) refers to lv_obj_pos.o(i.lv_obj_align) for lv_obj_align
    livemapview.o(i._ZN4Page11LiveMapView15ZoomCtrl_CreateEP9_lv_obj_t) refers to lv_label.o(i.lv_label_set_text) for lv_label_set_text
    livemapview.o(i._ZN4Page11LiveMapView15ZoomCtrl_CreateEP9_lv_obj_t) refers to lv_slider.o(i.lv_slider_create) for lv_slider_create
    livemapview.o(i._ZN4Page11LiveMapView15ZoomCtrl_CreateEP9_lv_obj_t) refers to lv_bar.o(i.lv_bar_set_value) for lv_bar_set_value
    livemapview.o(i._ZN4Page11LiveMapView15ZoomCtrl_CreateEP9_lv_obj_t) refers to lv_anim.o(i.lv_anim_path_ease_out) for lv_anim_path_ease_out
    livemapview.o(i._ZN4Page11LiveMapView15ZoomCtrl_CreateEP9_lv_obj_t) refers to livemapview.o(.constdata) for .constdata
    livemapview.o(i._ZN4Page11LiveMapView15ZoomCtrl_CreateEP9_lv_obj_t) refers to livemapview.o(.bss) for .bss
    livemapview.o(i._ZN4Page11LiveMapView16SportInfo_CreateEP9_lv_obj_t) refers to lv_obj.o(i.lv_obj_create) for lv_obj_create
    livemapview.o(i._ZN4Page11LiveMapView16SportInfo_CreateEP9_lv_obj_t) refers to livemapview.o(i._ZN37_INTERNAL_15_LiveMapView_cpp_76fd96df23lv_obj_remove_style_allEP9_lv_obj_t) for [local to LiveMapView_cpp]::lv_obj_remove_style_all(_lv_obj_t*)
    livemapview.o(i._ZN4Page11LiveMapView16SportInfo_CreateEP9_lv_obj_t) refers to lv_obj_style.o(i.lv_obj_add_style) for lv_obj_add_style
    livemapview.o(i._ZN4Page11LiveMapView16SportInfo_CreateEP9_lv_obj_t) refers to lv_obj_pos.o(i.lv_obj_set_size) for lv_obj_set_size
    livemapview.o(i._ZN4Page11LiveMapView16SportInfo_CreateEP9_lv_obj_t) refers to lv_obj_pos.o(i.lv_obj_align) for lv_obj_align
    livemapview.o(i._ZN4Page11LiveMapView16SportInfo_CreateEP9_lv_obj_t) refers to lv_obj_style_gen.o(i.lv_obj_set_style_radius) for lv_obj_set_style_radius
    livemapview.o(i._ZN4Page11LiveMapView16SportInfo_CreateEP9_lv_obj_t) refers to lv_label.o(i.lv_label_create) for lv_label_create
    livemapview.o(i._ZN4Page11LiveMapView16SportInfo_CreateEP9_lv_obj_t) refers to lv_label.o(i.lv_label_set_text) for lv_label_set_text
    livemapview.o(i._ZN4Page11LiveMapView16SportInfo_CreateEP9_lv_obj_t) refers to resourcepool.o(i._ZN12ResourcePool7GetFontEPKc) for ResourcePool::GetFont(const char*)
    livemapview.o(i._ZN4Page11LiveMapView16SportInfo_CreateEP9_lv_obj_t) refers to lv_obj_style_gen.o(i.lv_obj_set_style_text_font) for lv_obj_set_style_text_font
    livemapview.o(i._ZN4Page11LiveMapView16SportInfo_CreateEP9_lv_obj_t) refers to livemapview.o(i._ZN37_INTERNAL_15_LiveMapView_cpp_76fd96df14lv_color_whiteEv) for [local to LiveMapView_cpp]::lv_color_white()
    livemapview.o(i._ZN4Page11LiveMapView16SportInfo_CreateEP9_lv_obj_t) refers to lv_obj_style_gen.o(i.lv_obj_set_style_text_color) for lv_obj_set_style_text_color
    livemapview.o(i._ZN4Page11LiveMapView16SportInfo_CreateEP9_lv_obj_t) refers to lv_obj_pos.o(i.lv_obj_align_to) for lv_obj_align_to
    livemapview.o(i._ZN4Page11LiveMapView16SportInfo_CreateEP9_lv_obj_t) refers to resourcepool.o(i._ZN12ResourcePool8GetImageEPKc) for ResourcePool::GetImage(const char*)
    livemapview.o(i._ZN4Page11LiveMapView16SportInfo_CreateEP9_lv_obj_t) refers to livemapview.o(i._ZN4Page11LiveMapView15ImgLabel_CreateEP9_lv_obj_tPKvss) for Page::LiveMapView::ImgLabel_Create(_lv_obj_t*, const void*, short, short)
    livemapview.o(i._ZN4Page11LiveMapView18SetLineActivePointEss) refers to lv_poly_line.o(i._ZN12lv_poly_line13get_end_pointEP10lv_point_t) for lv_poly_line::get_end_point(lv_point_t*)
    livemapview.o(i._ZN4Page11LiveMapView18SetLineActivePointEss) refers to lv_line.o(i.lv_line_set_points) for lv_line_set_points
    livemapview.o(i._ZN4Page11LiveMapView6CreateEP9_lv_obj_tj) refers to livemapview.o(i._ZN37_INTERNAL_15_LiveMapView_cpp_76fd96df23lv_obj_remove_style_allEP9_lv_obj_t) for [local to LiveMapView_cpp]::lv_obj_remove_style_all(_lv_obj_t*)
    livemapview.o(i._ZN4Page11LiveMapView6CreateEP9_lv_obj_tj) refers to lv_hal_disp.o(i.lv_disp_get_default) for lv_disp_get_default
    livemapview.o(i._ZN4Page11LiveMapView6CreateEP9_lv_obj_tj) refers to lv_hal_disp.o(i.lv_disp_get_ver_res) for lv_disp_get_ver_res
    livemapview.o(i._ZN4Page11LiveMapView6CreateEP9_lv_obj_tj) refers to lv_hal_disp.o(i.lv_disp_get_hor_res) for lv_disp_get_hor_res
    livemapview.o(i._ZN4Page11LiveMapView6CreateEP9_lv_obj_tj) refers to lv_obj_pos.o(i.lv_obj_set_size) for lv_obj_set_size
    livemapview.o(i._ZN4Page11LiveMapView6CreateEP9_lv_obj_tj) refers to livemapview.o(i._ZN37_INTERNAL_15_LiveMapView_cpp_76fd96df14lv_color_blackEv) for [local to LiveMapView_cpp]::lv_color_black()
    livemapview.o(i._ZN4Page11LiveMapView6CreateEP9_lv_obj_tj) refers to lv_obj_style_gen.o(i.lv_obj_set_style_bg_color) for lv_obj_set_style_bg_color
    livemapview.o(i._ZN4Page11LiveMapView6CreateEP9_lv_obj_tj) refers to lv_obj_style_gen.o(i.lv_obj_set_style_bg_opa) for lv_obj_set_style_bg_opa
    livemapview.o(i._ZN4Page11LiveMapView6CreateEP9_lv_obj_tj) refers to lv_label.o(i.lv_label_create) for lv_label_create
    livemapview.o(i._ZN4Page11LiveMapView6CreateEP9_lv_obj_tj) refers to lv_obj_pos.o(i.lv_obj_align) for lv_obj_align
    livemapview.o(i._ZN4Page11LiveMapView6CreateEP9_lv_obj_tj) refers to resourcepool.o(i._ZN12ResourcePool7GetFontEPKc) for ResourcePool::GetFont(const char*)
    livemapview.o(i._ZN4Page11LiveMapView6CreateEP9_lv_obj_tj) refers to lv_obj_style_gen.o(i.lv_obj_set_style_text_font) for lv_obj_set_style_text_font
    livemapview.o(i._ZN4Page11LiveMapView6CreateEP9_lv_obj_tj) refers to livemapview.o(i._ZN37_INTERNAL_15_LiveMapView_cpp_76fd96df14lv_color_whiteEv) for [local to LiveMapView_cpp]::lv_color_white()
    livemapview.o(i._ZN4Page11LiveMapView6CreateEP9_lv_obj_tj) refers to lv_obj_style_gen.o(i.lv_obj_set_style_text_color) for lv_obj_set_style_text_color
    livemapview.o(i._ZN4Page11LiveMapView6CreateEP9_lv_obj_tj) refers to lv_label.o(i.lv_label_set_text) for lv_label_set_text
    livemapview.o(i._ZN4Page11LiveMapView6CreateEP9_lv_obj_tj) refers to livemapview.o(i._ZN4Page11LiveMapView12Style_CreateEv) for Page::LiveMapView::Style_Create()
    livemapview.o(i._ZN4Page11LiveMapView6CreateEP9_lv_obj_tj) refers to livemapview.o(i._ZN4Page11LiveMapView10Map_CreateEP9_lv_obj_tj) for Page::LiveMapView::Map_Create(_lv_obj_t*, unsigned)
    livemapview.o(i._ZN4Page11LiveMapView6CreateEP9_lv_obj_tj) refers to livemapview.o(i._ZN4Page11LiveMapView15ZoomCtrl_CreateEP9_lv_obj_t) for Page::LiveMapView::ZoomCtrl_Create(_lv_obj_t*)
    livemapview.o(i._ZN4Page11LiveMapView6CreateEP9_lv_obj_tj) refers to livemapview.o(i._ZN4Page11LiveMapView16SportInfo_CreateEP9_lv_obj_t) for Page::LiveMapView::SportInfo_Create(_lv_obj_t*)
    livemapview.o(i._ZN4Page11LiveMapView6DeleteEv) refers to lv_poly_line.o(i._ZN12lv_poly_lineD1Ev) for lv_poly_line::~lv_poly_line()
    livemapview.o(i._ZN4Page11LiveMapView6DeleteEv) refers to new.o(i._ZdlPv) for operator delete (void*)
    livemapview.o(i._ZN4Page11LiveMapView6DeleteEv) refers to lv_mem.o(i.lv_mem_free) for lv_mem_free
    livemapview.o(i._ZN4Page11LiveMapView6DeleteEv) refers to lv_style.o(i.lv_style_reset) for lv_style_reset
    livemapview.o(.ARM.exidx) refers to livemapview.o(i._ZN37_INTERNAL_15_LiveMapView_cpp_76fd96df13lv_color_makeEhhh) for i._ZN37_INTERNAL_15_LiveMapView_cpp_76fd96df13lv_color_makeEhhh
    livemapview.o(.ARM.exidx) refers to livemapview.o(i._ZN4Page11LiveMapView15ImgLabel_CreateEP9_lv_obj_tPKvss) for i._ZN4Page11LiveMapView15ImgLabel_CreateEP9_lv_obj_tPKvss
    livemapview.o(.ARM.exidx) refers to livemapview.o(i._ZN4Page11LiveMapView16SportInfo_CreateEP9_lv_obj_t) for i._ZN4Page11LiveMapView16SportInfo_CreateEP9_lv_obj_t
    livemapview.o(.ARM.exidx) refers to livemapview.o(i._ZN4Page11LiveMapView15ZoomCtrl_CreateEP9_lv_obj_t) for i._ZN4Page11LiveMapView15ZoomCtrl_CreateEP9_lv_obj_t
    livemapview.o(.ARM.exidx) refers to livemapview.o(i._ZN4Page11LiveMapView12Track_CreateEP9_lv_obj_t) for i._ZN4Page11LiveMapView12Track_CreateEP9_lv_obj_t
    livemapview.o(.ARM.exidx) refers to livemapview.o(i._ZN4Page11LiveMapView10Map_CreateEP9_lv_obj_tj) for i._ZN4Page11LiveMapView10Map_CreateEP9_lv_obj_tj
    livemapview.o(.ARM.exidx) refers to livemapview.o(i._ZN4Page11LiveMapView12Style_CreateEv) for i._ZN4Page11LiveMapView12Style_CreateEv
    livemapview.o(.ARM.exidx) refers to livemapview.o(i._ZN4Page11LiveMapView6CreateEP9_lv_obj_tj) for i._ZN4Page11LiveMapView6CreateEP9_lv_obj_tj
    livemapview.o(.ARM.exidx) refers to livemapview.o(i._ZN4Page11LiveMapView6DeleteEv) for i._ZN4Page11LiveMapView6DeleteEv
    livemapview.o(.ARM.exidx) refers to livemapview.o(i._ZN4Page11LiveMapView10SetMapTileEjj) for i._ZN4Page11LiveMapView10SetMapTileEjj
    livemapview.o(.ARM.exidx) refers to livemapview.o(i._ZN4Page11LiveMapView13SetMapTileSrcEjPKc) for i._ZN4Page11LiveMapView13SetMapTileSrcEjPKc
    livemapview.o(.ARM.exidx) refers to livemapview.o(i._ZN4Page11LiveMapView13SetArrowThemeEPKc) for i._ZN4Page11LiveMapView13SetArrowThemeEPKc
    livemapview.o(.ARM.exidx) refers to livemapview.o(i._ZN4Page11LiveMapView18SetLineActivePointEss) for i._ZN4Page11LiveMapView18SetLineActivePointEss
    livemapview.o(.ARM.exidx) refers to livemapview.o(i._ZN37_INTERNAL_15_LiveMapView_cpp_76fd96df14lv_color_whiteEv) for i._ZN37_INTERNAL_15_LiveMapView_cpp_76fd96df14lv_color_whiteEv
    livemapview.o(.ARM.exidx) refers to livemapview.o(i._ZN37_INTERNAL_15_LiveMapView_cpp_76fd96df14lv_color_blackEv) for i._ZN37_INTERNAL_15_LiveMapView_cpp_76fd96df14lv_color_blackEv
    livemapview.o(.ARM.exidx) refers to livemapview.o(i._ZN37_INTERNAL_15_LiveMapView_cpp_76fd96df23lv_obj_remove_style_allEP9_lv_obj_t) for i._ZN37_INTERNAL_15_LiveMapView_cpp_76fd96df23lv_obj_remove_style_allEP9_lv_obj_t
    livemapview.o(.ARM.exidx) refers to livemapview.o(i._ZN37_INTERNAL_15_LiveMapView_cpp_76fd96df22lv_obj_get_style_widthEPK9_lv_obj_tj) for i._ZN37_INTERNAL_15_LiveMapView_cpp_76fd96df22lv_obj_get_style_widthEPK9_lv_obj_tj
    systeminfos.o(i._ZN4Page11SystemInfos10onViewLoadEv) refers to systeminfosmodel.o(i._ZN4Page16SystemInfosModel4InitEv) for Page::SystemInfosModel::Init()
    systeminfos.o(i._ZN4Page11SystemInfos10onViewLoadEv) refers to systeminfosview.o(i._ZN4Page15SystemInfosView6CreateEP9_lv_obj_t) for Page::SystemInfosView::Create(_lv_obj_t*)
    systeminfos.o(i._ZN4Page11SystemInfos10onViewLoadEv) refers to systeminfos.o(i._ZN4Page11SystemInfos11AttachEventEP9_lv_obj_t) for Page::SystemInfos::AttachEvent(_lv_obj_t*)
    systeminfos.o(i._ZN4Page11SystemInfos11AttachEventEP9_lv_obj_t) refers to lv_event.o(i.lv_obj_add_event_cb) for lv_obj_add_event_cb
    systeminfos.o(i._ZN4Page11SystemInfos11AttachEventEP9_lv_obj_t) refers to systeminfos.o(i._ZN4Page11SystemInfos7onEventEP11_lv_event_t) for Page::SystemInfos::onEvent(_lv_event_t*)
    systeminfos.o(i._ZN4Page11SystemInfos13onTimerUpdateEP11_lv_timer_t) refers to systeminfos.o(i._ZN4Page11SystemInfos6UpdateEv) for Page::SystemInfos::Update()
    systeminfos.o(i._ZN4Page11SystemInfos15onViewDidAppearEv) refers to lv_group.o(i.lv_group_get_default) for lv_group_get_default
    systeminfos.o(i._ZN4Page11SystemInfos15onViewDidAppearEv) refers to systeminfosview.o(i._ZN4Page15SystemInfosView7onFocusEP11_lv_group_t) for Page::SystemInfosView::onFocus(_lv_group_t*)
    systeminfos.o(i._ZN4Page11SystemInfos15onViewDidUnloadEv) refers to systeminfosview.o(i._ZN4Page15SystemInfosView6DeleteEv) for Page::SystemInfosView::Delete()
    systeminfos.o(i._ZN4Page11SystemInfos15onViewDidUnloadEv) refers to systeminfosmodel.o(i._ZN4Page16SystemInfosModel6DeinitEv) for Page::SystemInfosModel::Deinit()
    systeminfos.o(i._ZN4Page11SystemInfos16onViewWillAppearEv) refers to systeminfosmodel.o(i._ZN4Page16SystemInfosModel17SetStatusBarStyleEN8DataProc17StatusBar_Style_tE) for Page::SystemInfosModel::SetStatusBarStyle(DataProc::StatusBar_Style_t)
    systeminfos.o(i._ZN4Page11SystemInfos16onViewWillAppearEv) refers to lv_timer.o(i.lv_timer_create) for lv_timer_create
    systeminfos.o(i._ZN4Page11SystemInfos16onViewWillAppearEv) refers to lv_timer.o(i.lv_timer_ready) for lv_timer_ready
    systeminfos.o(i._ZN4Page11SystemInfos16onViewWillAppearEv) refers to lv_hal_disp.o(i.lv_disp_get_default) for lv_disp_get_default
    systeminfos.o(i._ZN4Page11SystemInfos16onViewWillAppearEv) refers to lv_hal_disp.o(i.lv_disp_get_ver_res) for lv_disp_get_ver_res
    systeminfos.o(i._ZN4Page11SystemInfos16onViewWillAppearEv) refers to systeminfosview.o(i._ZN4Page15SystemInfosView12SetScrollToYEP9_lv_obj_ts16lv_anim_enable_t) for Page::SystemInfosView::SetScrollToY(_lv_obj_t*, short, lv_anim_enable_t)
    systeminfos.o(i._ZN4Page11SystemInfos16onViewWillAppearEv) refers to lv_obj_style_gen.o(i.lv_obj_set_style_opa) for lv_obj_set_style_opa
    systeminfos.o(i._ZN4Page11SystemInfos16onViewWillAppearEv) refers to lv_obj_style.o(i.lv_obj_fade_in) for lv_obj_fade_in
    systeminfos.o(i._ZN4Page11SystemInfos16onViewWillAppearEv) refers to systeminfos.o(i._ZN4Page11SystemInfos13onTimerUpdateEP11_lv_timer_t) for Page::SystemInfos::onTimerUpdate(_lv_timer_t*)
    systeminfos.o(i._ZN4Page11SystemInfos18onViewDidDisappearEv) refers to lv_timer.o(i.lv_timer_del) for lv_timer_del
    systeminfos.o(i._ZN4Page11SystemInfos19onViewWillDisappearEv) refers to lv_obj_style.o(i.lv_obj_fade_out) for lv_obj_fade_out
    systeminfos.o(i._ZN4Page11SystemInfos6UpdateEv) refers to systeminfosmodel.o(i._ZN4Page16SystemInfosModel12GetSportInfoEPfPcjS1_) for Page::SystemInfosModel::GetSportInfo(float*, char*, unsigned, float*)
    systeminfos.o(i._ZN4Page11SystemInfos6UpdateEv) refers to systeminfosview.o(i._ZN4Page15SystemInfosView8SetSportEfPKcf) for Page::SystemInfosView::SetSport(float, const char*, float)
    systeminfos.o(i._ZN4Page11SystemInfos6UpdateEv) refers to systeminfosmodel.o(i._ZN4Page16SystemInfosModel10GetGPSInfoEPfS1_S1_PcjS1_S1_) for Page::SystemInfosModel::GetGPSInfo(float*, float*, float*, char*, unsigned, float*, float*)
    systeminfos.o(i._ZN4Page11SystemInfos6UpdateEv) refers to systeminfosview.o(i._ZN4Page15SystemInfosView6SetGPSEfffPKcff) for Page::SystemInfosView::SetGPS(float, float, float, const char*, float, float)
    systeminfos.o(i._ZN4Page11SystemInfos6UpdateEv) refers to systeminfosmodel.o(i._ZN4Page16SystemInfosModel10GetMAGInfoEPfPiS2_S2_) for Page::SystemInfosModel::GetMAGInfo(float*, int*, int*, int*)
    systeminfos.o(i._ZN4Page11SystemInfos6UpdateEv) refers to systeminfosview.o(i._ZN4Page15SystemInfosView6SetMAGEfiii) for Page::SystemInfosView::SetMAG(float, int, int, int)
    systeminfos.o(i._ZN4Page11SystemInfos6UpdateEv) refers to systeminfosmodel.o(i._ZN4Page16SystemInfosModel10GetIMUInfoEPiPcj) for Page::SystemInfosModel::GetIMUInfo(int*, char*, unsigned)
    systeminfos.o(i._ZN4Page11SystemInfos6UpdateEv) refers to systeminfosview.o(i._ZN4Page15SystemInfosView6SetIMUEiPKc) for Page::SystemInfosView::SetIMU(int, const char*)
    systeminfos.o(i._ZN4Page11SystemInfos6UpdateEv) refers to systeminfosmodel.o(i._ZN4Page16SystemInfosModel10GetRTCInfoEPcj) for Page::SystemInfosModel::GetRTCInfo(char*, unsigned)
    systeminfos.o(i._ZN4Page11SystemInfos6UpdateEv) refers to systeminfosview.o(i._ZN4Page15SystemInfosView6SetRTCEPKc) for Page::SystemInfosView::SetRTC(const char*)
    systeminfos.o(i._ZN4Page11SystemInfos6UpdateEv) refers to systeminfosmodel.o(i._ZN4Page16SystemInfosModel14GetBatteryInfoEPiPfPcjPsPtS5_S4_S5_S5_) for Page::SystemInfosModel::GetBatteryInfo(int*, float*, char*, unsigned, short*, unsigned short*, unsigned short*, short*, unsigned short*, unsigned short*)
    systeminfos.o(i._ZN4Page11SystemInfos6UpdateEv) refers to systeminfosview.o(i._ZN4Page15SystemInfosView10SetBatteryEifPKcsttstt) for Page::SystemInfosView::SetBattery(int, float, const char*, short, unsigned short, unsigned short, short, unsigned short, unsigned short)
    systeminfos.o(i._ZN4Page11SystemInfos6UpdateEv) refers to systeminfosmodel.o(i._ZN4Page16SystemInfosModel14GetStorageInfoEPbPPKcPcj) for Page::SystemInfosModel::GetStorageInfo(bool*, const char**, char*, unsigned)
    systeminfos.o(i._ZN4Page11SystemInfos6UpdateEv) refers to systeminfosview.o(i._ZN4Page15SystemInfosView10SetStorageEPKcS2_S2_S2_) for Page::SystemInfosView::SetStorage(const char*, const char*, const char*, const char*)
    systeminfos.o(i._ZN4Page11SystemInfos6UpdateEv) refers to lv_hal_tick.o(i.lv_tick_get) for lv_tick_get
    systeminfos.o(i._ZN4Page11SystemInfos6UpdateEv) refers to dp_clock.o(i._ZN8DataProc14MakeTimeStringEyPct) for DataProc::MakeTimeString(unsigned long long, char*, unsigned short)
    systeminfos.o(i._ZN4Page11SystemInfos6UpdateEv) refers to systeminfosview.o(i._ZN4Page15SystemInfosView9SetSystemEPKcS2_S2_S2_S2_S2_) for Page::SystemInfosView::SetSystem(const char*, const char*, const char*, const char*, const char*, const char*)
    systeminfos.o(i._ZN4Page11SystemInfos7onEventEP11_lv_event_t) refers to lv_event.o(i.lv_event_get_user_data) for lv_event_get_user_data
    systeminfos.o(i._ZN4Page11SystemInfos7onEventEP11_lv_event_t) refers to lv_event.o(i.lv_event_get_current_target) for lv_event_get_current_target
    systeminfos.o(i._ZN4Page11SystemInfos7onEventEP11_lv_event_t) refers to lv_event.o(i.lv_event_get_code) for lv_event_get_code
    systeminfos.o(i._ZN4Page11SystemInfos7onEventEP11_lv_event_t) refers to lv_obj.o(i.lv_obj_has_state) for lv_obj_has_state
    systeminfos.o(i._ZN4Page11SystemInfos7onEventEP11_lv_event_t) refers to pm_router.o(i._ZN11PageManager3PopEv) for PageManager::Pop()
    systeminfos.o(i._ZN4Page11SystemInfosC1Ev) refers to systeminfos.o(.constdata__ZTVN4Page11SystemInfosE) for vtable for Page::SystemInfos
    systeminfos.o(i._ZN4Page11SystemInfosD0Ev) refers to new.o(i._ZdlPv) for operator delete (void*)
    systeminfos.o(.ARM.exidx) refers to systeminfos.o(i._ZN4Page11SystemInfosC1Ev) for i._ZN4Page11SystemInfosC1Ev
    systeminfos.o(.ARM.exidx) refers to systeminfos.o(i._ZN4Page11SystemInfosD1Ev) for i._ZN4Page11SystemInfosD1Ev
    systeminfos.o(.ARM.exidx) refers to systeminfos.o(i._ZN4Page11SystemInfosD0Ev) for i._ZN4Page11SystemInfosD0Ev
    systeminfos.o(.ARM.exidx) refers to systeminfos.o(i._ZN4Page11SystemInfos18onCustomAttrConfigEv) for i._ZN4Page11SystemInfos18onCustomAttrConfigEv
    systeminfos.o(.ARM.exidx) refers to systeminfos.o(i._ZN4Page11SystemInfos7onEventEP11_lv_event_t) for i._ZN4Page11SystemInfos7onEventEP11_lv_event_t
    systeminfos.o(.ARM.exidx) refers to systeminfos.o(i._ZN4Page11SystemInfos11AttachEventEP9_lv_obj_t) for i._ZN4Page11SystemInfos11AttachEventEP9_lv_obj_t
    systeminfos.o(.ARM.exidx) refers to systeminfos.o(i._ZN4Page11SystemInfos10onViewLoadEv) for i._ZN4Page11SystemInfos10onViewLoadEv
    systeminfos.o(.ARM.exidx) refers to systeminfos.o(i._ZN4Page11SystemInfos13onViewDidLoadEv) for i._ZN4Page11SystemInfos13onViewDidLoadEv
    systeminfos.o(.ARM.exidx) refers to systeminfos.o(i._ZN4Page11SystemInfos6UpdateEv) for i._ZN4Page11SystemInfos6UpdateEv
    systeminfos.o(.ARM.exidx) refers to systeminfos.o(i._ZN4Page11SystemInfos13onTimerUpdateEP11_lv_timer_t) for i._ZN4Page11SystemInfos13onTimerUpdateEP11_lv_timer_t
    systeminfos.o(.ARM.exidx) refers to systeminfos.o(i._ZN4Page11SystemInfos16onViewWillAppearEv) for i._ZN4Page11SystemInfos16onViewWillAppearEv
    systeminfos.o(.ARM.exidx) refers to systeminfos.o(i._ZN4Page11SystemInfos15onViewDidAppearEv) for i._ZN4Page11SystemInfos15onViewDidAppearEv
    systeminfos.o(.ARM.exidx) refers to systeminfos.o(i._ZN4Page11SystemInfos19onViewWillDisappearEv) for i._ZN4Page11SystemInfos19onViewWillDisappearEv
    systeminfos.o(.ARM.exidx) refers to systeminfos.o(i._ZN4Page11SystemInfos18onViewDidDisappearEv) for i._ZN4Page11SystemInfos18onViewDidDisappearEv
    systeminfos.o(.ARM.exidx) refers to systeminfos.o(i._ZN4Page11SystemInfos15onViewDidUnloadEv) for i._ZN4Page11SystemInfos15onViewDidUnloadEv
    systeminfosmodel.o(i._ZN4Page16SystemInfosModel10GetGPSInfoEPfS1_S1_PcjS1_S1_) refers to _printf_pad.o(.text) for _printf_pre_padding
    systeminfosmodel.o(i._ZN4Page16SystemInfosModel10GetGPSInfoEPfS1_S1_PcjS1_S1_) refers to _printf_percent.o(.ARM.Collect$$_printf_percent$$00000000) for _printf_percent
    systeminfosmodel.o(i._ZN4Page16SystemInfosModel10GetGPSInfoEPfS1_S1_PcjS1_S1_) refers to _printf_d.o(.ARM.Collect$$_printf_percent$$00000009) for _printf_d
    systeminfosmodel.o(i._ZN4Page16SystemInfosModel10GetGPSInfoEPfS1_S1_PcjS1_S1_) refers to _printf_dec.o(.text) for _printf_int_dec
    systeminfosmodel.o(i._ZN4Page16SystemInfosModel10GetGPSInfoEPfS1_S1_PcjS1_S1_) refers to rt_memclr_w.o(.text) for __aeabi_memclr4
    systeminfosmodel.o(i._ZN4Page16SystemInfosModel10GetGPSInfoEPfS1_S1_PcjS1_S1_) refers to account.o(i._ZN7Account4PullEPKcPvj) for Account::Pull(const char*, void*, unsigned)
    systeminfosmodel.o(i._ZN4Page16SystemInfosModel10GetGPSInfoEPfS1_S1_PcjS1_S1_) refers to d2f.o(x$fpl$d2f) for __aeabi_d2f
    systeminfosmodel.o(i._ZN4Page16SystemInfosModel10GetGPSInfoEPfS1_S1_PcjS1_S1_) refers to __2snprintf.o(.text) for __2snprintf
    systeminfosmodel.o(i._ZN4Page16SystemInfosModel10GetIMUInfoEPiPcj) refers to _printf_percent.o(.ARM.Collect$$_printf_percent$$00000000) for _printf_percent
    systeminfosmodel.o(i._ZN4Page16SystemInfosModel10GetIMUInfoEPiPcj) refers to _printf_d.o(.ARM.Collect$$_printf_percent$$00000009) for _printf_d
    systeminfosmodel.o(i._ZN4Page16SystemInfosModel10GetIMUInfoEPiPcj) refers to _printf_dec.o(.text) for _printf_int_dec
    systeminfosmodel.o(i._ZN4Page16SystemInfosModel10GetIMUInfoEPiPcj) refers to account.o(i._ZN7Account4PullEPKcPvj) for Account::Pull(const char*, void*, unsigned)
    systeminfosmodel.o(i._ZN4Page16SystemInfosModel10GetIMUInfoEPiPcj) refers to __2snprintf.o(.text) for __2snprintf
    systeminfosmodel.o(i._ZN4Page16SystemInfosModel10GetMAGInfoEPfPiS2_S2_) refers to account.o(i._ZN7Account4PullEPKcPvj) for Account::Pull(const char*, void*, unsigned)
    systeminfosmodel.o(i._ZN4Page16SystemInfosModel10GetRTCInfoEPcj) refers to _printf_pad.o(.text) for _printf_pre_padding
    systeminfosmodel.o(i._ZN4Page16SystemInfosModel10GetRTCInfoEPcj) refers to _printf_percent.o(.ARM.Collect$$_printf_percent$$00000000) for _printf_percent
    systeminfosmodel.o(i._ZN4Page16SystemInfosModel10GetRTCInfoEPcj) refers to _printf_d.o(.ARM.Collect$$_printf_percent$$00000009) for _printf_d
    systeminfosmodel.o(i._ZN4Page16SystemInfosModel10GetRTCInfoEPcj) refers to _printf_dec.o(.text) for _printf_int_dec
    systeminfosmodel.o(i._ZN4Page16SystemInfosModel10GetRTCInfoEPcj) refers to account.o(i._ZN7Account4PullEPKcPvj) for Account::Pull(const char*, void*, unsigned)
    systeminfosmodel.o(i._ZN4Page16SystemInfosModel10GetRTCInfoEPcj) refers to __2snprintf.o(.text) for __2snprintf
    systeminfosmodel.o(i._ZN4Page16SystemInfosModel12GetSportInfoEPfPcjS1_) refers to rt_memclr_w.o(.text) for __aeabi_memclr4
    systeminfosmodel.o(i._ZN4Page16SystemInfosModel12GetSportInfoEPfPcjS1_) refers to account.o(i._ZN7Account4PullEPKcPvj) for Account::Pull(const char*, void*, unsigned)
    systeminfosmodel.o(i._ZN4Page16SystemInfosModel12GetSportInfoEPfPcjS1_) refers to dp_clock.o(i._ZN8DataProc14MakeTimeStringEyPct) for DataProc::MakeTimeString(unsigned long long, char*, unsigned short)
    systeminfosmodel.o(i._ZN4Page16SystemInfosModel14GetBatteryInfoEPiPfPcjPsPtS5_S4_S5_S5_) refers to account.o(i._ZN7Account4PullEPKcPvj) for Account::Pull(const char*, void*, unsigned)
    systeminfosmodel.o(i._ZN4Page16SystemInfosModel14GetBatteryInfoEPiPfPcjPsPtS5_S4_S5_S5_) refers to strncpy.o(.text) for strncpy
    systeminfosmodel.o(i._ZN4Page16SystemInfosModel14GetStorageInfoEPbPPKcPcj) refers to _printf_percent.o(.ARM.Collect$$_printf_percent$$00000000) for _printf_percent
    systeminfosmodel.o(i._ZN4Page16SystemInfosModel14GetStorageInfoEPbPPKcPcj) refers to _printf_f.o(.ARM.Collect$$_printf_percent$$00000003) for _printf_f
    systeminfosmodel.o(i._ZN4Page16SystemInfosModel14GetStorageInfoEPbPPKcPcj) refers to printf1.o(x$fpl$printf1) for _printf_fp_dec
    systeminfosmodel.o(i._ZN4Page16SystemInfosModel14GetStorageInfoEPbPPKcPcj) refers to account.o(i._ZN7Account4PullEPKcPvj) for Account::Pull(const char*, void*, unsigned)
    systeminfosmodel.o(i._ZN4Page16SystemInfosModel14GetStorageInfoEPbPPKcPcj) refers to f2d.o(x$fpl$f2d) for __aeabi_f2d
    systeminfosmodel.o(i._ZN4Page16SystemInfosModel14GetStorageInfoEPbPPKcPcj) refers to __2snprintf.o(.text) for __2snprintf
    systeminfosmodel.o(i._ZN4Page16SystemInfosModel17SetStatusBarStyleEN8DataProc17StatusBar_Style_tE) refers to account.o(i._ZN7Account6NotifyEPKcPKvj) for Account::Notify(const char*, const void*, unsigned)
    systeminfosmodel.o(i._ZN4Page16SystemInfosModel4InitEv) refers to new.o(i._Znwj) for operator new(unsigned)
    systeminfosmodel.o(i._ZN4Page16SystemInfosModel4InitEv) refers to dataproc.o(i._ZN8DataProc6CenterEv) for DataProc::Center()
    systeminfosmodel.o(i._ZN4Page16SystemInfosModel4InitEv) refers to account.o(i._ZN7AccountC1EPKcP10DataCenterjPv) for Account::Account(const char*, DataCenter*, unsigned, void*)
    systeminfosmodel.o(i._ZN4Page16SystemInfosModel4InitEv) refers to account.o(i._ZN7Account9SubscribeEPKc) for Account::Subscribe(const char*)
    systeminfosmodel.o(i._ZN4Page16SystemInfosModel6DeinitEv) refers to account.o(i._ZN7AccountD1Ev) for Account::~Account()
    systeminfosmodel.o(i._ZN4Page16SystemInfosModel6DeinitEv) refers to new.o(i._ZdlPv) for operator delete (void*)
    systeminfosmodel.o(.ARM.exidx) refers to systeminfosmodel.o(i._ZN4Page16SystemInfosModel4InitEv) for i._ZN4Page16SystemInfosModel4InitEv
    systeminfosmodel.o(.ARM.exidx) refers to systeminfosmodel.o(i._ZN4Page16SystemInfosModel6DeinitEv) for i._ZN4Page16SystemInfosModel6DeinitEv
    systeminfosmodel.o(.ARM.exidx) refers to systeminfosmodel.o(i._ZN4Page16SystemInfosModel12GetSportInfoEPfPcjS1_) for i._ZN4Page16SystemInfosModel12GetSportInfoEPfPcjS1_
    systeminfosmodel.o(.ARM.exidx) refers to systeminfosmodel.o(i._ZN4Page16SystemInfosModel10GetGPSInfoEPfS1_S1_PcjS1_S1_) for i._ZN4Page16SystemInfosModel10GetGPSInfoEPfS1_S1_PcjS1_S1_
    systeminfosmodel.o(.ARM.exidx) refers to systeminfosmodel.o(i._ZN4Page16SystemInfosModel10GetMAGInfoEPfPiS2_S2_) for i._ZN4Page16SystemInfosModel10GetMAGInfoEPfPiS2_S2_
    systeminfosmodel.o(.ARM.exidx) refers to systeminfosmodel.o(i._ZN4Page16SystemInfosModel10GetIMUInfoEPiPcj) for i._ZN4Page16SystemInfosModel10GetIMUInfoEPiPcj
    systeminfosmodel.o(.ARM.exidx) refers to systeminfosmodel.o(i._ZN4Page16SystemInfosModel10GetRTCInfoEPcj) for i._ZN4Page16SystemInfosModel10GetRTCInfoEPcj
    systeminfosmodel.o(.ARM.exidx) refers to systeminfosmodel.o(i._ZN4Page16SystemInfosModel14GetBatteryInfoEPiPfPcjPsPtS5_S4_S5_S5_) for i._ZN4Page16SystemInfosModel14GetBatteryInfoEPiPfPcjPsPtS5_S4_S5_S5_
    systeminfosmodel.o(.ARM.exidx) refers to systeminfosmodel.o(i._ZN4Page16SystemInfosModel14GetStorageInfoEPbPPKcPcj) for i._ZN4Page16SystemInfosModel14GetStorageInfoEPbPPKcPcj
    systeminfosmodel.o(.ARM.exidx) refers to systeminfosmodel.o(i._ZN4Page16SystemInfosModel17SetStatusBarStyleEN8DataProc17StatusBar_Style_tE) for i._ZN4Page16SystemInfosModel17SetStatusBarStyleEN8DataProc17StatusBar_Style_tE
    systeminfosview.o(i._ZN41_INTERNAL_19_SystemInfosView_cpp_a9e948da14lv_color_blackEv) refers to systeminfosview.o(i._ZN41_INTERNAL_19_SystemInfosView_cpp_a9e948da13lv_color_makeEhhh) for [local to SystemInfosView_cpp]::lv_color_make(unsigned char, unsigned char, unsigned char)
    systeminfosview.o(i._ZN41_INTERNAL_19_SystemInfosView_cpp_a9e948da14lv_color_whiteEv) refers to systeminfosview.o(i._ZN41_INTERNAL_19_SystemInfosView_cpp_a9e948da13lv_color_makeEhhh) for [local to SystemInfosView_cpp]::lv_color_make(unsigned char, unsigned char, unsigned char)
    systeminfosview.o(i._ZN4Page15SystemInfosView10Group_InitEv) refers to lv_group.o(i.lv_group_get_default) for lv_group_get_default
    systeminfosview.o(i._ZN4Page15SystemInfosView10Group_InitEv) refers to lv_group.o(i.lv_group_set_wrap) for lv_group_set_wrap
    systeminfosview.o(i._ZN4Page15SystemInfosView10Group_InitEv) refers to lv_group.o(i.lv_group_set_focus_cb) for lv_group_set_focus_cb
    systeminfosview.o(i._ZN4Page15SystemInfosView10Group_InitEv) refers to lv_group.o(i.lv_group_add_obj) for lv_group_add_obj
    systeminfosview.o(i._ZN4Page15SystemInfosView10Group_InitEv) refers to lv_group.o(i.lv_group_focus_obj) for lv_group_focus_obj
    systeminfosview.o(i._ZN4Page15SystemInfosView10Group_InitEv) refers to systeminfosview.o(i._ZN4Page15SystemInfosView7onFocusEP11_lv_group_t) for Page::SystemInfosView::onFocus(_lv_group_t*)
    systeminfosview.o(i._ZN4Page15SystemInfosView10SetBatteryEifPKcsttstt) refers to f2d.o(x$fpl$f2d) for __aeabi_f2d
    systeminfosview.o(i._ZN4Page15SystemInfosView10SetBatteryEifPKcsttstt) refers to lv_label.o(i.lv_label_set_text_fmt) for lv_label_set_text_fmt
    systeminfosview.o(i._ZN4Page15SystemInfosView10SetStorageEPKcS2_S2_S2_) refers to lv_label.o(i.lv_label_set_text_fmt) for lv_label_set_text_fmt
    systeminfosview.o(i._ZN4Page15SystemInfosView10Style_InitEv) refers to lv_style.o(i.lv_style_init) for lv_style_init
    systeminfosview.o(i._ZN4Page15SystemInfosView10Style_InitEv) refers to lv_style_gen.o(i.lv_style_set_width) for lv_style_set_width
    systeminfosview.o(i._ZN4Page15SystemInfosView10Style_InitEv) refers to systeminfosview.o(i._ZN41_INTERNAL_19_SystemInfosView_cpp_a9e948da14lv_color_blackEv) for [local to SystemInfosView_cpp]::lv_color_black()
    systeminfosview.o(i._ZN4Page15SystemInfosView10Style_InitEv) refers to lv_style_gen.o(i.lv_style_set_bg_color) for lv_style_set_bg_color
    systeminfosview.o(i._ZN4Page15SystemInfosView10Style_InitEv) refers to lv_style_gen.o(i.lv_style_set_bg_opa) for lv_style_set_bg_opa
    systeminfosview.o(i._ZN4Page15SystemInfosView10Style_InitEv) refers to resourcepool.o(i._ZN12ResourcePool7GetFontEPKc) for ResourcePool::GetFont(const char*)
    systeminfosview.o(i._ZN4Page15SystemInfosView10Style_InitEv) refers to lv_style_gen.o(i.lv_style_set_text_font) for lv_style_set_text_font
    systeminfosview.o(i._ZN4Page15SystemInfosView10Style_InitEv) refers to systeminfosview.o(i._ZN41_INTERNAL_19_SystemInfosView_cpp_a9e948da14lv_color_whiteEv) for [local to SystemInfosView_cpp]::lv_color_white()
    systeminfosview.o(i._ZN4Page15SystemInfosView10Style_InitEv) refers to lv_style_gen.o(i.lv_style_set_text_color) for lv_style_set_text_color
    systeminfosview.o(i._ZN4Page15SystemInfosView10Style_InitEv) refers to lv_style_gen.o(i.lv_style_set_border_side) for lv_style_set_border_side
    systeminfosview.o(i._ZN4Page15SystemInfosView10Style_InitEv) refers to lv_style_gen.o(i.lv_style_set_border_width) for lv_style_set_border_width
    systeminfosview.o(i._ZN4Page15SystemInfosView10Style_InitEv) refers to systeminfosview.o(i._ZN41_INTERNAL_19_SystemInfosView_cpp_a9e948da12lv_color_hexEj) for [local to SystemInfosView_cpp]::lv_color_hex(unsigned)
    systeminfosview.o(i._ZN4Page15SystemInfosView10Style_InitEv) refers to lv_style_gen.o(i.lv_style_set_border_color) for lv_style_set_border_color
    systeminfosview.o(i._ZN4Page15SystemInfosView10Style_InitEv) refers to lv_style.o(i.lv_style_transition_dsc_init) for lv_style_transition_dsc_init
    systeminfosview.o(i._ZN4Page15SystemInfosView10Style_InitEv) refers to lv_style_gen.o(i.lv_style_set_transition) for lv_style_set_transition
    systeminfosview.o(i._ZN4Page15SystemInfosView10Style_InitEv) refers to lv_anim.o(i.lv_anim_path_overshoot) for lv_anim_path_overshoot
    systeminfosview.o(i._ZN4Page15SystemInfosView10Style_InitEv) refers to systeminfosview.o(.constdata) for .constdata
    systeminfosview.o(i._ZN4Page15SystemInfosView10Style_InitEv) refers to systeminfosview.o(.bss) for .bss
    systeminfosview.o(i._ZN4Page15SystemInfosView11Item_CreateEPNS0_6item_tEP9_lv_obj_tPKcS6_S6_) refers to lv_obj.o(i.lv_obj_create) for lv_obj_create
    systeminfosview.o(i._ZN4Page15SystemInfosView11Item_CreateEPNS0_6item_tEP9_lv_obj_tPKcS6_S6_) refers to lv_obj_style.o(i.lv_obj_remove_style) for lv_obj_remove_style
    systeminfosview.o(i._ZN4Page15SystemInfosView11Item_CreateEPNS0_6item_tEP9_lv_obj_tPKcS6_S6_) refers to lv_obj_pos.o(i.lv_obj_set_width) for lv_obj_set_width
    systeminfosview.o(i._ZN4Page15SystemInfosView11Item_CreateEPNS0_6item_tEP9_lv_obj_tPKcS6_S6_) refers to lv_obj.o(i.lv_obj_clear_flag) for lv_obj_clear_flag
    systeminfosview.o(i._ZN4Page15SystemInfosView11Item_CreateEPNS0_6item_tEP9_lv_obj_tPKcS6_S6_) refers to lv_obj_style.o(i.lv_obj_add_style) for lv_obj_add_style
    systeminfosview.o(i._ZN4Page15SystemInfosView11Item_CreateEPNS0_6item_tEP9_lv_obj_tPKcS6_S6_) refers to lv_obj_style_gen.o(i.lv_obj_set_style_align) for lv_obj_set_style_align
    systeminfosview.o(i._ZN4Page15SystemInfosView11Item_CreateEPNS0_6item_tEP9_lv_obj_tPKcS6_S6_) refers to lv_flex.o(i.lv_obj_set_flex_flow) for lv_obj_set_flex_flow
    systeminfosview.o(i._ZN4Page15SystemInfosView11Item_CreateEPNS0_6item_tEP9_lv_obj_tPKcS6_S6_) refers to lv_flex.o(i.lv_obj_set_flex_align) for lv_obj_set_flex_align
    systeminfosview.o(i._ZN4Page15SystemInfosView11Item_CreateEPNS0_6item_tEP9_lv_obj_tPKcS6_S6_) refers to lv_img.o(i.lv_img_create) for lv_img_create
    systeminfosview.o(i._ZN4Page15SystemInfosView11Item_CreateEPNS0_6item_tEP9_lv_obj_tPKcS6_S6_) refers to resourcepool.o(i._ZN12ResourcePool8GetImageEPKc) for ResourcePool::GetImage(const char*)
    systeminfosview.o(i._ZN4Page15SystemInfosView11Item_CreateEPNS0_6item_tEP9_lv_obj_tPKcS6_S6_) refers to lv_img.o(i.lv_img_set_src) for lv_img_set_src
    systeminfosview.o(i._ZN4Page15SystemInfosView11Item_CreateEPNS0_6item_tEP9_lv_obj_tPKcS6_S6_) refers to lv_label.o(i.lv_label_create) for lv_label_create
    systeminfosview.o(i._ZN4Page15SystemInfosView11Item_CreateEPNS0_6item_tEP9_lv_obj_tPKcS6_S6_) refers to lv_label.o(i.lv_label_set_text) for lv_label_set_text
    systeminfosview.o(i._ZN4Page15SystemInfosView11Item_CreateEPNS0_6item_tEP9_lv_obj_tPKcS6_S6_) refers to lv_obj_pos.o(i.lv_obj_align) for lv_obj_align
    systeminfosview.o(i._ZN4Page15SystemInfosView11Item_CreateEPNS0_6item_tEP9_lv_obj_tPKcS6_S6_) refers to lv_obj_tree.o(i.lv_obj_get_parent) for lv_obj_get_parent
    systeminfosview.o(i._ZN4Page15SystemInfosView11Item_CreateEPNS0_6item_tEP9_lv_obj_tPKcS6_S6_) refers to lv_obj_tree.o(i.lv_obj_get_child_cnt) for lv_obj_get_child_cnt
    systeminfosview.o(i._ZN4Page15SystemInfosView11Item_CreateEPNS0_6item_tEP9_lv_obj_tPKcS6_S6_) refers to lv_obj_tree.o(i.lv_obj_move_to_index) for lv_obj_move_to_index
    systeminfosview.o(i._ZN4Page15SystemInfosView11Item_CreateEPNS0_6item_tEP9_lv_obj_tPKcS6_S6_) refers to lv_obj_pos.o(i.lv_obj_update_layout) for lv_obj_update_layout
    systeminfosview.o(i._ZN4Page15SystemInfosView11Item_CreateEPNS0_6item_tEP9_lv_obj_tPKcS6_S6_) refers to lv_obj_pos.o(i.lv_obj_get_height) for lv_obj_get_height
    systeminfosview.o(i._ZN4Page15SystemInfosView11Item_CreateEPNS0_6item_tEP9_lv_obj_tPKcS6_S6_) refers to lv_obj_pos.o(i.lv_obj_set_height) for lv_obj_set_height
    systeminfosview.o(i._ZN4Page15SystemInfosView11Style_ResetEv) refers to lv_style.o(i.lv_style_reset) for lv_style_reset
    systeminfosview.o(i._ZN4Page15SystemInfosView12SetScrollToYEP9_lv_obj_ts16lv_anim_enable_t) refers to lv_obj_scroll.o(i.lv_obj_get_scroll_y) for lv_obj_get_scroll_y
    systeminfosview.o(i._ZN4Page15SystemInfosView12SetScrollToYEP9_lv_obj_ts16lv_anim_enable_t) refers to lv_obj_scroll.o(i.lv_obj_scroll_by) for lv_obj_scroll_by
    systeminfosview.o(i._ZN4Page15SystemInfosView6CreateEP9_lv_obj_t) refers to lv_obj_style.o(i.lv_obj_remove_style) for lv_obj_remove_style
    systeminfosview.o(i._ZN4Page15SystemInfosView6CreateEP9_lv_obj_t) refers to lv_hal_disp.o(i.lv_disp_get_default) for lv_disp_get_default
    systeminfosview.o(i._ZN4Page15SystemInfosView6CreateEP9_lv_obj_t) refers to lv_hal_disp.o(i.lv_disp_get_ver_res) for lv_disp_get_ver_res
    systeminfosview.o(i._ZN4Page15SystemInfosView6CreateEP9_lv_obj_t) refers to lv_hal_disp.o(i.lv_disp_get_hor_res) for lv_disp_get_hor_res
    systeminfosview.o(i._ZN4Page15SystemInfosView6CreateEP9_lv_obj_t) refers to lv_obj_pos.o(i.lv_obj_set_size) for lv_obj_set_size
    systeminfosview.o(i._ZN4Page15SystemInfosView6CreateEP9_lv_obj_t) refers to systeminfosview.o(i._ZN41_INTERNAL_19_SystemInfosView_cpp_a9e948da14lv_color_blackEv) for [local to SystemInfosView_cpp]::lv_color_black()
    systeminfosview.o(i._ZN4Page15SystemInfosView6CreateEP9_lv_obj_t) refers to lv_obj_style_gen.o(i.lv_obj_set_style_bg_color) for lv_obj_set_style_bg_color
    systeminfosview.o(i._ZN4Page15SystemInfosView6CreateEP9_lv_obj_t) refers to lv_obj_style_gen.o(i.lv_obj_set_style_bg_opa) for lv_obj_set_style_bg_opa
    systeminfosview.o(i._ZN4Page15SystemInfosView6CreateEP9_lv_obj_t) refers to lv_obj_style_gen.o(i.lv_obj_set_style_pad_top) for lv_obj_set_style_pad_top
    systeminfosview.o(i._ZN4Page15SystemInfosView6CreateEP9_lv_obj_t) refers to lv_obj_style_gen.o(i.lv_obj_set_style_pad_bottom) for lv_obj_set_style_pad_bottom
    systeminfosview.o(i._ZN4Page15SystemInfosView6CreateEP9_lv_obj_t) refers to lv_flex.o(i.lv_obj_set_flex_flow) for lv_obj_set_flex_flow
    systeminfosview.o(i._ZN4Page15SystemInfosView6CreateEP9_lv_obj_t) refers to lv_flex.o(i.lv_obj_set_flex_align) for lv_obj_set_flex_align
    systeminfosview.o(i._ZN4Page15SystemInfosView6CreateEP9_lv_obj_t) refers to systeminfosview.o(i._ZN4Page15SystemInfosView10Style_InitEv) for Page::SystemInfosView::Style_Init()
    systeminfosview.o(i._ZN4Page15SystemInfosView6CreateEP9_lv_obj_t) refers to systeminfosview.o(i._ZN4Page15SystemInfosView11Item_CreateEPNS0_6item_tEP9_lv_obj_tPKcS6_S6_) for Page::SystemInfosView::Item_Create(Page::SystemInfosView::item_t*, _lv_obj_t*, const char*, const char*, const char*)
    systeminfosview.o(i._ZN4Page15SystemInfosView6CreateEP9_lv_obj_t) refers to systeminfosview.o(i._ZN4Page15SystemInfosView10Group_InitEv) for Page::SystemInfosView::Group_Init()
    systeminfosview.o(i._ZN4Page15SystemInfosView6CreateEP9_lv_obj_t) refers to systeminfosview.o(.conststring) for .conststring
    systeminfosview.o(i._ZN4Page15SystemInfosView6DeleteEv) refers to lv_group.o(i.lv_group_get_default) for lv_group_get_default
    systeminfosview.o(i._ZN4Page15SystemInfosView6DeleteEv) refers to lv_group.o(i.lv_group_set_focus_cb) for lv_group_set_focus_cb
    systeminfosview.o(i._ZN4Page15SystemInfosView6DeleteEv) refers to systeminfosview.o(i._ZN4Page15SystemInfosView11Style_ResetEv) for Page::SystemInfosView::Style_Reset()
    systeminfosview.o(i._ZN4Page15SystemInfosView6SetGPSEfffPKcff) refers to f2d.o(x$fpl$f2d) for __aeabi_f2d
    systeminfosview.o(i._ZN4Page15SystemInfosView6SetGPSEfffPKcff) refers to lv_label.o(i.lv_label_set_text_fmt) for lv_label_set_text_fmt
    systeminfosview.o(i._ZN4Page15SystemInfosView6SetIMUEiPKc) refers to lv_label.o(i.lv_label_set_text_fmt) for lv_label_set_text_fmt
    systeminfosview.o(i._ZN4Page15SystemInfosView6SetMAGEfiii) refers to f2d.o(x$fpl$f2d) for __aeabi_f2d
    systeminfosview.o(i._ZN4Page15SystemInfosView6SetMAGEfiii) refers to lv_label.o(i.lv_label_set_text_fmt) for lv_label_set_text_fmt
    systeminfosview.o(i._ZN4Page15SystemInfosView6SetRTCEPKc) refers to lv_label.o(i.lv_label_set_text) for lv_label_set_text
    systeminfosview.o(i._ZN4Page15SystemInfosView7onFocusEP11_lv_group_t) refers to lv_group.o(i.lv_group_get_focused) for lv_group_get_focused
    systeminfosview.o(i._ZN4Page15SystemInfosView7onFocusEP11_lv_group_t) refers to lv_obj_tree.o(i.lv_obj_get_parent) for lv_obj_get_parent
    systeminfosview.o(i._ZN4Page15SystemInfosView7onFocusEP11_lv_group_t) refers to lv_obj_pos.o(i.lv_obj_get_y) for lv_obj_get_y
    systeminfosview.o(i._ZN4Page15SystemInfosView7onFocusEP11_lv_group_t) refers to lv_obj_scroll.o(i.lv_obj_scroll_to_y) for lv_obj_scroll_to_y
    systeminfosview.o(i._ZN4Page15SystemInfosView8SetSportEfPKcf) refers to f2d.o(x$fpl$f2d) for __aeabi_f2d
    systeminfosview.o(i._ZN4Page15SystemInfosView8SetSportEfPKcf) refers to lv_label.o(i.lv_label_set_text_fmt) for lv_label_set_text_fmt
    systeminfosview.o(i._ZN4Page15SystemInfosView9SetSystemEPKcS2_S2_S2_S2_S2_) refers to lv_label.o(i.lv_label_set_text_fmt) for lv_label_set_text_fmt
    systeminfosview.o(.ARM.exidx) refers to systeminfosview.o(i._ZN41_INTERNAL_19_SystemInfosView_cpp_a9e948da13lv_color_makeEhhh) for i._ZN41_INTERNAL_19_SystemInfosView_cpp_a9e948da13lv_color_makeEhhh
    systeminfosview.o(.ARM.exidx) refers to systeminfosview.o(i._ZN4Page15SystemInfosView7onFocusEP11_lv_group_t) for i._ZN4Page15SystemInfosView7onFocusEP11_lv_group_t
    systeminfosview.o(.ARM.exidx) refers to systeminfosview.o(i._ZN4Page15SystemInfosView10Group_InitEv) for i._ZN4Page15SystemInfosView10Group_InitEv
    systeminfosview.o(.ARM.exidx) refers to systeminfosview.o(i._ZN4Page15SystemInfosView11Item_CreateEPNS0_6item_tEP9_lv_obj_tPKcS6_S6_) for i._ZN4Page15SystemInfosView11Item_CreateEPNS0_6item_tEP9_lv_obj_tPKcS6_S6_
    systeminfosview.o(.ARM.exidx) refers to systeminfosview.o(i._ZN4Page15SystemInfosView10Style_InitEv) for i._ZN4Page15SystemInfosView10Style_InitEv
    systeminfosview.o(.ARM.exidx) refers to systeminfosview.o(i._ZN4Page15SystemInfosView6CreateEP9_lv_obj_t) for i._ZN4Page15SystemInfosView6CreateEP9_lv_obj_t
    systeminfosview.o(.ARM.exidx) refers to systeminfosview.o(i._ZN4Page15SystemInfosView11Style_ResetEv) for i._ZN4Page15SystemInfosView11Style_ResetEv
    systeminfosview.o(.ARM.exidx) refers to systeminfosview.o(i._ZN4Page15SystemInfosView6DeleteEv) for i._ZN4Page15SystemInfosView6DeleteEv
    systeminfosview.o(.ARM.exidx) refers to systeminfosview.o(i._ZN4Page15SystemInfosView8SetSportEfPKcf) for i._ZN4Page15SystemInfosView8SetSportEfPKcf
    systeminfosview.o(.ARM.exidx) refers to systeminfosview.o(i._ZN4Page15SystemInfosView6SetGPSEfffPKcff) for i._ZN4Page15SystemInfosView6SetGPSEfffPKcff
    systeminfosview.o(.ARM.exidx) refers to systeminfosview.o(i._ZN4Page15SystemInfosView6SetMAGEfiii) for i._ZN4Page15SystemInfosView6SetMAGEfiii
    systeminfosview.o(.ARM.exidx) refers to systeminfosview.o(i._ZN4Page15SystemInfosView6SetIMUEiPKc) for i._ZN4Page15SystemInfosView6SetIMUEiPKc
    systeminfosview.o(.ARM.exidx) refers to systeminfosview.o(i._ZN4Page15SystemInfosView6SetRTCEPKc) for i._ZN4Page15SystemInfosView6SetRTCEPKc
    systeminfosview.o(.ARM.exidx) refers to systeminfosview.o(i._ZN4Page15SystemInfosView10SetBatteryEifPKcsttstt) for i._ZN4Page15SystemInfosView10SetBatteryEifPKcsttstt
    systeminfosview.o(.ARM.exidx) refers to systeminfosview.o(i._ZN4Page15SystemInfosView10SetStorageEPKcS2_S2_S2_) for i._ZN4Page15SystemInfosView10SetStorageEPKcS2_S2_S2_
    systeminfosview.o(.ARM.exidx) refers to systeminfosview.o(i._ZN4Page15SystemInfosView9SetSystemEPKcS2_S2_S2_S2_S2_) for i._ZN4Page15SystemInfosView9SetSystemEPKcS2_S2_S2_S2_S2_
    systeminfosview.o(.ARM.exidx) refers to systeminfosview.o(i._ZN4Page15SystemInfosView12SetScrollToYEP9_lv_obj_ts16lv_anim_enable_t) for i._ZN4Page15SystemInfosView12SetScrollToYEP9_lv_obj_ts16lv_anim_enable_t
    systeminfosview.o(.ARM.exidx) refers to systeminfosview.o(i._ZN41_INTERNAL_19_SystemInfosView_cpp_a9e948da12lv_color_hexEj) for i._ZN41_INTERNAL_19_SystemInfosView_cpp_a9e948da12lv_color_hexEj
    systeminfosview.o(.ARM.exidx) refers to systeminfosview.o(i._ZN41_INTERNAL_19_SystemInfosView_cpp_a9e948da14lv_color_whiteEv) for i._ZN41_INTERNAL_19_SystemInfosView_cpp_a9e948da14lv_color_whiteEv
    systeminfosview.o(.ARM.exidx) refers to systeminfosview.o(i._ZN41_INTERNAL_19_SystemInfosView_cpp_a9e948da14lv_color_blackEv) for i._ZN41_INTERNAL_19_SystemInfosView_cpp_a9e948da14lv_color_blackEv
    template.o(i._ZN4Page8Template10onViewLoadEv) refers to templateview.o(i._ZN4Page12TemplateView6CreateEP9_lv_obj_t) for Page::TemplateView::Create(_lv_obj_t*)
    template.o(i._ZN4Page8Template10onViewLoadEv) refers to lv_label.o(i.lv_label_set_text) for lv_label_set_text
    template.o(i._ZN4Page8Template10onViewLoadEv) refers to template.o(i._ZN4Page8Template11AttachEventEP9_lv_obj_t) for Page::Template::AttachEvent(_lv_obj_t*)
    template.o(i._ZN4Page8Template10onViewLoadEv) refers to templatemodel.o(i._ZN4Page13TemplateModel7GetDataEv) for Page::TemplateModel::GetData()
    template.o(i._ZN4Page8Template11AttachEventEP9_lv_obj_t) refers to lv_event.o(i.lv_obj_add_event_cb) for lv_obj_add_event_cb
    template.o(i._ZN4Page8Template11AttachEventEP9_lv_obj_t) refers to template.o(i._ZN4Page8Template7onEventEP11_lv_event_t) for Page::Template::onEvent(_lv_event_t*)
    template.o(i._ZN4Page8Template13onTimerUpdateEP11_lv_timer_t) refers to template.o(i._ZN4Page8Template6UpdateEv) for Page::Template::Update()
    template.o(i._ZN4Page8Template16onViewWillAppearEv) refers to rt_memcpy_v6.o(.text) for __aeabi_memcpy
    template.o(i._ZN4Page8Template16onViewWillAppearEv) refers to lv_obj_style_gen.o(i.lv_obj_set_style_bg_color) for lv_obj_set_style_bg_color
    template.o(i._ZN4Page8Template16onViewWillAppearEv) refers to lv_timer.o(i.lv_timer_create) for lv_timer_create
    template.o(i._ZN4Page8Template16onViewWillAppearEv) refers to template.o(i._ZN4Page8Template13onTimerUpdateEP11_lv_timer_t) for Page::Template::onTimerUpdate(_lv_timer_t*)
    template.o(i._ZN4Page8Template18onCustomAttrConfigEv) refers to lv_anim.o(i.lv_anim_path_bounce) for lv_anim_path_bounce
    template.o(i._ZN4Page8Template18onViewDidDisappearEv) refers to lv_timer.o(i.lv_timer_del) for lv_timer_del
    template.o(i._ZN4Page8Template6UpdateEv) refers to templatemodel.o(i._ZN4Page13TemplateModel7GetDataEv) for Page::TemplateModel::GetData()
    template.o(i._ZN4Page8Template6UpdateEv) refers to lv_label.o(i.lv_label_set_text_fmt) for lv_label_set_text_fmt
    template.o(i._ZN4Page8Template7onEventEP11_lv_event_t) refers to lv_event.o(i.lv_event_get_user_data) for lv_event_get_user_data
    template.o(i._ZN4Page8Template7onEventEP11_lv_event_t) refers to lv_event.o(i.lv_event_get_current_target) for lv_event_get_current_target
    template.o(i._ZN4Page8Template7onEventEP11_lv_event_t) refers to lv_event.o(i.lv_event_get_code) for lv_event_get_code
    template.o(i._ZN4Page8Template7onEventEP11_lv_event_t) refers to pm_router.o(i._ZN11PageManager3PopEv) for PageManager::Pop()
    template.o(i._ZN4Page8TemplateC1Ev) refers to template.o(.constdata__ZTVN4Page8TemplateE) for vtable for Page::Template
    template.o(i._ZN4Page8TemplateD0Ev) refers to new.o(i._ZdlPv) for operator delete (void*)
    template.o(.ARM.exidx) refers to template.o(i._ZN4Page8TemplateC1Ev) for i._ZN4Page8TemplateC1Ev
    template.o(.ARM.exidx) refers to template.o(i._ZN4Page8TemplateD1Ev) for i._ZN4Page8TemplateD1Ev
    template.o(.ARM.exidx) refers to template.o(i._ZN4Page8TemplateD0Ev) for i._ZN4Page8TemplateD0Ev
    template.o(.ARM.exidx) refers to template.o(i._ZN4Page8Template18onCustomAttrConfigEv) for i._ZN4Page8Template18onCustomAttrConfigEv
    template.o(.ARM.exidx) refers to template.o(i._ZN4Page8Template7onEventEP11_lv_event_t) for i._ZN4Page8Template7onEventEP11_lv_event_t
    template.o(.ARM.exidx) refers to template.o(i._ZN4Page8Template11AttachEventEP9_lv_obj_t) for i._ZN4Page8Template11AttachEventEP9_lv_obj_t
    template.o(.ARM.exidx) refers to template.o(i._ZN4Page8Template10onViewLoadEv) for i._ZN4Page8Template10onViewLoadEv
    template.o(.ARM.exidx) refers to template.o(i._ZN4Page8Template13onViewDidLoadEv) for i._ZN4Page8Template13onViewDidLoadEv
    template.o(.ARM.exidx) refers to template.o(i._ZN4Page8Template6UpdateEv) for i._ZN4Page8Template6UpdateEv
    template.o(.ARM.exidx) refers to template.o(i._ZN4Page8Template13onTimerUpdateEP11_lv_timer_t) for i._ZN4Page8Template13onTimerUpdateEP11_lv_timer_t
    template.o(.ARM.exidx) refers to template.o(i._ZN4Page8Template16onViewWillAppearEv) for i._ZN4Page8Template16onViewWillAppearEv
    template.o(.ARM.exidx) refers to template.o(i._ZN4Page8Template15onViewDidAppearEv) for i._ZN4Page8Template15onViewDidAppearEv
    template.o(.ARM.exidx) refers to template.o(i._ZN4Page8Template19onViewWillDisappearEv) for i._ZN4Page8Template19onViewWillDisappearEv
    template.o(.ARM.exidx) refers to template.o(i._ZN4Page8Template18onViewDidDisappearEv) for i._ZN4Page8Template18onViewDidDisappearEv
    template.o(.ARM.exidx) refers to template.o(i._ZN4Page8Template12onViewUnloadEv) for i._ZN4Page8Template12onViewUnloadEv
    template.o(.ARM.exidx) refers to template.o(i._ZN4Page8Template15onViewDidUnloadEv) for i._ZN4Page8Template15onViewDidUnloadEv
    templatemodel.o(i._ZN4Page13TemplateModel7GetDataEv) refers to lv_hal_tick.o(i.lv_tick_get) for lv_tick_get
    templatemodel.o(.ARM.exidx) refers to templatemodel.o(i._ZN4Page13TemplateModel7GetDataEv) for i._ZN4Page13TemplateModel7GetDataEv
    templateview.o(i._ZN4Page12TemplateView6CreateEP9_lv_obj_t) refers to lv_label.o(i.lv_label_create) for lv_label_create
    templateview.o(i._ZN4Page12TemplateView6CreateEP9_lv_obj_t) refers to lv_obj_pos.o(i.lv_obj_align) for lv_obj_align
    templateview.o(i._ZN4Page12TemplateView6CreateEP9_lv_obj_t) refers to lv_label.o(i.lv_label_set_text) for lv_label_set_text
    templateview.o(.ARM.exidx) refers to templateview.o(i._ZN4Page12TemplateView6CreateEP9_lv_obj_t) for i._ZN4Page12TemplateView6CreateEP9_lv_obj_t
    resourcepool.o(i._ZN12ResourcePool4InitEv) refers to resourcepool.o(i._ZN38_INTERNAL_16_ResourcePool_cpp_3959e92913Resource_InitEv) for [local to ResourcePool_cpp]::Resource_Init()
    resourcepool.o(i._ZN12ResourcePool4InitEv) refers to resourcemanager.o(i._ZN15ResourceManager10SetDefaultEPv) for ResourceManager::SetDefault(void*)
    resourcepool.o(i._ZN12ResourcePool4InitEv) refers to lv_font_montserrat_10.o(.constdata) for lv_font_montserrat_10
    resourcepool.o(i._ZN12ResourcePool4InitEv) refers to resourcepool.o(.bss) for .bss
    resourcepool.o(i._ZN12ResourcePool7GetFontEPKc) refers to resourcemanager.o(i._ZN15ResourceManager11GetResourceEPKc) for ResourceManager::GetResource(const char*)
    resourcepool.o(i._ZN12ResourcePool7GetFontEPKc) refers to resourcepool.o(.bss) for .bss
    resourcepool.o(i._ZN12ResourcePool8GetImageEPKc) refers to resourcemanager.o(i._ZN15ResourceManager11GetResourceEPKc) for ResourceManager::GetResource(const char*)
    resourcepool.o(i._ZN12ResourcePool8GetImageEPKc) refers to resourcepool.o(.bss) for .bss
    resourcepool.o(i._ZN38_INTERNAL_16_ResourcePool_cpp_3959e92913Resource_InitEv) refers to resourcemanager.o(i._ZN15ResourceManager11AddResourceEPKcPv) for ResourceManager::AddResource(const char*, void*)
    resourcepool.o(i._ZN38_INTERNAL_16_ResourcePool_cpp_3959e92913Resource_InitEv) refers to font_bahnschrift_13.o(.constdata) for font_bahnschrift_13
    resourcepool.o(i._ZN38_INTERNAL_16_ResourcePool_cpp_3959e92913Resource_InitEv) refers to resourcepool.o(.bss) for .bss
    resourcepool.o(i._ZN38_INTERNAL_16_ResourcePool_cpp_3959e92913Resource_InitEv) refers to font_bahnschrift_17.o(.constdata) for font_bahnschrift_17
    resourcepool.o(i._ZN38_INTERNAL_16_ResourcePool_cpp_3959e92913Resource_InitEv) refers to font_bahnschrift_32.o(.constdata) for font_bahnschrift_32
    resourcepool.o(i._ZN38_INTERNAL_16_ResourcePool_cpp_3959e92913Resource_InitEv) refers to font_bahnschrift_65.o(.constdata) for font_bahnschrift_65
    resourcepool.o(i._ZN38_INTERNAL_16_ResourcePool_cpp_3959e92913Resource_InitEv) refers to font_agencyb_36.o(.constdata) for font_agencyb_36
    resourcepool.o(i._ZN38_INTERNAL_16_ResourcePool_cpp_3959e92913Resource_InitEv) refers to img_src_alarm.o(.constdata) for img_src_alarm
    resourcepool.o(i._ZN38_INTERNAL_16_ResourcePool_cpp_3959e92913Resource_InitEv) refers to img_src_battery.o(.constdata) for img_src_battery
    resourcepool.o(i._ZN38_INTERNAL_16_ResourcePool_cpp_3959e92913Resource_InitEv) refers to img_src_battery_info.o(.constdata) for img_src_battery_info
    resourcepool.o(i._ZN38_INTERNAL_16_ResourcePool_cpp_3959e92913Resource_InitEv) refers to img_src_bicycle.o(.constdata) for img_src_bicycle
    resourcepool.o(i._ZN38_INTERNAL_16_ResourcePool_cpp_3959e92913Resource_InitEv) refers to img_src_compass.o(.constdata) for img_src_compass
    resourcepool.o(i._ZN38_INTERNAL_16_ResourcePool_cpp_3959e92913Resource_InitEv) refers to img_src_gps_arrow_default.o(.constdata) for img_src_gps_arrow_default
    resourcepool.o(i._ZN38_INTERNAL_16_ResourcePool_cpp_3959e92913Resource_InitEv) refers to img_src_gps_arrow_dark.o(.constdata) for img_src_gps_arrow_dark
    resourcepool.o(i._ZN38_INTERNAL_16_ResourcePool_cpp_3959e92913Resource_InitEv) refers to img_src_gps_arrow_light.o(.constdata) for img_src_gps_arrow_light
    resourcepool.o(i._ZN38_INTERNAL_16_ResourcePool_cpp_3959e92913Resource_InitEv) refers to img_src_gps_pin.o(.constdata) for img_src_gps_pin
    resourcepool.o(i._ZN38_INTERNAL_16_ResourcePool_cpp_3959e92913Resource_InitEv) refers to img_src_gyroscope.o(.constdata) for img_src_gyroscope
    resourcepool.o(i._ZN38_INTERNAL_16_ResourcePool_cpp_3959e92913Resource_InitEv) refers to img_src_locate.o(.constdata) for img_src_locate
    resourcepool.o(i._ZN38_INTERNAL_16_ResourcePool_cpp_3959e92913Resource_InitEv) refers to img_src_map_location.o(.constdata) for img_src_map_location
    resourcepool.o(i._ZN38_INTERNAL_16_ResourcePool_cpp_3959e92913Resource_InitEv) refers to img_src_menu.o(.constdata) for img_src_menu
    resourcepool.o(i._ZN38_INTERNAL_16_ResourcePool_cpp_3959e92913Resource_InitEv) refers to img_src_origin_point.o(.constdata) for img_src_origin_point
    resourcepool.o(i._ZN38_INTERNAL_16_ResourcePool_cpp_3959e92913Resource_InitEv) refers to img_src_pause.o(.constdata) for img_src_pause
    resourcepool.o(i._ZN38_INTERNAL_16_ResourcePool_cpp_3959e92913Resource_InitEv) refers to img_src_satellite.o(.constdata) for img_src_satellite
    resourcepool.o(i._ZN38_INTERNAL_16_ResourcePool_cpp_3959e92913Resource_InitEv) refers to img_src_sd_card.o(.constdata) for img_src_sd_card
    resourcepool.o(i._ZN38_INTERNAL_16_ResourcePool_cpp_3959e92913Resource_InitEv) refers to img_src_start.o(.constdata) for img_src_start
    resourcepool.o(i._ZN38_INTERNAL_16_ResourcePool_cpp_3959e92913Resource_InitEv) refers to img_src_stop.o(.constdata) for img_src_stop
    resourcepool.o(i._ZN38_INTERNAL_16_ResourcePool_cpp_3959e92913Resource_InitEv) refers to img_src_storage.o(.constdata) for img_src_storage
    resourcepool.o(i._ZN38_INTERNAL_16_ResourcePool_cpp_3959e92913Resource_InitEv) refers to img_src_system_info.o(.constdata) for img_src_system_info
    resourcepool.o(i._ZN38_INTERNAL_16_ResourcePool_cpp_3959e92913Resource_InitEv) refers to img_src_time_info.o(.constdata) for img_src_time_info
    resourcepool.o(i._ZN38_INTERNAL_16_ResourcePool_cpp_3959e92913Resource_InitEv) refers to img_src_trip.o(.constdata) for img_src_trip
    resourcepool.o(i.__sti___16_ResourcePool_cpp_3959e929) refers to resourcemanager.o(i._ZN15ResourceManagerC1Ev) for ResourceManager::ResourceManager()
    resourcepool.o(i.__sti___16_ResourcePool_cpp_3959e929) refers to aeabi_atexit.o(.text) for __aeabi_atexit
    resourcepool.o(i.__sti___16_ResourcePool_cpp_3959e929) refers to resourcepool.o(.bss) for .bss
    resourcepool.o(i.__sti___16_ResourcePool_cpp_3959e929) refers to resourcemanager.o(i._ZN15ResourceManagerD1Ev) for ResourceManager::~ResourceManager()
    resourcepool.o(.ARM.exidx) refers to resourcepool.o(i._ZN38_INTERNAL_16_ResourcePool_cpp_3959e92913Resource_InitEv) for i._ZN38_INTERNAL_16_ResourcePool_cpp_3959e92913Resource_InitEv
    resourcepool.o(.ARM.exidx) refers to resourcepool.o(i._ZN12ResourcePool4InitEv) for i._ZN12ResourcePool4InitEv
    resourcepool.o(.ARM.exidx) refers to resourcepool.o(i._ZN12ResourcePool7GetFontEPKc) for i._ZN12ResourcePool7GetFontEPKc
    resourcepool.o(.ARM.exidx) refers to resourcepool.o(i._ZN12ResourcePool8GetImageEPKc) for i._ZN12ResourcePool8GetImageEPKc
    resourcepool.o(.ARM.exidx) refers to resourcepool.o(i.__sti___16_ResourcePool_cpp_3959e929) for i.__sti___16_ResourcePool_cpp_3959e929
    resourcepool.o(.init_array) refers to resourcepool.o(i.__sti___16_ResourcePool_cpp_3959e929) for __sti___16_ResourcePool_cpp_3959e929
    resourcepool.o(.init_array) refers to init_aeabi.o(.text) for __cpp_initialize__aeabi_
    font_bahnschrift_13.o(.constdata) refers to font_bahnschrift_13.o(.constdata) for kern_class_values
    font_bahnschrift_13.o(.constdata) refers to font_bahnschrift_13.o(.constdata) for kern_left_class_mapping
    font_bahnschrift_13.o(.constdata) refers to font_bahnschrift_13.o(.constdata) for kern_right_class_mapping
    font_bahnschrift_13.o(.constdata) refers to font_bahnschrift_13.o(.constdata) for glyph_bitmap
    font_bahnschrift_13.o(.constdata) refers to font_bahnschrift_13.o(.constdata) for glyph_dsc
    font_bahnschrift_13.o(.constdata) refers to font_bahnschrift_13.o(.constdata) for cmaps
    font_bahnschrift_13.o(.constdata) refers to font_bahnschrift_13.o(.constdata) for kern_classes
    font_bahnschrift_13.o(.constdata) refers to font_bahnschrift_13.o(.data) for cache
    font_bahnschrift_13.o(.constdata) refers to lv_font_fmt_txt.o(i.lv_font_get_glyph_dsc_fmt_txt) for lv_font_get_glyph_dsc_fmt_txt
    font_bahnschrift_13.o(.constdata) refers to lv_font_fmt_txt.o(i.lv_font_get_bitmap_fmt_txt) for lv_font_get_bitmap_fmt_txt
    font_bahnschrift_13.o(.constdata) refers to font_bahnschrift_13.o(.constdata) for font_dsc
    font_bahnschrift_17.o(.constdata) refers to font_bahnschrift_17.o(.constdata) for kern_class_values
    font_bahnschrift_17.o(.constdata) refers to font_bahnschrift_17.o(.constdata) for kern_left_class_mapping
    font_bahnschrift_17.o(.constdata) refers to font_bahnschrift_17.o(.constdata) for kern_right_class_mapping
    font_bahnschrift_17.o(.constdata) refers to font_bahnschrift_17.o(.constdata) for glyph_bitmap
    font_bahnschrift_17.o(.constdata) refers to font_bahnschrift_17.o(.constdata) for glyph_dsc
    font_bahnschrift_17.o(.constdata) refers to font_bahnschrift_17.o(.constdata) for cmaps
    font_bahnschrift_17.o(.constdata) refers to font_bahnschrift_17.o(.constdata) for kern_classes
    font_bahnschrift_17.o(.constdata) refers to font_bahnschrift_17.o(.data) for cache
    font_bahnschrift_17.o(.constdata) refers to lv_font_fmt_txt.o(i.lv_font_get_glyph_dsc_fmt_txt) for lv_font_get_glyph_dsc_fmt_txt
    font_bahnschrift_17.o(.constdata) refers to lv_font_fmt_txt.o(i.lv_font_get_bitmap_fmt_txt) for lv_font_get_bitmap_fmt_txt
    font_bahnschrift_17.o(.constdata) refers to font_bahnschrift_17.o(.constdata) for font_dsc
    font_bahnschrift_32.o(.constdata) refers to font_bahnschrift_32.o(.constdata) for glyph_id_ofs_list_0
    font_bahnschrift_32.o(.constdata) refers to font_bahnschrift_32.o(.constdata) for kern_pair_glyph_ids
    font_bahnschrift_32.o(.constdata) refers to font_bahnschrift_32.o(.constdata) for kern_pair_values
    font_bahnschrift_32.o(.constdata) refers to font_bahnschrift_32.o(.constdata) for glyph_bitmap
    font_bahnschrift_32.o(.constdata) refers to font_bahnschrift_32.o(.constdata) for glyph_dsc
    font_bahnschrift_32.o(.constdata) refers to font_bahnschrift_32.o(.constdata) for cmaps
    font_bahnschrift_32.o(.constdata) refers to font_bahnschrift_32.o(.constdata) for kern_pairs
    font_bahnschrift_32.o(.constdata) refers to font_bahnschrift_32.o(.data) for cache
    font_bahnschrift_32.o(.constdata) refers to lv_font_fmt_txt.o(i.lv_font_get_glyph_dsc_fmt_txt) for lv_font_get_glyph_dsc_fmt_txt
    font_bahnschrift_32.o(.constdata) refers to lv_font_fmt_txt.o(i.lv_font_get_bitmap_fmt_txt) for lv_font_get_bitmap_fmt_txt
    font_bahnschrift_32.o(.constdata) refers to font_bahnschrift_32.o(.constdata) for font_dsc
    font_bahnschrift_65.o(.constdata) refers to font_bahnschrift_65.o(.constdata) for glyph_id_ofs_list_0
    font_bahnschrift_65.o(.constdata) refers to font_bahnschrift_65.o(.constdata) for kern_pair_glyph_ids
    font_bahnschrift_65.o(.constdata) refers to font_bahnschrift_65.o(.constdata) for kern_pair_values
    font_bahnschrift_65.o(.constdata) refers to font_bahnschrift_65.o(.constdata) for glyph_bitmap
    font_bahnschrift_65.o(.constdata) refers to font_bahnschrift_65.o(.constdata) for glyph_dsc
    font_bahnschrift_65.o(.constdata) refers to font_bahnschrift_65.o(.constdata) for cmaps
    font_bahnschrift_65.o(.constdata) refers to font_bahnschrift_65.o(.constdata) for kern_pairs
    font_bahnschrift_65.o(.constdata) refers to font_bahnschrift_65.o(.data) for cache
    font_bahnschrift_65.o(.constdata) refers to lv_font_fmt_txt.o(i.lv_font_get_glyph_dsc_fmt_txt) for lv_font_get_glyph_dsc_fmt_txt
    font_bahnschrift_65.o(.constdata) refers to lv_font_fmt_txt.o(i.lv_font_get_bitmap_fmt_txt) for lv_font_get_bitmap_fmt_txt
    font_bahnschrift_65.o(.constdata) refers to font_bahnschrift_65.o(.constdata) for font_dsc
    font_agencyb_36.o(.constdata) refers to font_agencyb_36.o(.constdata) for unicode_list_0
    font_agencyb_36.o(.constdata) refers to font_agencyb_36.o(.constdata) for glyph_bitmap
    font_agencyb_36.o(.constdata) refers to font_agencyb_36.o(.constdata) for glyph_dsc
    font_agencyb_36.o(.constdata) refers to font_agencyb_36.o(.constdata) for cmaps
    font_agencyb_36.o(.constdata) refers to font_agencyb_36.o(.data) for cache
    font_agencyb_36.o(.constdata) refers to lv_font_fmt_txt.o(i.lv_font_get_glyph_dsc_fmt_txt) for lv_font_get_glyph_dsc_fmt_txt
    font_agencyb_36.o(.constdata) refers to lv_font_fmt_txt.o(i.lv_font_get_bitmap_fmt_txt) for lv_font_get_bitmap_fmt_txt
    font_agencyb_36.o(.constdata) refers to font_agencyb_36.o(.constdata) for font_dsc
    img_src_gps_arrow_dark.o(.constdata) refers to img_src_gps_arrow_dark.o(.constdata) for img_src_gps_arrow_dark_map
    img_src_gps_arrow_default.o(.constdata) refers to img_src_gps_arrow_default.o(.constdata) for img_src_gps_arrow_default_map
    img_src_gps_arrow_light.o(.constdata) refers to img_src_gps_arrow_light.o(.constdata) for img_src_gps_arrow_light_map
    img_src_gps_pin.o(.constdata) refers to img_src_gps_pin.o(.constdata) for img_src_gps_pin_map
    img_src_alarm.o(.constdata) refers to img_src_alarm.o(.constdata) for img_src_alarm_map
    img_src_battery.o(.constdata) refers to img_src_battery.o(.constdata) for img_src_battery_map
    img_src_locate.o(.constdata) refers to img_src_locate.o(.constdata) for img_src_locate_map
    img_src_menu.o(.constdata) refers to img_src_menu.o(.constdata) for img_src_menu_map
    img_src_origin_point.o(.constdata) refers to img_src_origin_point.o(.constdata) for img_src_origin_point_map
    img_src_satellite.o(.constdata) refers to img_src_satellite.o(.constdata) for img_src_satellite_map
    img_src_stop.o(.constdata) refers to img_src_stop.o(.constdata) for img_src_stop_map
    img_src_trip.o(.constdata) refers to img_src_trip.o(.constdata) for img_src_trip_map
    img_src_pause.o(.constdata) refers to img_src_pause.o(.constdata) for img_src_pause_map
    img_src_start.o(.constdata) refers to img_src_start.o(.constdata) for img_src_start_map
    img_src_battery_info.o(.constdata) refers to img_src_battery_info.o(.constdata) for img_src_battery_info_map
    img_src_bicycle.o(.constdata) refers to img_src_bicycle.o(.constdata) for img_src_bicycle_map
    img_src_compass.o(.constdata) refers to img_src_compass.o(.constdata) for img_src_compass_map
    img_src_gyroscope.o(.constdata) refers to img_src_gyroscope.o(.constdata) for img_src_gyroscope_map
    img_src_map_location.o(.constdata) refers to img_src_map_location.o(.constdata) for img_src_map_location_map
    img_src_storage.o(.constdata) refers to img_src_storage.o(.constdata) for img_src_storage_map
    img_src_system_info.o(.constdata) refers to img_src_system_info.o(.constdata) for img_src_system_info_map
    img_src_time_info.o(.constdata) refers to img_src_time_info.o(.constdata) for img_src_time_info_map
    img_src_sd_card.o(.constdata) refers to img_src_sd_card.o(.constdata) for img_src_sd_card_map
    account.o(i._ZN7Account11UnsubscribeEPKc) refers to datacenter.o(i._ZN10DataCenter4FindEPSt6vectorIP7AccountSaIS2_EEPKc) for DataCenter::Find(std::vector<Account*, std::allocator<Account*>>*, const char*)
    account.o(i._ZN7Account11UnsubscribeEPKc) refers to datacenter.o(i._ZN10DataCenter6RemoveEPSt6vectorIP7AccountSaIS2_EES2_) for DataCenter::Remove(std::vector<Account*, std::allocator<Account*>>*, Account*)
    account.o(i._ZN7Account14SetTimerEnableEb) refers to lv_timer.o(i.lv_timer_resume) for lv_timer_resume
    account.o(i._ZN7Account14SetTimerEnableEb) refers to lv_timer.o(i.lv_timer_pause) for lv_timer_pause
    account.o(i._ZN7Account14SetTimerPeriodEj) refers to lv_timer.o(i.lv_timer_del) for lv_timer_del
    account.o(i._ZN7Account14SetTimerPeriodEj) refers to lv_timer.o(i.lv_timer_create) for lv_timer_create
    account.o(i._ZN7Account14SetTimerPeriodEj) refers to account.o(i._ZN7Account20TimerCallbackHandlerEP11_lv_timer_t) for Account::TimerCallbackHandler(_lv_timer_t*)
    account.o(i._ZN7Account4PullEPKcPvj) refers to datacenter.o(i._ZN10DataCenter4FindEPSt6vectorIP7AccountSaIS2_EEPKc) for DataCenter::Find(std::vector<Account*, std::allocator<Account*>>*, const char*)
    account.o(i._ZN7Account4PullEPKcPvj) refers to account.o(i._ZN7Account4PullEPS_Pvj) for Account::Pull(Account*, void*, unsigned)
    account.o(i._ZN7Account4PullEPS_Pvj) refers to pingpongbuffer.o(i.PingPongBuffer_GetReadBuf) for PingPongBuffer_GetReadBuf
    account.o(i._ZN7Account4PullEPS_Pvj) refers to rt_memcpy_v6.o(.text) for __aeabi_memcpy
    account.o(i._ZN7Account4PullEPS_Pvj) refers to pingpongbuffer.o(i.PingPongBuffer_SetReadDone) for PingPongBuffer_SetReadDone
    account.o(i._ZN7Account6CommitEPKvj) refers to pingpongbuffer.o(i.PingPongBuffer_GetWriteBuf) for PingPongBuffer_GetWriteBuf
    account.o(i._ZN7Account6CommitEPKvj) refers to rt_memcpy_v6.o(.text) for __aeabi_memcpy
    account.o(i._ZN7Account6CommitEPKvj) refers to pingpongbuffer.o(i.PingPongBuffer_SetWriteDone) for PingPongBuffer_SetWriteDone
    account.o(i._ZN7Account6NotifyEPKcPKvj) refers to datacenter.o(i._ZN10DataCenter4FindEPSt6vectorIP7AccountSaIS2_EEPKc) for DataCenter::Find(std::vector<Account*, std::allocator<Account*>>*, const char*)
    account.o(i._ZN7Account6NotifyEPKcPKvj) refers to account.o(i._ZN7Account6NotifyEPS_PKvj) for Account::Notify(Account*, const void*, unsigned)
    account.o(i._ZN7Account7PublishEv) refers to pingpongbuffer.o(i.PingPongBuffer_GetReadBuf) for PingPongBuffer_GetReadBuf
    account.o(i._ZN7Account7PublishEv) refers to pingpongbuffer.o(i.PingPongBuffer_SetReadDone) for PingPongBuffer_SetReadDone
    account.o(i._ZN7Account9SubscribeEPKc) refers to strcmpv7m.o(.text) for strcmp
    account.o(i._ZN7Account9SubscribeEPKc) refers to datacenter.o(i._ZN10DataCenter4FindEPSt6vectorIP7AccountSaIS2_EEPKc) for DataCenter::Find(std::vector<Account*, std::allocator<Account*>>*, const char*)
    account.o(i._ZN7Account9SubscribeEPKc) refers to datacenter.o(i._ZN10DataCenter13SearchAccountEPKc) for DataCenter::SearchAccount(const char*)
    account.o(i._ZN7Account9SubscribeEPKc) refers to account.o(t._ZNSt6vectorIP7AccountSaIS1_EE9push_backERKS1_) for std::vector<Account*, std::allocator<Account*>>::push_back(Account*const &)
    account.o(i._ZN7AccountC1EPKcP10DataCenterjPv) refers to account.o(t._ZNSt6vectorIP7AccountSaIS1_EEC1ERKS2_) for std::vector<Account*, std::allocator<Account*>>::vector(const std::allocator<Account*>&)
    account.o(i._ZN7AccountC1EPKcP10DataCenterjPv) refers to rt_memclr_w.o(.text) for __aeabi_memclr4
    account.o(i._ZN7AccountC1EPKcP10DataCenterjPv) refers to new.o(i._Znaj) for operator new[] (unsigned)
    account.o(i._ZN7AccountC1EPKcP10DataCenterjPv) refers to rt_memclr.o(.text) for __aeabi_memclr
    account.o(i._ZN7AccountC1EPKcP10DataCenterjPv) refers to pingpongbuffer.o(i.PingPongBuffer_Init) for PingPongBuffer_Init
    account.o(i._ZN7AccountC1EPKcP10DataCenterjPv) refers to datacenter.o(i._ZN10DataCenter10AddAccountEP7Account) for DataCenter::AddAccount(Account*)
    account.o(i._ZN7AccountC1EPKcP10DataCenterjPv) refers to new.o(i._ZdaPv) for operator delete[] (void*)
    account.o(i._ZN7AccountD1Ev) refers to new.o(i._ZdlPv) for operator delete (void*)
    account.o(i._ZN7AccountD1Ev) refers to lv_timer.o(i.lv_timer_del) for lv_timer_del
    account.o(i._ZN7AccountD1Ev) refers to account.o(i._ZN7Account11UnsubscribeEPKc) for Account::Unsubscribe(const char*)
    account.o(i._ZN7AccountD1Ev) refers to datacenter.o(i._ZN10DataCenter6RemoveEPSt6vectorIP7AccountSaIS2_EES2_) for DataCenter::Remove(std::vector<Account*, std::allocator<Account*>>*, Account*)
    account.o(i._ZN7AccountD1Ev) refers to datacenter.o(i._ZN10DataCenter13RemoveAccountEP7Account) for DataCenter::RemoveAccount(Account*)
    account.o(i._ZN7AccountD1Ev) refers to account.o(t._ZNSt6vectorIP7AccountSaIS1_EED1Ev) for std::vector<Account*, std::allocator<Account*>>::~vector()
    account.o(.ARM.exidx) refers to account.o(i._ZN7AccountC1EPKcP10DataCenterjPv) for i._ZN7AccountC1EPKcP10DataCenterjPv
    account.o(.ARM.exidx) refers to account.o(i._ZN7Account11UnsubscribeEPKc) for i._ZN7Account11UnsubscribeEPKc
    account.o(.ARM.exidx) refers to account.o(i._ZN7AccountD1Ev) for i._ZN7AccountD1Ev
    account.o(.ARM.exidx) refers to account.o(i._ZN7Account9SubscribeEPKc) for i._ZN7Account9SubscribeEPKc
    account.o(.ARM.exidx) refers to account.o(i._ZN7Account6CommitEPKvj) for i._ZN7Account6CommitEPKvj
    account.o(.ARM.exidx) refers to account.o(i._ZN7Account7PublishEv) for i._ZN7Account7PublishEv
    account.o(.ARM.exidx) refers to account.o(i._ZN7Account4PullEPS_Pvj) for i._ZN7Account4PullEPS_Pvj
    account.o(.ARM.exidx) refers to account.o(i._ZN7Account4PullEPKcPvj) for i._ZN7Account4PullEPKcPvj
    account.o(.ARM.exidx) refers to account.o(i._ZN7Account6NotifyEPS_PKvj) for i._ZN7Account6NotifyEPS_PKvj
    account.o(.ARM.exidx) refers to account.o(i._ZN7Account6NotifyEPKcPKvj) for i._ZN7Account6NotifyEPKcPKvj
    account.o(.ARM.exidx) refers to account.o(i._ZN7Account16SetEventCallbackEPFiPS_PNS_12EventParam_tEE) for i._ZN7Account16SetEventCallbackEPFiPS_PNS_12EventParam_tEE
    account.o(.ARM.exidx) refers to account.o(i._ZN7Account20TimerCallbackHandlerEP11_lv_timer_t) for i._ZN7Account20TimerCallbackHandlerEP11_lv_timer_t
    account.o(.ARM.exidx) refers to account.o(i._ZN7Account14SetTimerPeriodEj) for i._ZN7Account14SetTimerPeriodEj
    account.o(.ARM.exidx) refers to account.o(i._ZN7Account14SetTimerEnableEb) for i._ZN7Account14SetTimerEnableEb
    account.o(.ARM.exidx) refers to account.o(i._ZN7Account17GetPublishersSizeEv) for i._ZN7Account17GetPublishersSizeEv
    account.o(.ARM.exidx) refers to account.o(i._ZN7Account18GetSubscribersSizeEv) for i._ZN7Account18GetSubscribersSizeEv
    datacenter.o(i._ZN10DataCenter10AddAccountEP7Account) refers to datacenter.o(i._ZN10DataCenter13SearchAccountEPKc) for DataCenter::SearchAccount(const char*)
    datacenter.o(i._ZN10DataCenter10AddAccountEP7Account) refers to account.o(t._ZNSt6vectorIP7AccountSaIS1_EE13_C_insert_auxEPS1_RKS1_) for std::vector<Account*, std::allocator<Account*>>::_C_insert_aux(Account**, Account*const &)
    datacenter.o(i._ZN10DataCenter10AddAccountEP7Account) refers to account.o(i._ZN7Account9SubscribeEPKc) for Account::Subscribe(const char*)
    datacenter.o(i._ZN10DataCenter13RemoveAccountEP7Account) refers to datacenter.o(i._ZN10DataCenter6RemoveEPSt6vectorIP7AccountSaIS2_EES2_) for DataCenter::Remove(std::vector<Account*, std::allocator<Account*>>*, Account*)
    datacenter.o(i._ZN10DataCenter13SearchAccountEPKc) refers to datacenter.o(i._ZN10DataCenter4FindEPSt6vectorIP7AccountSaIS2_EEPKc) for DataCenter::Find(std::vector<Account*, std::allocator<Account*>>*, const char*)
    datacenter.o(i._ZN10DataCenter4FindEPSt6vectorIP7AccountSaIS2_EEPKc) refers to strcmpv7m.o(.text) for strcmp
    datacenter.o(i._ZN10DataCenterC1EPKc) refers to account.o(i._ZN7AccountC1EPKcP10DataCenterjPv) for Account::Account(const char*, DataCenter*, unsigned, void*)
    datacenter.o(i._ZN10DataCenterD1Ev) refers to rwalloc.o(i._ZN4__rw15__rw_deallocateEPvji) for __rw::__rw_deallocate(void*, unsigned, int)
    datacenter.o(i._ZN10DataCenterD1Ev) refers to account.o(i._ZN7AccountD1Ev) for Account::~Account()
    datacenter.o(.ARM.exidx) refers to datacenter.o(i._ZN10DataCenterC1EPKc) for i._ZN10DataCenterC1EPKc
    datacenter.o(.ARM.exidx) refers to datacenter.o(i._ZN10DataCenterD1Ev) for i._ZN10DataCenterD1Ev
    datacenter.o(.ARM.exidx) refers to datacenter.o(i._ZN10DataCenter4FindEPSt6vectorIP7AccountSaIS2_EEPKc) for i._ZN10DataCenter4FindEPSt6vectorIP7AccountSaIS2_EEPKc
    datacenter.o(.ARM.exidx) refers to datacenter.o(i._ZN10DataCenter13SearchAccountEPKc) for i._ZN10DataCenter13SearchAccountEPKc
    datacenter.o(.ARM.exidx) refers to datacenter.o(i._ZN10DataCenter10AddAccountEP7Account) for i._ZN10DataCenter10AddAccountEP7Account
    datacenter.o(.ARM.exidx) refers to datacenter.o(i._ZN10DataCenter6RemoveEPSt6vectorIP7AccountSaIS2_EES2_) for i._ZN10DataCenter6RemoveEPSt6vectorIP7AccountSaIS2_EES2_
    datacenter.o(.ARM.exidx) refers to datacenter.o(i._ZN10DataCenter13RemoveAccountEP7Account) for i._ZN10DataCenter13RemoveAccountEP7Account
    datacenter.o(.ARM.exidx) refers to datacenter.o(i._ZN10DataCenter13GetAccountLenEv) for i._ZN10DataCenter13GetAccountLenEv
    pingpongbuffer.o(.ARM.exidx) refers to pingpongbuffer.o(i.PingPongBuffer_Init) for i.PingPongBuffer_Init
    pingpongbuffer.o(.ARM.exidx) refers to pingpongbuffer.o(i.PingPongBuffer_GetReadBuf) for i.PingPongBuffer_GetReadBuf
    pingpongbuffer.o(.ARM.exidx) refers to pingpongbuffer.o(i.PingPongBuffer_SetReadDone) for i.PingPongBuffer_SetReadDone
    pingpongbuffer.o(.ARM.exidx) refers to pingpongbuffer.o(i.PingPongBuffer_GetWriteBuf) for i.PingPongBuffer_GetWriteBuf
    pingpongbuffer.o(.ARM.exidx) refers to pingpongbuffer.o(i.PingPongBuffer_SetWriteDone) for i.PingPongBuffer_SetWriteDone
    gpx.o(i._ZN3GPX11getMetaDataEv) refers to wstring.o(i._ZN6StringC1EPKc) for String::String(const char*)
    gpx.o(i._ZN3GPX11getMetaDataEv) refers to gpx.o(i._ZN15StringSumHelperC1ERK6String) for StringSumHelper::StringSumHelper(const String&)
    gpx.o(i._ZN3GPX11getMetaDataEv) refers to wstring.o(i._ZplRK15StringSumHelperRK6String) for operator +(const StringSumHelper&, const String&)
    gpx.o(i._ZN3GPX11getMetaDataEv) refers to wstring.o(i._ZN6StringaSERKS_) for String::operator =(const String&)
    gpx.o(i._ZN3GPX11getMetaDataEv) refers to wstring.o(i._ZN6StringD1Ev) for String::~String()
    gpx.o(i._ZN3GPX11getMetaDataEv) refers to wstring.o(i._ZN6StringC1ERKS_) for String::String(const String&)
    gpx.o(i._ZN3GPX11getMetaDataEv) refers to gpx.o(i._ZN3GPX9wrapCDATAE6String) for GPX::wrapCDATA(String)
    gpx.o(i._ZN3GPX11getTrakOpenEv) refers to wstring.o(i._ZN6StringC1EPKc) for String::String(const char*)
    gpx.o(i._ZN3GPX11setMetaDescE6String) refers to wstring.o(i._ZN6StringaSERKS_) for String::operator =(const String&)
    gpx.o(i._ZN3GPX11setMetaNameE6String) refers to wstring.o(i._ZN6StringaSERKS_) for String::operator =(const String&)
    gpx.o(i._ZN3GPX12getTrakCloseEv) refers to wstring.o(i._ZN6StringC1EPKc) for String::String(const char*)
    gpx.o(i._ZN3GPX14getTrakSegOpenEv) refers to wstring.o(i._ZN6StringC1EPKc) for String::String(const char*)
    gpx.o(i._ZN3GPX15getTrakSegCloseEv) refers to wstring.o(i._ZN6StringC1EPKc) for String::String(const char*)
    gpx.o(i._ZN3GPX5getPtE6StringS0_S0_) refers to wstring.o(i._ZN6StringC1EPKc) for String::String(const char*)
    gpx.o(i._ZN3GPX5getPtE6StringS0_S0_) refers to wstring.o(i._ZN6String7replaceERKS_S1_) for String::replace(const String&, const String&)
    gpx.o(i._ZN3GPX5getPtE6StringS0_S0_) refers to wstring.o(i._ZN6StringD1Ev) for String::~String()
    gpx.o(i._ZN3GPX5getPtE6StringS0_S0_) refers to gpx.o(i._ZN15StringSumHelperC1ERK6String) for StringSumHelper::StringSumHelper(const String&)
    gpx.o(i._ZN3GPX5getPtE6StringS0_S0_) refers to wstring.o(i._ZplRK15StringSumHelperPKc) for operator +(const StringSumHelper&, const char*)
    gpx.o(i._ZN3GPX5getPtE6StringS0_S0_) refers to gpx.o(i._ZN6StringpLERKS_) for String::operator +=(const String&)
    gpx.o(i._ZN3GPX5getPtE6StringS0_S0_) refers to gpx.o(i._ZN6StringpLEPKc) for String::operator +=(const char*)
    gpx.o(i._ZN3GPX5getPtE6StringS0_S0_) refers to wstring.o(i._ZN6StringC1ERKS_) for String::String(const String&)
    gpx.o(i._ZN3GPX5getPtE6StringS0_S0_) refers to gpx.o(i._ZN3GPX9wrapCDATAE6String) for GPX::wrapCDATA(String)
    gpx.o(i._ZN3GPX5getPtE6StringS0_S0_S0_) refers to wstring.o(i._ZN6StringC1ERKS_) for String::String(const String&)
    gpx.o(i._ZN3GPX5getPtE6StringS0_S0_S0_) refers to gpx.o(i._ZN3GPX5getPtE6StringS0_S0_) for GPX::getPt(String, String, String)
    gpx.o(i._ZN3GPX5getPtE6StringS0_S0_S0_) refers to wstring.o(i._ZN6StringD1Ev) for String::~String()
    gpx.o(i._ZN3GPX6setEleE6String) refers to wstring.o(i._ZN6StringaSERKS_) for String::operator =(const String&)
    gpx.o(i._ZN3GPX6setSrcE6String) refers to wstring.o(i._ZN6StringaSERKS_) for String::operator =(const String&)
    gpx.o(i._ZN3GPX6setSymE6String) refers to wstring.o(i._ZN6StringaSERKS_) for String::operator =(const String&)
    gpx.o(i._ZN3GPX7getInfoEv) refers to wstring.o(i._ZN6StringC1EPKc) for String::String(const char*)
    gpx.o(i._ZN3GPX7getInfoEv) refers to gpx.o(i._ZN6StringpLEPKc) for String::operator +=(const char*)
    gpx.o(i._ZN3GPX7getInfoEv) refers to wstring.o(i._ZN6StringC1ERKS_) for String::String(const String&)
    gpx.o(i._ZN3GPX7getInfoEv) refers to gpx.o(i._ZN3GPX9wrapCDATAE6String) for GPX::wrapCDATA(String)
    gpx.o(i._ZN3GPX7getInfoEv) refers to gpx.o(i._ZN6StringpLERKS_) for String::operator +=(const String&)
    gpx.o(i._ZN3GPX7getInfoEv) refers to wstring.o(i._ZN6StringD1Ev) for String::~String()
    gpx.o(i._ZN3GPX7getOpenEv) refers to wstring.o(i._ZN6StringC1EPKc) for String::String(const char*)
    gpx.o(i._ZN3GPX7getOpenEv) refers to gpx.o(.conststring) for .conststring
    gpx.o(i._ZN3GPX7setDescE6String) refers to wstring.o(i._ZN6StringaSERKS_) for String::operator =(const String&)
    gpx.o(i._ZN3GPX7setNameE6String) refers to wstring.o(i._ZN6StringaSERKS_) for String::operator =(const String&)
    gpx.o(i._ZN3GPX7setTimeE6String) refers to wstring.o(i._ZN6StringaSERKS_) for String::operator =(const String&)
    gpx.o(i._ZN3GPX8getCloseEv) refers to wstring.o(i._ZN6StringC1EPKc) for String::String(const char*)
    gpx.o(i._ZN3GPX9wrapCDATAE6String) refers to wstring.o(i._ZN6StringC1EPKc) for String::String(const char*)
    gpx.o(i._ZN3GPX9wrapCDATAE6String) refers to gpx.o(i._ZN6StringpLERKS_) for String::operator +=(const String&)
    gpx.o(i._ZN3GPX9wrapCDATAE6String) refers to gpx.o(i._ZN6StringpLEPKc) for String::operator +=(const char*)
    gpx.o(i._ZN3GPXC1Ev) refers to wstring.o(i._ZN6StringC1EPKc) for String::String(const char*)
    gpx.o(.ARM.exidx) refers to gpx.o(i._ZN3GPXC1Ev) for i._ZN3GPXC1Ev
    gpx.o(.ARM.exidx) refers to gpx.o(i._ZN3GPX7getOpenEv) for i._ZN3GPX7getOpenEv
    gpx.o(.ARM.exidx) refers to gpx.o(i._ZN3GPX8getCloseEv) for i._ZN3GPX8getCloseEv
    gpx.o(.ARM.exidx) refers to gpx.o(i._ZN3GPX9wrapCDATAE6String) for i._ZN3GPX9wrapCDATAE6String
    gpx.o(.ARM.exidx) refers to gpx.o(i._ZN3GPX11getMetaDataEv) for i._ZN3GPX11getMetaDataEv
    gpx.o(.ARM.exidx) refers to gpx.o(i._ZN3GPX11getTrakOpenEv) for i._ZN3GPX11getTrakOpenEv
    gpx.o(.ARM.exidx) refers to gpx.o(i._ZN3GPX12getTrakCloseEv) for i._ZN3GPX12getTrakCloseEv
    gpx.o(.ARM.exidx) refers to gpx.o(i._ZN3GPX14getTrakSegOpenEv) for i._ZN3GPX14getTrakSegOpenEv
    gpx.o(.ARM.exidx) refers to gpx.o(i._ZN3GPX15getTrakSegCloseEv) for i._ZN3GPX15getTrakSegCloseEv
    gpx.o(.ARM.exidx) refers to gpx.o(i._ZN3GPX7getInfoEv) for i._ZN3GPX7getInfoEv
    gpx.o(.ARM.exidx) refers to gpx.o(i._ZN3GPX5getPtE6StringS0_S0_) for i._ZN3GPX5getPtE6StringS0_S0_
    gpx.o(.ARM.exidx) refers to gpx.o(i._ZN3GPX5getPtE6StringS0_S0_S0_) for i._ZN3GPX5getPtE6StringS0_S0_S0_
    gpx.o(.ARM.exidx) refers to gpx.o(i._ZN3GPX11setMetaNameE6String) for i._ZN3GPX11setMetaNameE6String
    gpx.o(.ARM.exidx) refers to gpx.o(i._ZN3GPX11setMetaDescE6String) for i._ZN3GPX11setMetaDescE6String
    gpx.o(.ARM.exidx) refers to gpx.o(i._ZN3GPX7setNameE6String) for i._ZN3GPX7setNameE6String
    gpx.o(.ARM.exidx) refers to gpx.o(i._ZN3GPX7setDescE6String) for i._ZN3GPX7setDescE6String
    gpx.o(.ARM.exidx) refers to gpx.o(i._ZN3GPX6setEleE6String) for i._ZN3GPX6setEleE6String
    gpx.o(.ARM.exidx) refers to gpx.o(i._ZN3GPX6setSymE6String) for i._ZN3GPX6setSymE6String
    gpx.o(.ARM.exidx) refers to gpx.o(i._ZN3GPX6setSrcE6String) for i._ZN3GPX6setSrcE6String
    gpx.o(.ARM.exidx) refers to gpx.o(i._ZN3GPX7setTimeE6String) for i._ZN3GPX7setTimeE6String
    gpx_parser.o(i._ZN10GPX_Parser15readStringUntilEcP6String) refers to stream.o(i._ZN6Stream14readBytesUntilEcPcj) for Stream::readBytesUntil(char, char*, unsigned)
    gpx_parser.o(i._ZN10GPX_Parser15readStringUntilEcP6String) refers to wstring.o(i._ZN6StringaSEPKc) for String::operator =(const char*)
    gpx_parser.o(i._ZN10GPX_Parser8ReadNextEPNS_7Point_tE) refers to _scanf_int.o(.text) for _scanf_int
    gpx_parser.o(i._ZN10GPX_Parser8ReadNextEPNS_7Point_tE) refers to wstring.o(i._ZN6StringC1EPKc) for String::String(const char*)
    gpx_parser.o(i._ZN10GPX_Parser8ReadNextEPNS_7Point_tE) refers to stream.o(i._ZN6Stream4findEPc) for Stream::find(char*)
    gpx_parser.o(i._ZN10GPX_Parser8ReadNextEPNS_7Point_tE) refers to gpx_parser.o(i._ZN10GPX_Parser15readStringUntilEcP6String) for GPX_Parser::readStringUntil(char, String*)
    gpx_parser.o(i._ZN10GPX_Parser8ReadNextEPNS_7Point_tE) refers to wstring.o(i._ZNK6String7indexOfERKS_) for String::indexOf(const String&) const
    gpx_parser.o(i._ZN10GPX_Parser8ReadNextEPNS_7Point_tE) refers to wstring.o(i._ZN6StringD1Ev) for String::~String()
    gpx_parser.o(i._ZN10GPX_Parser8ReadNextEPNS_7Point_tE) refers to wstring.o(i._ZNK6String7indexOfEc) for String::indexOf(char) const
    gpx_parser.o(i._ZN10GPX_Parser8ReadNextEPNS_7Point_tE) refers to gpx_parser.o(i._ZNK6String9substringEj) for String::substring(unsigned) const
    gpx_parser.o(i._ZN10GPX_Parser8ReadNextEPNS_7Point_tE) refers to wstring.o(i._ZNK6String7toFloatEv) for String::toFloat() const
    gpx_parser.o(i._ZN10GPX_Parser8ReadNextEPNS_7Point_tE) refers to wstring.o(i._ZN6StringaSERKS_) for String::operator =(const String&)
    gpx_parser.o(i._ZN10GPX_Parser8ReadNextEPNS_7Point_tE) refers to wstring.o(i._ZN6StringC1ERKS_) for String::String(const String&)
    gpx_parser.o(i._ZN10GPX_Parser8ReadNextEPNS_7Point_tE) refers to __0sscanf.o(.text) for __0sscanf
    gpx_parser.o(i._ZN10GPX_ParserC1Ev) refers to gpx_parser.o(.constdata__ZTV10GPX_Parser) for vtable for GPX_Parser
    gpx_parser.o(.ARM.exidx) refers to gpx_parser.o(i._ZN10GPX_ParserC1Ev) for i._ZN10GPX_ParserC1Ev
    gpx_parser.o(.ARM.exidx) refers to gpx_parser.o(i._ZN10GPX_ParserD1Ev) for i._ZN10GPX_ParserD1Ev
    gpx_parser.o(.ARM.exidx) refers to gpx_parser.o(i._ZN10GPX_Parser11SetCallbackEPFiPS_ES2_) for i._ZN10GPX_Parser11SetCallbackEPFiPS_ES2_
    gpx_parser.o(.ARM.exidx) refers to gpx_parser.o(i._ZN10GPX_Parser15readStringUntilEcP6String) for i._ZN10GPX_Parser15readStringUntilEcP6String
    gpx_parser.o(.ARM.exidx) refers to gpx_parser.o(i._ZN10GPX_Parser8ReadNextEPNS_7Point_tE) for i._ZN10GPX_Parser8ReadNextEPNS_7Point_tE
    gpx_parser.o(.ARM.exidx) refers to gpx_parser.o(i._ZN10GPX_Parser9availableEv) for i._ZN10GPX_Parser9availableEv
    gpx_parser.o(.ARM.exidx) refers to gpx_parser.o(i._ZN10GPX_Parser4readEv) for i._ZN10GPX_Parser4readEv
    lv_anim_label.o(i.lv_anim_label_add_style) refers to lv_obj_style.o(i.lv_obj_add_style) for lv_obj_add_style
    lv_anim_label.o(i.lv_anim_label_constructor) refers to lv_label.o(i.lv_label_create) for lv_label_create
    lv_anim_label.o(i.lv_anim_label_constructor) refers to lv_label.o(i.lv_label_set_text) for lv_label_set_text
    lv_anim_label.o(i.lv_anim_label_constructor) refers to lv_anim.o(i.lv_anim_init) for lv_anim_init
    lv_anim_label.o(i.lv_anim_label_constructor) refers to lv_anim.o(i.lv_anim_path_ease_out) for lv_anim_path_ease_out
    lv_anim_label.o(i.lv_anim_label_create) refers to lv_obj_class.o(i.lv_obj_class_create_obj) for lv_obj_class_create_obj
    lv_anim_label.o(i.lv_anim_label_create) refers to lv_obj_class.o(i.lv_obj_class_init_obj) for lv_obj_class_init_obj
    lv_anim_label.o(i.lv_anim_label_create) refers to lv_obj.o(i.lv_obj_clear_flag) for lv_obj_clear_flag
    lv_anim_label.o(i.lv_anim_label_create) refers to lv_anim_label.o(.constdata) for .constdata
    lv_anim_label.o(i.lv_anim_label_get_text) refers to lv_label.o(i.lv_label_get_text) for lv_label_get_text
    lv_anim_label.o(i.lv_anim_label_set_custom_enter_anim) refers to rt_memcpy_w.o(.text) for __aeabi_memcpy4
    lv_anim_label.o(i.lv_anim_label_set_custom_exit_anim) refers to rt_memcpy_w.o(.text) for __aeabi_memcpy4
    lv_anim_label.o(i.lv_anim_label_set_text) refers to lv_label.o(i.lv_label_set_text) for lv_label_set_text
    lv_anim_label.o(i.lv_anim_label_set_text) refers to lv_obj_pos.o(i.lv_obj_update_layout) for lv_obj_update_layout
    lv_anim_label.o(i.lv_anim_label_set_text) refers to lv_obj_pos.o(i.lv_obj_get_width) for lv_obj_get_width
    lv_anim_label.o(i.lv_anim_label_set_text) refers to lv_obj_pos.o(i.lv_obj_get_height) for lv_obj_get_height
    lv_anim_label.o(i.lv_anim_label_set_text) refers to lv_obj_pos.o(i.lv_obj_set_y) for lv_obj_set_y
    lv_anim_label.o(i.lv_anim_label_set_text) refers to lv_obj_pos.o(i.lv_obj_set_x) for lv_obj_set_x
    lv_anim_label.o(i.lv_anim_label_set_text) refers to lv_anim_label.o(i.lv_anim_label_start_anim) for lv_anim_label_start_anim
    lv_anim_label.o(i.lv_anim_label_set_text) refers to lv_obj_pos.o(i.lv_obj_set_pos) for lv_obj_set_pos
    lv_anim_label.o(i.lv_anim_label_set_text) refers to lv_anim.o(i.lv_anim_start) for lv_anim_start
    lv_anim_label.o(i.lv_anim_label_set_x) refers to lv_obj_pos.o(i.lv_obj_set_x) for lv_obj_set_x
    lv_anim_label.o(i.lv_anim_label_set_y) refers to lv_obj_pos.o(i.lv_obj_set_y) for lv_obj_set_y
    lv_anim_label.o(i.lv_anim_label_start_anim) refers to lv_anim.o(i.lv_anim_init) for lv_anim_init
    lv_anim_label.o(i.lv_anim_label_start_anim) refers to lv_anim.o(i.lv_anim_start) for lv_anim_start
    lv_anim_label.o(i.lv_anim_label_start_anim) refers to lv_anim_label.o(i.lv_anim_label_set_x) for lv_anim_label_set_x
    lv_anim_label.o(i.lv_anim_label_start_anim) refers to lv_anim_label.o(i.lv_anim_label_set_y) for lv_anim_label_set_y
    lv_anim_label.o(.constdata) refers to lv_obj.o(.constdata) for lv_obj_class
    lv_anim_label.o(.constdata) refers to lv_anim_label.o(i.lv_anim_label_constructor) for lv_anim_label_constructor
    lv_anim_timeline_wrapper.o(i.lv_anim_timeline_add_wrapper) refers to lv_anim.o(i.lv_anim_init) for lv_anim_init
    lv_anim_timeline_wrapper.o(i.lv_anim_timeline_add_wrapper) refers to lv_anim_timeline.o(i.lv_anim_timeline_add) for lv_anim_timeline_add
    lv_obj_ext_func.o(i._Z12lv_get_indev15lv_indev_type_t) refers to lv_hal_indev.o(i.lv_indev_get_next) for lv_indev_get_next
    lv_obj_ext_func.o(i._Z15lv_obj_add_animP9_lv_obj_tP10_lv_anim_tPFvPviEiitjPFvS2_EPFiPKS1_E) refers to lv_anim.o(i.lv_anim_init) for lv_anim_init
    lv_obj_ext_func.o(i._Z15lv_obj_add_animP9_lv_obj_tP10_lv_anim_tPFvPviEiitjPFvS2_EPFiPKS1_E) refers to lv_anim.o(i.lv_anim_start) for lv_anim_start
    lv_obj_ext_func.o(i._Z20lv_obj_get_opa_scaleP9_lv_obj_t) refers to lv_obj_style.o(i.lv_obj_get_style_prop) for lv_obj_get_style_prop
    lv_obj_ext_func.o(i._Z20lv_obj_set_opa_scaleP9_lv_obj_ts) refers to lv_obj_style_gen.o(i.lv_obj_set_style_bg_opa) for lv_obj_set_style_bg_opa
    lv_obj_ext_func.o(i._Z21lv_label_set_text_addP9_lv_obj_tPKc) refers to lv_label.o(i.lv_label_get_text) for lv_label_get_text
    lv_obj_ext_func.o(i._Z21lv_label_set_text_addP9_lv_obj_tPKc) refers to strlen.o(.text) for strlen
    lv_obj_ext_func.o(i._Z21lv_label_set_text_addP9_lv_obj_tPKc) refers to lv_label.o(i.lv_label_ins_text) for lv_label_ins_text
    lv_obj_ext_func.o(.ARM.exidx) refers to lv_obj_ext_func.o(i._Z20lv_obj_set_opa_scaleP9_lv_obj_ts) for i._Z20lv_obj_set_opa_scaleP9_lv_obj_ts
    lv_obj_ext_func.o(.ARM.exidx) refers to lv_obj_ext_func.o(i._Z20lv_obj_get_opa_scaleP9_lv_obj_t) for i._Z20lv_obj_get_opa_scaleP9_lv_obj_t
    lv_obj_ext_func.o(.ARM.exidx) refers to lv_obj_ext_func.o(i._Z21lv_label_set_text_addP9_lv_obj_tPKc) for i._Z21lv_label_set_text_addP9_lv_obj_tPKc
    lv_obj_ext_func.o(.ARM.exidx) refers to lv_obj_ext_func.o(i._Z15lv_obj_add_animP9_lv_obj_tP10_lv_anim_tPFvPviEiitjPFvS2_EPFiPKS1_E) for i._Z15lv_obj_add_animP9_lv_obj_tP10_lv_anim_tPFvPviEiitjPFvS2_EPFiPKS1_E
    lv_obj_ext_func.o(.ARM.exidx) refers to lv_obj_ext_func.o(i._Z12lv_get_indev15lv_indev_type_t) for i._Z12lv_get_indev15lv_indev_type_t
    lv_img_png.o(i._Z11lv_png_drawPKcP21lv_img_png_draw_dsc_t) refers to pngdec.o(i._ZN3PNG4openEPKcPFPvS1_PiEPFvS2_EPFiP12png_file_tagPhiEPFiS9_iEPFvP12png_draw_tagE) for PNG::open(const char*, void*(*)(const char*, int*), void(*)(void*), int(*)(png_file_tag*, unsigned char*, int), int(*)(png_file_tag*, int), void(*)(png_draw_tag*))
    lv_img_png.o(i._Z11lv_png_drawPKcP21lv_img_png_draw_dsc_t) refers to pngdec.o(i._ZN3PNG8getWidthEv) for PNG::getWidth()
    lv_img_png.o(i._Z11lv_png_drawPKcP21lv_img_png_draw_dsc_t) refers to lv_mem.o(i.lv_mem_buf_get) for lv_mem_buf_get
    lv_img_png.o(i._Z11lv_png_drawPKcP21lv_img_png_draw_dsc_t) refers to pngdec.o(i._ZN3PNG6decodeEPvi) for PNG::decode(void*, int)
    lv_img_png.o(i._Z11lv_png_drawPKcP21lv_img_png_draw_dsc_t) refers to lv_mem.o(i.lv_mem_buf_release) for lv_mem_buf_release
    lv_img_png.o(i._Z11lv_png_drawPKcP21lv_img_png_draw_dsc_t) refers to pngdec.o(i._ZN3PNG5closeEv) for PNG::close()
    lv_img_png.o(i._Z11lv_png_drawPKcP21lv_img_png_draw_dsc_t) refers to lv_img_png.o(i._Z13png_draw_lineP12png_draw_tag) for png_draw_line(png_draw_tag*)
    lv_img_png.o(i._Z11lv_png_drawPKcP21lv_img_png_draw_dsc_t) refers to lv_img_png.o(i._Z7fs_seekP12png_file_tagi) for fs_seek(png_file_tag*, int)
    lv_img_png.o(i._Z11lv_png_drawPKcP21lv_img_png_draw_dsc_t) refers to lv_img_png.o(i._Z7fs_readP12png_file_tagPhi) for fs_read(png_file_tag*, unsigned char*, int)
    lv_img_png.o(i._Z11lv_png_drawPKcP21lv_img_png_draw_dsc_t) refers to lv_img_png.o(i._Z8fs_closePv) for fs_close(void*)
    lv_img_png.o(i._Z11lv_png_drawPKcP21lv_img_png_draw_dsc_t) refers to lv_img_png.o(i._Z7fs_openPKcPi) for fs_open(const char*, int*)
    lv_img_png.o(i._Z11lv_png_drawPKcP21lv_img_png_draw_dsc_t) refers to lv_img_png.o(.bss) for .bss
    lv_img_png.o(i._Z13png_draw_lineP12png_draw_tag) refers to pngdec.o(i._ZN3PNG15getLineAsRGB565EP12png_draw_tagPtij) for PNG::getLineAsRGB565(png_draw_tag*, unsigned short*, int, unsigned)
    lv_img_png.o(i._Z13png_draw_lineP12png_draw_tag) refers to memcpy.o(.text) for memcpy
    lv_img_png.o(i._Z16lv_img_png_eventPK15_lv_obj_class_tP11_lv_event_t) refers to lv_event.o(i.lv_event_get_code) for lv_event_get_code
    lv_img_png.o(i._Z16lv_img_png_eventPK15_lv_obj_class_tP11_lv_event_t) refers to lv_event.o(i.lv_obj_event_base) for lv_obj_event_base
    lv_img_png.o(i._Z16lv_img_png_eventPK15_lv_obj_class_tP11_lv_event_t) refers to lv_event.o(i.lv_event_get_current_target) for lv_event_get_current_target
    lv_img_png.o(i._Z16lv_img_png_eventPK15_lv_obj_class_tP11_lv_event_t) refers to lv_event.o(i.lv_event_get_param) for lv_event_get_param
    lv_img_png.o(i._Z16lv_img_png_eventPK15_lv_obj_class_tP11_lv_event_t) refers to lv_refr.o(i._lv_refr_get_disp_refreshing) for _lv_refr_get_disp_refreshing
    lv_img_png.o(i._Z16lv_img_png_eventPK15_lv_obj_class_tP11_lv_event_t) refers to lv_hal_disp.o(i.lv_disp_get_draw_buf) for lv_disp_get_draw_buf
    lv_img_png.o(i._Z16lv_img_png_eventPK15_lv_obj_class_tP11_lv_event_t) refers to lv_hal_disp.o(i.lv_disp_get_default) for lv_disp_get_default
    lv_img_png.o(i._Z16lv_img_png_eventPK15_lv_obj_class_tP11_lv_event_t) refers to lv_hal_disp.o(i.lv_disp_get_ver_res) for lv_disp_get_ver_res
    lv_img_png.o(i._Z16lv_img_png_eventPK15_lv_obj_class_tP11_lv_event_t) refers to lv_hal_disp.o(i.lv_disp_get_hor_res) for lv_disp_get_hor_res
    lv_img_png.o(i._Z16lv_img_png_eventPK15_lv_obj_class_tP11_lv_event_t) refers to lv_area.o(i.lv_area_set) for lv_area_set
    lv_img_png.o(i._Z16lv_img_png_eventPK15_lv_obj_class_tP11_lv_event_t) refers to lv_area.o(i.lv_area_move) for lv_area_move
    lv_img_png.o(i._Z16lv_img_png_eventPK15_lv_obj_class_tP11_lv_event_t) refers to lv_img_png.o(i._Z11lv_png_drawPKcP21lv_img_png_draw_dsc_t) for lv_png_draw(const char*, lv_img_png_draw_dsc_t*)
    lv_img_png.o(i._Z16lv_img_png_eventPK15_lv_obj_class_tP11_lv_event_t) refers to lv_img_png.o(.constdata) for .constdata
    lv_img_png.o(i._Z17lv_img_png_createP9_lv_obj_t) refers to lv_obj_class.o(i.lv_obj_class_create_obj) for lv_obj_class_create_obj
    lv_img_png.o(i._Z17lv_img_png_createP9_lv_obj_t) refers to lv_obj_class.o(i.lv_obj_class_init_obj) for lv_obj_class_init_obj
    lv_img_png.o(i._Z17lv_img_png_createP9_lv_obj_t) refers to lv_obj.o(i.lv_obj_clear_flag) for lv_obj_clear_flag
    lv_img_png.o(i._Z17lv_img_png_createP9_lv_obj_t) refers to lv_img_png.o(.constdata) for .constdata
    lv_img_png.o(i._Z18lv_img_png_set_srcP9_lv_obj_tPKc) refers to strlen.o(.text) for strlen
    lv_img_png.o(i._Z18lv_img_png_set_srcP9_lv_obj_tPKc) refers to lv_mem.o(i.lv_mem_realloc) for lv_mem_realloc
    lv_img_png.o(i._Z18lv_img_png_set_srcP9_lv_obj_tPKc) refers to strcpy.o(.text) for strcpy
    lv_img_png.o(i._Z18lv_img_png_set_srcP9_lv_obj_tPKc) refers to lv_mem.o(i.lv_mem_free) for lv_mem_free
    lv_img_png.o(i._Z18lv_img_png_set_srcP9_lv_obj_tPKc) refers to lv_obj_pos.o(i.lv_obj_invalidate) for lv_obj_invalidate
    lv_img_png.o(i._Z21lv_img_png_destructorPK15_lv_obj_class_tP9_lv_obj_t) refers to lv_mem.o(i.lv_mem_free) for lv_mem_free
    lv_img_png.o(i._Z7fs_openPKcPi) refers to lv_fs.o(i.lv_fs_open) for lv_fs_open
    lv_img_png.o(i._Z7fs_openPKcPi) refers to lv_mem.o(i.lv_mem_buf_get) for lv_mem_buf_get
    lv_img_png.o(i._Z7fs_openPKcPi) refers to lv_fs.o(i.lv_fs_seek) for lv_fs_seek
    lv_img_png.o(i._Z7fs_openPKcPi) refers to lv_fs.o(i.lv_fs_tell) for lv_fs_tell
    lv_img_png.o(i._Z7fs_readP12png_file_tagPhi) refers to lv_fs.o(i.lv_fs_read) for lv_fs_read
    lv_img_png.o(i._Z7fs_seekP12png_file_tagi) refers to lv_fs.o(i.lv_fs_seek) for lv_fs_seek
    lv_img_png.o(i._Z8fs_closePv) refers to lv_fs.o(i.lv_fs_close) for lv_fs_close
    lv_img_png.o(i._Z8fs_closePv) refers to lv_mem.o(i.lv_mem_buf_release) for lv_mem_buf_release
    lv_img_png.o(.ARM.exidx) refers to lv_img_png.o(i._Z17lv_img_png_createP9_lv_obj_t) for i._Z17lv_img_png_createP9_lv_obj_t
    lv_img_png.o(.ARM.exidx) refers to lv_img_png.o(i._Z18lv_img_png_set_srcP9_lv_obj_tPKc) for i._Z18lv_img_png_set_srcP9_lv_obj_tPKc
    lv_img_png.o(.ARM.exidx) refers to lv_img_png.o(i._Z22lv_img_png_constructorPK15_lv_obj_class_tP9_lv_obj_t) for i._Z22lv_img_png_constructorPK15_lv_obj_class_tP9_lv_obj_t
    lv_img_png.o(.ARM.exidx) refers to lv_img_png.o(i._Z21lv_img_png_destructorPK15_lv_obj_class_tP9_lv_obj_t) for i._Z21lv_img_png_destructorPK15_lv_obj_class_tP9_lv_obj_t
    lv_img_png.o(.ARM.exidx) refers to lv_img_png.o(i._Z13png_draw_lineP12png_draw_tag) for i._Z13png_draw_lineP12png_draw_tag
    lv_img_png.o(.ARM.exidx) refers to lv_img_png.o(i._Z7fs_seekP12png_file_tagi) for i._Z7fs_seekP12png_file_tagi
    lv_img_png.o(.ARM.exidx) refers to lv_img_png.o(i._Z7fs_readP12png_file_tagPhi) for i._Z7fs_readP12png_file_tagPhi
    lv_img_png.o(.ARM.exidx) refers to lv_img_png.o(i._Z8fs_closePv) for i._Z8fs_closePv
    lv_img_png.o(.ARM.exidx) refers to lv_img_png.o(i._Z7fs_openPKcPi) for i._Z7fs_openPKcPi
    lv_img_png.o(.ARM.exidx) refers to lv_img_png.o(i._Z16lv_img_png_eventPK15_lv_obj_class_tP11_lv_event_t) for i._Z16lv_img_png_eventPK15_lv_obj_class_tP11_lv_event_t
    lv_img_png.o(.ARM.exidx) refers to lv_img_png.o(i._Z11lv_png_drawPKcP21lv_img_png_draw_dsc_t) for i._Z11lv_png_drawPKcP21lv_img_png_draw_dsc_t
    lv_img_png.o(.constdata) refers to lv_obj.o(.constdata) for lv_obj_class
    lv_img_png.o(.constdata) refers to lv_img_png.o(i._Z22lv_img_png_constructorPK15_lv_obj_class_tP9_lv_obj_t) for lv_img_png_constructor(const _lv_obj_class_t*, _lv_obj_t*)
    lv_img_png.o(.constdata) refers to lv_img_png.o(i._Z21lv_img_png_destructorPK15_lv_obj_class_tP9_lv_obj_t) for lv_img_png_destructor(const _lv_obj_class_t*, _lv_obj_t*)
    lv_img_png.o(.constdata) refers to lv_img_png.o(i._Z16lv_img_png_eventPK15_lv_obj_class_tP11_lv_event_t) for lv_img_png_event(const _lv_obj_class_t*, _lv_event_t*)
    adler32.o(i.adler32) refers to adler32.o(i.adler32_z) for adler32_z
    adler32.o(i.adler32_combine) refers to adler32.o(i.adler32_combine_) for adler32_combine_
    adler32.o(i.adler32_combine64) refers to adler32.o(i.adler32_combine_) for adler32_combine_
    crc32.o(i.crc32) refers to crc32.o(i.crc32_z) for crc32_z
    crc32.o(i.crc32_big) refers to crc32.o(.constdata) for .constdata
    crc32.o(i.crc32_combine) refers to crc32.o(i.crc32_combine_) for crc32_combine_
    crc32.o(i.crc32_combine64) refers to crc32.o(i.crc32_combine_) for crc32_combine_
    crc32.o(i.crc32_combine_) refers to crc32.o(i.gf2_matrix_square) for gf2_matrix_square
    crc32.o(i.crc32_combine_) refers to crc32.o(i.gf2_matrix_times) for gf2_matrix_times
    crc32.o(i.crc32_little) refers to crc32.o(.constdata) for .constdata
    crc32.o(i.crc32_z) refers to crc32.o(i.crc32_little) for crc32_little
    crc32.o(i.crc32_z) refers to crc32.o(i.crc32_big) for crc32_big
    crc32.o(i.get_crc_table) refers to crc32.o(.constdata) for .constdata
    crc32.o(i.gf2_matrix_square) refers to crc32.o(i.gf2_matrix_times) for gf2_matrix_times
    infback.o(i.inflateBack) refers to rt_memcpy_v6.o(.text) for __aeabi_memcpy
    infback.o(i.inflateBack) refers to inftrees.o(i.inflate_table) for inflate_table
    infback.o(i.inflateBack) refers to infback.o(.constdata) for .constdata
    infback.o(i.inflateBack) refers to inffast.o(i.inflate_fast) for inflate_fast
    infback.o(i.inflateBackInit_) refers to zutil.o(i.zcalloc) for zcalloc
    infback.o(i.inflateBackInit_) refers to zutil.o(i.zcfree) for zcfree
    inflate.o(i.inflate) refers to inflate.o(i.inflateStateCheck) for inflateStateCheck
    inflate.o(i.inflate) refers to crc32.o(i.crc32) for crc32
    inflate.o(i.inflate) refers to adler32.o(i.adler32) for adler32
    inflate.o(i.inflate) refers to rt_memcpy_v6.o(.text) for __aeabi_memcpy
    inflate.o(i.inflate) refers to inftrees.o(i.inflate_table) for inflate_table
    inflate.o(i.inflate) refers to inffast.o(i.inflate_fast) for inflate_fast
    inflate.o(i.inflate) refers to inflate.o(.constdata) for .constdata
    inflate.o(i.inflate) refers to inflate.o(i.updatewindow) for updatewindow
    inflate.o(i.inflateCodesUsed) refers to inflate.o(i.inflateStateCheck) for inflateStateCheck
    inflate.o(i.inflateCopy) refers to inflate.o(i.inflateStateCheck) for inflateStateCheck
    inflate.o(i.inflateCopy) refers to rt_memcpy_w.o(.text) for __aeabi_memcpy4
    inflate.o(i.inflateCopy) refers to rt_memcpy_v6.o(.text) for __aeabi_memcpy
    inflate.o(i.inflateEnd) refers to inflate.o(i.inflateStateCheck) for inflateStateCheck
    inflate.o(i.inflateGetDictionary) refers to inflate.o(i.inflateStateCheck) for inflateStateCheck
    inflate.o(i.inflateGetDictionary) refers to rt_memcpy_v6.o(.text) for __aeabi_memcpy
    inflate.o(i.inflateGetHeader) refers to inflate.o(i.inflateStateCheck) for inflateStateCheck
    inflate.o(i.inflateInit2_) refers to inflate.o(i.inflateReset2) for inflateReset2
    inflate.o(i.inflateInit2_) refers to zutil.o(i.zcalloc) for zcalloc
    inflate.o(i.inflateInit2_) refers to zutil.o(i.zcfree) for zcfree
    inflate.o(i.inflateInit_) refers to inflate.o(i.inflateInit2_) for inflateInit2_
    inflate.o(i.inflateMark) refers to inflate.o(i.inflateStateCheck) for inflateStateCheck
    inflate.o(i.inflatePrime) refers to inflate.o(i.inflateStateCheck) for inflateStateCheck
    inflate.o(i.inflateReset) refers to inflate.o(i.inflateStateCheck) for inflateStateCheck
    inflate.o(i.inflateReset) refers to inflate.o(i.inflateResetKeep) for inflateResetKeep
    inflate.o(i.inflateReset2) refers to inflate.o(i.inflateStateCheck) for inflateStateCheck
    inflate.o(i.inflateReset2) refers to inflate.o(i.inflateReset) for inflateReset
    inflate.o(i.inflateResetKeep) refers to inflate.o(i.inflateStateCheck) for inflateStateCheck
    inflate.o(i.inflateSetDictionary) refers to inflate.o(i.inflateStateCheck) for inflateStateCheck
    inflate.o(i.inflateSetDictionary) refers to adler32.o(i.adler32) for adler32
    inflate.o(i.inflateSetDictionary) refers to inflate.o(i.updatewindow) for updatewindow
    inflate.o(i.inflateSync) refers to inflate.o(i.inflateStateCheck) for inflateStateCheck
    inflate.o(i.inflateSync) refers to inflate.o(i.syncsearch) for syncsearch
    inflate.o(i.inflateSync) refers to inflate.o(i.inflateReset) for inflateReset
    inflate.o(i.inflateSyncPoint) refers to inflate.o(i.inflateStateCheck) for inflateStateCheck
    inflate.o(i.inflateUndermine) refers to inflate.o(i.inflateStateCheck) for inflateStateCheck
    inflate.o(i.inflateValidate) refers to inflate.o(i.inflateStateCheck) for inflateStateCheck
    inflate.o(i.updatewindow) refers to rt_memcpy_v6.o(.text) for __aeabi_memcpy
    inftrees.o(i.inflate_table) refers to inftrees.o(.constdata) for .constdata
    pngdec.o(i._Z11PNGMakeMaskP12png_draw_tagPhh) refers to aeabi_memset.o(.text) for __aeabi_memset
    pngdec.o(i._Z7readRAMP12png_file_tagPhi) refers to rt_memcpy_v6.o(.text) for __aeabi_memcpy
    pngdec.o(i._Z9DecodePNGP13png_image_tagPvi) refers to inflate.o(i.inflateInit_) for inflateInit_
    pngdec.o(i._Z9DecodePNGP13png_image_tagPvi) refers to aeabi_memset.o(.text) for __aeabi_memset
    pngdec.o(i._Z9DecodePNGP13png_image_tagPvi) refers to rt_memcpy_v6.o(.text) for __aeabi_memcpy
    pngdec.o(i._Z9DecodePNGP13png_image_tagPvi) refers to inflate.o(i.inflate) for inflate
    pngdec.o(i._Z9DecodePNGP13png_image_tagPvi) refers to pngdec.o(i._Z8DeFilterPhS_ii) for DeFilter(unsigned char*, unsigned char*, int, int)
    pngdec.o(i._Z9DecodePNGP13png_image_tagPvi) refers to inflate.o(i.inflateEnd) for inflateEnd
    pngdec.o(i._Z9PNGRGB565P12png_draw_tagPtiji) refers to pngdec.o(.constdata) for .constdata
    pngdec.o(i._Z9readFLASHP12png_file_tagPhi) refers to rt_memcpy_v6.o(.text) for __aeabi_memcpy
    pngdec.o(i._ZN3PNG12getAlphaMaskEP12png_draw_tagPhh) refers to pngdec.o(i._Z11PNGMakeMaskP12png_draw_tagPhh) for PNGMakeMask(png_draw_tag*, unsigned char*, unsigned char)
    pngdec.o(i._ZN3PNG15getLineAsRGB565EP12png_draw_tagPtij) refers to pngdec.o(i._Z9PNGRGB565P12png_draw_tagPtiji) for PNGRGB565(png_draw_tag*, unsigned short*, int, unsigned, int)
    pngdec.o(i._ZN3PNG4openEPKcPFPvS1_PiEPFvS2_EPFiP12png_file_tagPhiEPFiS9_iEPFvP12png_draw_tagE) refers to rt_memclr_w.o(.text) for __aeabi_memclr4
    pngdec.o(i._ZN3PNG4openEPKcPFPvS1_PiEPFvS2_EPFiP12png_file_tagPhiEPFiS9_iEPFvP12png_draw_tagE) refers to pngdec.o(i._Z12PNGParseInfoP13png_image_tag) for PNGParseInfo(png_image_tag*)
    pngdec.o(i._ZN3PNG6decodeEPvi) refers to pngdec.o(i._Z9DecodePNGP13png_image_tagPvi) for DecodePNG(png_image_tag*, void*, int)
    pngdec.o(i._ZN3PNG7openRAMEPhiPFvP12png_draw_tagE) refers to rt_memclr_w.o(.text) for __aeabi_memclr4
    pngdec.o(i._ZN3PNG7openRAMEPhiPFvP12png_draw_tagE) refers to pngdec.o(i._Z12PNGParseInfoP13png_image_tag) for PNGParseInfo(png_image_tag*)
    pngdec.o(i._ZN3PNG7openRAMEPhiPFvP12png_draw_tagE) refers to pngdec.o(i._Z7readRAMP12png_file_tagPhi) for readRAM(png_file_tag*, unsigned char*, int)
    pngdec.o(i._ZN3PNG7openRAMEPhiPFvP12png_draw_tagE) refers to pngdec.o(i._Z7seekMemP12png_file_tagi) for seekMem(png_file_tag*, int)
    pngdec.o(i._ZN3PNG9openFLASHEPhiPFvP12png_draw_tagE) refers to rt_memclr_w.o(.text) for __aeabi_memclr4
    pngdec.o(i._ZN3PNG9openFLASHEPhiPFvP12png_draw_tagE) refers to pngdec.o(i._Z12PNGParseInfoP13png_image_tag) for PNGParseInfo(png_image_tag*)
    pngdec.o(i._ZN3PNG9openFLASHEPhiPFvP12png_draw_tagE) refers to pngdec.o(i._Z9readFLASHP12png_file_tagPhi) for readFLASH(png_file_tag*, unsigned char*, int)
    pngdec.o(i._ZN3PNG9openFLASHEPhiPFvP12png_draw_tagE) refers to pngdec.o(i._Z7seekMemP12png_file_tagi) for seekMem(png_file_tag*, int)
    pngdec.o(.ARM.exidx) refers to pngdec.o(i._Z11PNGMakeMaskP12png_draw_tagPhh) for i._Z11PNGMakeMaskP12png_draw_tagPhh
    pngdec.o(.ARM.exidx) refers to pngdec.o(i._Z9PNGRGB565P12png_draw_tagPtiji) for i._Z9PNGRGB565P12png_draw_tagPtiji
    pngdec.o(.ARM.exidx) refers to pngdec.o(i._Z7seekMemP12png_file_tagi) for i._Z7seekMemP12png_file_tagi
    pngdec.o(.ARM.exidx) refers to pngdec.o(i._Z9readFLASHP12png_file_tagPhi) for i._Z9readFLASHP12png_file_tagPhi
    pngdec.o(.ARM.exidx) refers to pngdec.o(i._Z7readRAMP12png_file_tagPhi) for i._Z7readRAMP12png_file_tagPhi
    pngdec.o(.ARM.exidx) refers to pngdec.o(i._Z12PNGParseInfoP13png_image_tag) for i._Z12PNGParseInfoP13png_image_tag
    pngdec.o(.ARM.exidx) refers to pngdec.o(i._Z8DeFilterPhS_ii) for i._Z8DeFilterPhS_ii
    pngdec.o(.ARM.exidx) refers to pngdec.o(i._Z9DecodePNGP13png_image_tagPvi) for i._Z9DecodePNGP13png_image_tagPvi
    pngdec.o(.ARM.exidx) refers to pngdec.o(i._ZN3PNG7openRAMEPhiPFvP12png_draw_tagE) for i._ZN3PNG7openRAMEPhiPFvP12png_draw_tagE
    pngdec.o(.ARM.exidx) refers to pngdec.o(i._ZN3PNG9openFLASHEPhiPFvP12png_draw_tagE) for i._ZN3PNG9openFLASHEPhiPFvP12png_draw_tagE
    pngdec.o(.ARM.exidx) refers to pngdec.o(i._ZN3PNG4openEPKcPFPvS1_PiEPFvS2_EPFiP12png_file_tagPhiEPFiS9_iEPFvP12png_draw_tagE) for i._ZN3PNG4openEPKcPFPvS1_PiEPFvS2_EPFiP12png_file_tagPhiEPFiS9_iEPFvP12png_draw_tagE
    pngdec.o(.ARM.exidx) refers to pngdec.o(i._ZN3PNG5closeEv) for i._ZN3PNG5closeEv
    pngdec.o(.ARM.exidx) refers to pngdec.o(i._ZN3PNG6decodeEPvi) for i._ZN3PNG6decodeEPvi
    pngdec.o(.ARM.exidx) refers to pngdec.o(i._ZN3PNG8getWidthEv) for i._ZN3PNG8getWidthEv
    pngdec.o(.ARM.exidx) refers to pngdec.o(i._ZN3PNG9getHeightEv) for i._ZN3PNG9getHeightEv
    pngdec.o(.ARM.exidx) refers to pngdec.o(i._ZN3PNG6getBppEv) for i._ZN3PNG6getBppEv
    pngdec.o(.ARM.exidx) refers to pngdec.o(i._ZN3PNG8hasAlphaEv) for i._ZN3PNG8hasAlphaEv
    pngdec.o(.ARM.exidx) refers to pngdec.o(i._ZN3PNG19getTransparentColorEv) for i._ZN3PNG19getTransparentColorEv
    pngdec.o(.ARM.exidx) refers to pngdec.o(i._ZN3PNG12isInterlacedEv) for i._ZN3PNG12isInterlacedEv
    pngdec.o(.ARM.exidx) refers to pngdec.o(i._ZN3PNG10getPaletteEv) for i._ZN3PNG10getPaletteEv
    pngdec.o(.ARM.exidx) refers to pngdec.o(i._ZN3PNG12getPixelTypeEv) for i._ZN3PNG12getPixelTypeEv
    pngdec.o(.ARM.exidx) refers to pngdec.o(i._ZN3PNG12getLastErrorEv) for i._ZN3PNG12getLastErrorEv
    pngdec.o(.ARM.exidx) refers to pngdec.o(i._ZN3PNG13getBufferSizeEv) for i._ZN3PNG13getBufferSizeEv
    pngdec.o(.ARM.exidx) refers to pngdec.o(i._ZN3PNG9getBufferEv) for i._ZN3PNG9getBufferEv
    pngdec.o(.ARM.exidx) refers to pngdec.o(i._ZN3PNG9setBufferEPh) for i._ZN3PNG9setBufferEPh
    pngdec.o(.ARM.exidx) refers to pngdec.o(i._ZN3PNG12getAlphaMaskEP12png_draw_tagPhh) for i._ZN3PNG12getAlphaMaskEP12png_draw_tagPhh
    pngdec.o(.ARM.exidx) refers to pngdec.o(i._ZN3PNG15getLineAsRGB565EP12png_draw_tagPtij) for i._ZN3PNG15getLineAsRGB565EP12png_draw_tagPtij
    zutil.o(i.zError) refers to zutil.o(.constdata) for .constdata
    zutil.o(.constdata) refers to zutil.o(.conststring) for .conststring
    lv_poly_line.o(i._ZN12lv_poly_line10get_pointsEPNS_13single_line_tE) refers to lv_poly_line.o(t._ZNKSt6vectorI10lv_point_tSaIS0_EE4sizeEv) for std::vector<lv_point_t, std::allocator<lv_point_t>>::size() const
    lv_poly_line.o(i._ZN12lv_poly_line12get_end_lineEv) refers to lv_poly_line.o(t._ZNKSt6vectorIN12lv_poly_line13single_line_tESaIS1_EE4sizeEv) for std::vector<lv_poly_line::single_line_t, std::allocator<lv_poly_line::single_line_t>>::size() const
    lv_poly_line.o(i._ZN12lv_poly_line12refresh_lineEv) refers to lv_poly_line.o(t._ZNKSt6vectorIN12lv_poly_line13single_line_tESaIS1_EE4sizeEv) for std::vector<lv_poly_line::single_line_t, std::allocator<lv_poly_line::single_line_t>>::size() const
    lv_poly_line.o(i._ZN12lv_poly_line12refresh_lineEv) refers to lv_poly_line.o(i._ZN12lv_poly_line10get_pointsEPNS_13single_line_tE) for lv_poly_line::get_points(lv_poly_line::single_line_t*)
    lv_poly_line.o(i._ZN12lv_poly_line12refresh_lineEv) refers to lv_poly_line.o(t._ZNKSt6vectorI10lv_point_tSaIS0_EE4sizeEv) for std::vector<lv_point_t, std::allocator<lv_point_t>>::size() const
    lv_poly_line.o(i._ZN12lv_poly_line12refresh_lineEv) refers to lv_line.o(i.lv_line_set_points) for lv_line_set_points
    lv_poly_line.o(i._ZN12lv_poly_line13append_to_endEPK10lv_point_t) refers to lv_poly_line.o(i._ZN12lv_poly_line12get_end_lineEv) for lv_poly_line::get_end_line()
    lv_poly_line.o(i._ZN12lv_poly_line13append_to_endEPK10lv_point_t) refers to lv_poly_line.o(t._ZNSt6vectorI10lv_point_tSaIS0_EE9push_backERKS0_) for std::vector<lv_point_t, std::allocator<lv_point_t>>::push_back(const lv_point_t&)
    lv_poly_line.o(i._ZN12lv_poly_line13append_to_endEPK10lv_point_t) refers to lv_poly_line.o(i._ZN12lv_poly_line10get_pointsEPNS_13single_line_tE) for lv_poly_line::get_points(lv_poly_line::single_line_t*)
    lv_poly_line.o(i._ZN12lv_poly_line13append_to_endEPK10lv_point_t) refers to lv_poly_line.o(t._ZNKSt6vectorI10lv_point_tSaIS0_EE4sizeEv) for std::vector<lv_point_t, std::allocator<lv_point_t>>::size() const
    lv_poly_line.o(i._ZN12lv_poly_line13append_to_endEPK10lv_point_t) refers to lv_line.o(i.lv_line_set_points) for lv_line_set_points
    lv_poly_line.o(i._ZN12lv_poly_line13get_end_pointEP10lv_point_t) refers to lv_poly_line.o(i._ZN12lv_poly_line12get_end_lineEv) for lv_poly_line::get_end_line()
    lv_poly_line.o(i._ZN12lv_poly_line13get_end_pointEP10lv_point_t) refers to lv_poly_line.o(t._ZNKSt6vectorI10lv_point_tSaIS0_EE4sizeEv) for std::vector<lv_point_t, std::allocator<lv_point_t>>::size() const
    lv_poly_line.o(i._ZN12lv_poly_line4stopEv) refers to lv_poly_line.o(t._ZNKSt6vectorIN12lv_poly_line13single_line_tESaIS1_EE4sizeEv) for std::vector<lv_poly_line::single_line_t, std::allocator<lv_poly_line::single_line_t>>::size() const
    lv_poly_line.o(i._ZN12lv_poly_line4stopEv) refers to lv_poly_line.o(i._ZN12lv_poly_line10get_pointsEPNS_13single_line_tE) for lv_poly_line::get_points(lv_poly_line::single_line_t*)
    lv_poly_line.o(i._ZN12lv_poly_line4stopEv) refers to lv_poly_line.o(t._ZNKSt6vectorI10lv_point_tSaIS0_EE4sizeEv) for std::vector<lv_point_t, std::allocator<lv_point_t>>::size() const
    lv_poly_line.o(i._ZN12lv_poly_line4stopEv) refers to lv_line.o(i.lv_line_set_points) for lv_line_set_points
    lv_poly_line.o(i._ZN12lv_poly_line5resetEv) refers to lv_poly_line.o(t._ZNKSt6vectorIN12lv_poly_line13single_line_tESaIS1_EE4sizeEv) for std::vector<lv_poly_line::single_line_t, std::allocator<lv_poly_line::single_line_t>>::size() const
    lv_poly_line.o(i._ZN12lv_poly_line5resetEv) refers to lv_line.o(i.lv_line_set_points) for lv_line_set_points
    lv_poly_line.o(i._ZN12lv_poly_line5resetEv) refers to lv_obj.o(i.lv_obj_add_flag) for lv_obj_add_flag
    lv_poly_line.o(i._ZN12lv_poly_line5startEv) refers to lv_poly_line.o(t._ZNKSt6vectorIN12lv_poly_line13single_line_tESaIS1_EE4sizeEv) for std::vector<lv_poly_line::single_line_t, std::allocator<lv_poly_line::single_line_t>>::size() const
    lv_poly_line.o(i._ZN12lv_poly_line5startEv) refers to lv_poly_line.o(i._ZN12lv_poly_line8add_lineEv) for lv_poly_line::add_line()
    lv_poly_line.o(i._ZN12lv_poly_line5startEv) refers to lv_poly_line.o(i._ZN12lv_poly_line12refresh_lineEv) for lv_poly_line::refresh_line()
    lv_poly_line.o(i._ZN12lv_poly_line5startEv) refers to lv_obj.o(i.lv_obj_clear_flag) for lv_obj_clear_flag
    lv_poly_line.o(i._ZN12lv_poly_line5startEv) refers to lv_line.o(i.lv_line_set_points) for lv_line_set_points
    lv_poly_line.o(i._ZN12lv_poly_line6appendEPK10lv_point_t) refers to lv_poly_line.o(t._ZNKSt6vectorIN12lv_poly_line13single_line_tESaIS1_EE4sizeEv) for std::vector<lv_poly_line::single_line_t, std::allocator<lv_poly_line::single_line_t>>::size() const
    lv_poly_line.o(i._ZN12lv_poly_line6appendEPK10lv_point_t) refers to lv_poly_line.o(t._ZNSt6vectorI10lv_point_tSaIS0_EE9push_backERKS0_) for std::vector<lv_point_t, std::allocator<lv_point_t>>::push_back(const lv_point_t&)
    lv_poly_line.o(i._ZN12lv_poly_line8add_lineEv) refers to lv_line.o(i.lv_line_create) for lv_line_create
    lv_poly_line.o(i._ZN12lv_poly_line8add_lineEv) refers to lv_obj_style.o(i.lv_obj_remove_style) for lv_obj_remove_style
    lv_poly_line.o(i._ZN12lv_poly_line8add_lineEv) refers to lv_obj_style.o(i.lv_obj_add_style) for lv_obj_add_style
    lv_poly_line.o(i._ZN12lv_poly_line8add_lineEv) refers to lv_poly_line.o(t._ZNSt6vectorI10lv_point_tSaIS0_EEC1ERKS1_) for std::vector<lv_point_t, std::allocator<lv_point_t>>::vector(const std::allocator<lv_point_t>&)
    lv_poly_line.o(i._ZN12lv_poly_line8add_lineEv) refers to lv_poly_line.o(t._ZNSaIN12lv_poly_line13single_line_tEE9constructEPS0_RKS0_) for std::allocator<lv_poly_line::single_line_t>::construct(lv_poly_line::single_line_t*, const lv_poly_line::single_line_t&)
    lv_poly_line.o(i._ZN12lv_poly_line8add_lineEv) refers to lv_poly_line.o(t._ZNSt6vectorIN12lv_poly_line13single_line_tESaIS1_EE13_C_insert_auxEPS1_RKS1_) for std::vector<lv_poly_line::single_line_t, std::allocator<lv_poly_line::single_line_t>>::_C_insert_aux(lv_poly_line::single_line_t*, const lv_poly_line::single_line_t&)
    lv_poly_line.o(i._ZN12lv_poly_line8add_lineEv) refers to lv_poly_line.o(t._ZNSt6vectorI10lv_point_tSaIS0_EED1Ev) for std::vector<lv_point_t, std::allocator<lv_point_t>>::~vector()
    lv_poly_line.o(i._ZN12lv_poly_lineD1Ev) refers to lv_poly_line.o(i._ZN12lv_poly_line13single_line_tC1ERKS0_) for lv_poly_line::single_line_t::single_line_t(const lv_poly_line::single_line_t&)
    lv_poly_line.o(i._ZN12lv_poly_lineD1Ev) refers to lv_obj_tree.o(i.lv_obj_del) for lv_obj_del
    lv_poly_line.o(i._ZN12lv_poly_lineD1Ev) refers to lv_poly_line.o(t._ZNSt6vectorI10lv_point_tSaIS0_EEC1ERKS1_) for std::vector<lv_point_t, std::allocator<lv_point_t>>::vector(const std::allocator<lv_point_t>&)
    lv_poly_line.o(i._ZN12lv_poly_lineD1Ev) refers to lv_poly_line.o(t._ZNSt6vectorI10lv_point_tSaIS0_EED1Ev) for std::vector<lv_point_t, std::allocator<lv_point_t>>::~vector()
    lv_poly_line.o(i._ZN12lv_poly_lineD1Ev) refers to lv_poly_line.o(t._ZNSt6vectorIN12lv_poly_line13single_line_tESaIS1_EE10_C_destroyEPS1_S4_) for std::vector<lv_poly_line::single_line_t, std::allocator<lv_poly_line::single_line_t>>::_C_destroy(lv_poly_line::single_line_t*, lv_poly_line::single_line_t*)
    lv_poly_line.o(i._ZN12lv_poly_lineD1Ev) refers to rwalloc.o(i._ZN4__rw15__rw_deallocateEPvji) for __rw::__rw_deallocate(void*, unsigned, int)
    lv_poly_line.o(.ARM.exidx) refers to lv_poly_line.o(i._ZN12lv_poly_lineC1EP9_lv_obj_t) for i._ZN12lv_poly_lineC1EP9_lv_obj_t
    lv_poly_line.o(.ARM.exidx) refers to lv_poly_line.o(i._ZN12lv_poly_lineD1Ev) for i._ZN12lv_poly_lineD1Ev
    lv_poly_line.o(.ARM.exidx) refers to lv_poly_line.o(i._ZN12lv_poly_line10get_pointsEPNS_13single_line_tE) for i._ZN12lv_poly_line10get_pointsEPNS_13single_line_tE
    lv_poly_line.o(.ARM.exidx) refers to lv_poly_line.o(i._ZN12lv_poly_line12refresh_lineEv) for i._ZN12lv_poly_line12refresh_lineEv
    lv_poly_line.o(.ARM.exidx) refers to lv_poly_line.o(i._ZN12lv_poly_line8add_lineEv) for i._ZN12lv_poly_line8add_lineEv
    lv_poly_line.o(.ARM.exidx) refers to lv_poly_line.o(i._ZN12lv_poly_line5startEv) for i._ZN12lv_poly_line5startEv
    lv_poly_line.o(.ARM.exidx) refers to lv_poly_line.o(i._ZN12lv_poly_line6appendEPK10lv_point_t) for i._ZN12lv_poly_line6appendEPK10lv_point_t
    lv_poly_line.o(.ARM.exidx) refers to lv_poly_line.o(i._ZN12lv_poly_line12get_end_lineEv) for i._ZN12lv_poly_line12get_end_lineEv
    lv_poly_line.o(.ARM.exidx) refers to lv_poly_line.o(i._ZN12lv_poly_line13append_to_endEPK10lv_point_t) for i._ZN12lv_poly_line13append_to_endEPK10lv_point_t
    lv_poly_line.o(.ARM.exidx) refers to lv_poly_line.o(i._ZN12lv_poly_line4stopEv) for i._ZN12lv_poly_line4stopEv
    lv_poly_line.o(.ARM.exidx) refers to lv_poly_line.o(i._ZN12lv_poly_line5resetEv) for i._ZN12lv_poly_line5resetEv
    lv_poly_line.o(.ARM.exidx) refers to lv_poly_line.o(i._ZN12lv_poly_line13get_end_pointEP10lv_point_t) for i._ZN12lv_poly_line13get_end_pointEP10lv_point_t
    mapconv.o(i._ZN7MapConv10GetMapTileEddPNS_9MapTile_tE) refers to mapconv.o(i._ZN7MapConv20ConvertMapCoordinateEddPiS0_) for MapConv::ConvertMapCoordinate(double, double, int*, int*)
    mapconv.o(i._ZN7MapConv10GetMapTileEddPNS_9MapTile_tE) refers to mapconv.o(i._ZN7MapConv16ConvertPosToTileEiiPNS_9MapTile_tE) for MapConv::ConvertPosToTile(int, int, MapConv::MapTile_t*)
    mapconv.o(i._ZN7MapConv14ConvertMapPathEiiPcj) refers to _printf_percent.o(.ARM.Collect$$_printf_percent$$00000000) for _printf_percent
    mapconv.o(i._ZN7MapConv14ConvertMapPathEiiPcj) refers to _printf_d.o(.ARM.Collect$$_printf_percent$$00000009) for _printf_d
    mapconv.o(i._ZN7MapConv14ConvertMapPathEiiPcj) refers to _printf_s.o(.ARM.Collect$$_printf_percent$$00000014) for _printf_s
    mapconv.o(i._ZN7MapConv14ConvertMapPathEiiPcj) refers to _printf_dec.o(.text) for _printf_int_dec
    mapconv.o(i._ZN7MapConv14ConvertMapPathEiiPcj) refers to _printf_str.o(.text) for _printf_str
    mapconv.o(i._ZN7MapConv14ConvertMapPathEiiPcj) refers to __2snprintf.o(.text) for __2snprintf
    mapconv.o(i._ZN7MapConv14ConvertMapPathEiiPcj) refers to mapconv.o(.data) for .data
    mapconv.o(i._ZN7MapConv20ConvertMapCoordinateEddPiS0_) refers to gps_transform.o(i.GPS_Transform) for GPS_Transform
    mapconv.o(i._ZN7MapConv20ConvertMapCoordinateEddPiS0_) refers to tilesystem.o(i._ZN18Microsoft_MapPoint10TileSystem16LatLongToPixelXYEddiPiS1_) for Microsoft_MapPoint::TileSystem::LatLongToPixelXY(double, double, int, int*, int*)
    mapconv.o(i._ZN7MapConv20ConvertMapCoordinateEddPiS0_) refers to mapconv.o(.data) for .data
    mapconv.o(i._ZN7MapConv8SetLevelEi) refers to mapconv.o(.data) for .data
    mapconv.o(.ARM.exidx) refers to mapconv.o(i._ZN7MapConvC1Ev) for i._ZN7MapConvC1Ev
    mapconv.o(.ARM.exidx) refers to mapconv.o(i._ZN7MapConv8SetLevelEi) for i._ZN7MapConv8SetLevelEi
    mapconv.o(.ARM.exidx) refers to mapconv.o(i._ZN7MapConv16ConvertPosToTileEiiPNS_9MapTile_tE) for i._ZN7MapConv16ConvertPosToTileEiiPNS_9MapTile_tE
    mapconv.o(.ARM.exidx) refers to mapconv.o(i._ZN7MapConv20ConvertMapCoordinateEddPiS0_) for i._ZN7MapConv20ConvertMapCoordinateEddPiS0_
    mapconv.o(.ARM.exidx) refers to mapconv.o(i._ZN7MapConv10GetMapTileEddPNS_9MapTile_tE) for i._ZN7MapConv10GetMapTileEddPNS_9MapTile_tE
    mapconv.o(.ARM.exidx) refers to mapconv.o(i._ZN7MapConv14ConvertMapPathEiiPcj) for i._ZN7MapConv14ConvertMapPathEiiPcj
    mapconv.o(.ARM.exidx) refers to mapconv.o(i._ZN7MapConv18ConvertMapLevelPosEPiS0_iii) for i._ZN7MapConv18ConvertMapLevelPosEPiS0_iii
    gps_transform.o(i.GPS_Transform) refers to daddsub_clz.o(x$fpl$dsub) for __aeabi_dsub
    gps_transform.o(i.GPS_Transform) refers to gps_transform.o(i._ZN37_INTERNAL_15_GPS_Transform_c_49f8fa3d12transformLatEdd) for [local to GPS_Transform_c]::transformLat(double, double)
    gps_transform.o(i.GPS_Transform) refers to gps_transform.o(i._ZN37_INTERNAL_15_GPS_Transform_c_49f8fa3d12transformLonEdd) for [local to GPS_Transform_c]::transformLon(double, double)
    gps_transform.o(i.GPS_Transform) refers to ddiv.o(x$fpl$ddiv) for __aeabi_ddiv
    gps_transform.o(i.GPS_Transform) refers to dmul.o(x$fpl$dmul) for __aeabi_dmul
    gps_transform.o(i.GPS_Transform) refers to sin.o(i.__hardfp_sin) for __hardfp_sin
    gps_transform.o(i.GPS_Transform) refers to daddsub_clz.o(x$fpl$drsb) for __aeabi_drsub
    gps_transform.o(i.GPS_Transform) refers to sqrt.o(i.__hardfp_sqrt) for __hardfp_sqrt
    gps_transform.o(i.GPS_Transform) refers to cos.o(i.__hardfp_cos) for __hardfp_cos
    gps_transform.o(i.GPS_Transform) refers to daddsub_clz.o(x$fpl$dadd) for __aeabi_dadd
    gps_transform.o(i._ZN37_INTERNAL_15_GPS_Transform_c_49f8fa3d12transformLatEdd) refers to drleqf.o(x$fpl$drleqf) for __aeabi_cdrcmple
    gps_transform.o(i._ZN37_INTERNAL_15_GPS_Transform_c_49f8fa3d12transformLatEdd) refers to basic.o(x$fpl$basic) for __aeabi_dneg
    gps_transform.o(i._ZN37_INTERNAL_15_GPS_Transform_c_49f8fa3d12transformLatEdd) refers to sqrt.o(i.__hardfp_sqrt) for __hardfp_sqrt
    gps_transform.o(i._ZN37_INTERNAL_15_GPS_Transform_c_49f8fa3d12transformLatEdd) refers to dmul.o(x$fpl$dmul) for __aeabi_dmul
    gps_transform.o(i._ZN37_INTERNAL_15_GPS_Transform_c_49f8fa3d12transformLatEdd) refers to daddsub_clz.o(x$fpl$dadd) for __aeabi_dadd
    gps_transform.o(i._ZN37_INTERNAL_15_GPS_Transform_c_49f8fa3d12transformLatEdd) refers to sin.o(i.__hardfp_sin) for __hardfp_sin
    gps_transform.o(i._ZN37_INTERNAL_15_GPS_Transform_c_49f8fa3d12transformLatEdd) refers to ddiv.o(x$fpl$ddiv) for __aeabi_ddiv
    gps_transform.o(i._ZN37_INTERNAL_15_GPS_Transform_c_49f8fa3d12transformLonEdd) refers to drleqf.o(x$fpl$drleqf) for __aeabi_cdrcmple
    gps_transform.o(i._ZN37_INTERNAL_15_GPS_Transform_c_49f8fa3d12transformLonEdd) refers to basic.o(x$fpl$basic) for __aeabi_dneg
    gps_transform.o(i._ZN37_INTERNAL_15_GPS_Transform_c_49f8fa3d12transformLonEdd) refers to sqrt.o(i.__hardfp_sqrt) for __hardfp_sqrt
    gps_transform.o(i._ZN37_INTERNAL_15_GPS_Transform_c_49f8fa3d12transformLonEdd) refers to dmul.o(x$fpl$dmul) for __aeabi_dmul
    gps_transform.o(i._ZN37_INTERNAL_15_GPS_Transform_c_49f8fa3d12transformLonEdd) refers to daddsub_clz.o(x$fpl$dadd) for __aeabi_dadd
    gps_transform.o(i._ZN37_INTERNAL_15_GPS_Transform_c_49f8fa3d12transformLonEdd) refers to sin.o(i.__hardfp_sin) for __hardfp_sin
    gps_transform.o(i._ZN37_INTERNAL_15_GPS_Transform_c_49f8fa3d12transformLonEdd) refers to ddiv.o(x$fpl$ddiv) for __aeabi_ddiv
    gps_transform.o(.ARM.exidx) refers to gps_transform.o(i._ZN37_INTERNAL_15_GPS_Transform_c_49f8fa3d12transformLatEdd) for i._ZN37_INTERNAL_15_GPS_Transform_c_49f8fa3d12transformLatEdd
    gps_transform.o(.ARM.exidx) refers to gps_transform.o(i._ZN37_INTERNAL_15_GPS_Transform_c_49f8fa3d12transformLonEdd) for i._ZN37_INTERNAL_15_GPS_Transform_c_49f8fa3d12transformLonEdd
    gps_transform.o(.ARM.exidx) refers to gps_transform.o(i.GPS_Transform) for i.GPS_Transform
    tilesystem.o(i._ZN18Microsoft_MapPoint10TileSystem15QuadKeyToTileXYEPKcPiS3_S3_) refers to strlen.o(.text) for strlen
    tilesystem.o(i._ZN18Microsoft_MapPoint10TileSystem16GroundResolutionEdi) refers to tilesystem.o(i._ZN36_INTERNAL_14_TileSystem_cpp_f1c413004ClipEddd) for [local to TileSystem_cpp]::Clip(double, double, double)
    tilesystem.o(i._ZN18Microsoft_MapPoint10TileSystem16GroundResolutionEdi) refers to dflt_clz.o(x$fpl$dfltu) for __aeabi_ui2d
    tilesystem.o(i._ZN18Microsoft_MapPoint10TileSystem16GroundResolutionEdi) refers to dmul.o(x$fpl$dmul) for __aeabi_dmul
    tilesystem.o(i._ZN18Microsoft_MapPoint10TileSystem16GroundResolutionEdi) refers to ddiv.o(x$fpl$ddiv) for __aeabi_ddiv
    tilesystem.o(i._ZN18Microsoft_MapPoint10TileSystem16GroundResolutionEdi) refers to cos.o(i.__hardfp_cos) for __hardfp_cos
    tilesystem.o(i._ZN18Microsoft_MapPoint10TileSystem16LatLongToPixelXYEddiPiS1_) refers to tilesystem.o(i._ZN36_INTERNAL_14_TileSystem_cpp_f1c413004ClipEddd) for [local to TileSystem_cpp]::Clip(double, double, double)
    tilesystem.o(i._ZN18Microsoft_MapPoint10TileSystem16LatLongToPixelXYEddiPiS1_) refers to daddsub_clz.o(x$fpl$dadd) for __aeabi_dadd
    tilesystem.o(i._ZN18Microsoft_MapPoint10TileSystem16LatLongToPixelXYEddiPiS1_) refers to ddiv.o(x$fpl$ddiv) for __aeabi_ddiv
    tilesystem.o(i._ZN18Microsoft_MapPoint10TileSystem16LatLongToPixelXYEddiPiS1_) refers to dmul.o(x$fpl$dmul) for __aeabi_dmul
    tilesystem.o(i._ZN18Microsoft_MapPoint10TileSystem16LatLongToPixelXYEddiPiS1_) refers to sin.o(i.__hardfp_sin) for __hardfp_sin
    tilesystem.o(i._ZN18Microsoft_MapPoint10TileSystem16LatLongToPixelXYEddiPiS1_) refers to daddsub_clz.o(x$fpl$dsub) for __aeabi_dsub
    tilesystem.o(i._ZN18Microsoft_MapPoint10TileSystem16LatLongToPixelXYEddiPiS1_) refers to log.o(i.__hardfp_log) for __hardfp_log
    tilesystem.o(i._ZN18Microsoft_MapPoint10TileSystem16LatLongToPixelXYEddiPiS1_) refers to daddsub_clz.o(x$fpl$drsb) for __aeabi_drsub
    tilesystem.o(i._ZN18Microsoft_MapPoint10TileSystem16LatLongToPixelXYEddiPiS1_) refers to dflt_clz.o(x$fpl$dfltu) for __aeabi_ui2d
    tilesystem.o(i._ZN18Microsoft_MapPoint10TileSystem16LatLongToPixelXYEddiPiS1_) refers to dfix.o(x$fpl$dfix) for __aeabi_d2iz
    tilesystem.o(i._ZN18Microsoft_MapPoint10TileSystem16PixelXYToLatLongEiiiPdS1_) refers to dflt_clz.o(x$fpl$dfltu) for __aeabi_ui2d
    tilesystem.o(i._ZN18Microsoft_MapPoint10TileSystem16PixelXYToLatLongEiiiPdS1_) refers to daddsub_clz.o(x$fpl$dsub) for __aeabi_dsub
    tilesystem.o(i._ZN18Microsoft_MapPoint10TileSystem16PixelXYToLatLongEiiiPdS1_) refers to dflt_clz.o(x$fpl$dflt) for __aeabi_i2d
    tilesystem.o(i._ZN18Microsoft_MapPoint10TileSystem16PixelXYToLatLongEiiiPdS1_) refers to tilesystem.o(i._ZN36_INTERNAL_14_TileSystem_cpp_f1c413004ClipEddd) for [local to TileSystem_cpp]::Clip(double, double, double)
    tilesystem.o(i._ZN18Microsoft_MapPoint10TileSystem16PixelXYToLatLongEiiiPdS1_) refers to ddiv.o(x$fpl$ddiv) for __aeabi_ddiv
    tilesystem.o(i._ZN18Microsoft_MapPoint10TileSystem16PixelXYToLatLongEiiiPdS1_) refers to daddsub_clz.o(x$fpl$drsb) for __aeabi_drsub
    tilesystem.o(i._ZN18Microsoft_MapPoint10TileSystem16PixelXYToLatLongEiiiPdS1_) refers to dmul.o(x$fpl$dmul) for __aeabi_dmul
    tilesystem.o(i._ZN18Microsoft_MapPoint10TileSystem16PixelXYToLatLongEiiiPdS1_) refers to exp.o(i.__hardfp_exp) for __hardfp_exp
    tilesystem.o(i._ZN18Microsoft_MapPoint10TileSystem16PixelXYToLatLongEiiiPdS1_) refers to atan.o(i.__hardfp_atan) for __hardfp_atan
    tilesystem.o(i._ZN18Microsoft_MapPoint10TileSystem8MapScaleEdii) refers to dflt_clz.o(x$fpl$dflt) for __aeabi_i2d
    tilesystem.o(i._ZN18Microsoft_MapPoint10TileSystem8MapScaleEdii) refers to tilesystem.o(i._ZN18Microsoft_MapPoint10TileSystem16GroundResolutionEdi) for Microsoft_MapPoint::TileSystem::GroundResolution(double, int)
    tilesystem.o(i._ZN18Microsoft_MapPoint10TileSystem8MapScaleEdii) refers to dmul.o(x$fpl$dmul) for __aeabi_dmul
    tilesystem.o(i._ZN18Microsoft_MapPoint10TileSystem8MapScaleEdii) refers to ddiv.o(x$fpl$ddiv) for __aeabi_ddiv
    tilesystem.o(i._ZN36_INTERNAL_14_TileSystem_cpp_f1c413004ClipEddd) refers to dleqf.o(x$fpl$dleqf) for __aeabi_cdcmple
    tilesystem.o(.ARM.exidx) refers to tilesystem.o(i._ZN36_INTERNAL_14_TileSystem_cpp_f1c413004ClipEddd) for i._ZN36_INTERNAL_14_TileSystem_cpp_f1c413004ClipEddd
    tilesystem.o(.ARM.exidx) refers to tilesystem.o(i._ZN18Microsoft_MapPoint10TileSystem7MapSizeEi) for i._ZN18Microsoft_MapPoint10TileSystem7MapSizeEi
    tilesystem.o(.ARM.exidx) refers to tilesystem.o(i._ZN18Microsoft_MapPoint10TileSystem16GroundResolutionEdi) for i._ZN18Microsoft_MapPoint10TileSystem16GroundResolutionEdi
    tilesystem.o(.ARM.exidx) refers to tilesystem.o(i._ZN18Microsoft_MapPoint10TileSystem8MapScaleEdii) for i._ZN18Microsoft_MapPoint10TileSystem8MapScaleEdii
    tilesystem.o(.ARM.exidx) refers to tilesystem.o(i._ZN18Microsoft_MapPoint10TileSystem16LatLongToPixelXYEddiPiS1_) for i._ZN18Microsoft_MapPoint10TileSystem16LatLongToPixelXYEddiPiS1_
    tilesystem.o(.ARM.exidx) refers to tilesystem.o(i._ZN18Microsoft_MapPoint10TileSystem16PixelXYToLatLongEiiiPdS1_) for i._ZN18Microsoft_MapPoint10TileSystem16PixelXYToLatLongEiiiPdS1_
    tilesystem.o(.ARM.exidx) refers to tilesystem.o(i._ZN18Microsoft_MapPoint10TileSystem15PixelXYToTileXYEiiPiS1_) for i._ZN18Microsoft_MapPoint10TileSystem15PixelXYToTileXYEiiPiS1_
    tilesystem.o(.ARM.exidx) refers to tilesystem.o(i._ZN18Microsoft_MapPoint10TileSystem15TileXYToPixelXYEiiPiS1_) for i._ZN18Microsoft_MapPoint10TileSystem15TileXYToPixelXYEiiPiS1_
    tilesystem.o(.ARM.exidx) refers to tilesystem.o(i._ZN18Microsoft_MapPoint10TileSystem15TileXYToQuadKeyEiiiPcj) for i._ZN18Microsoft_MapPoint10TileSystem15TileXYToQuadKeyEiiiPcj
    tilesystem.o(.ARM.exidx) refers to tilesystem.o(i._ZN18Microsoft_MapPoint10TileSystem15QuadKeyToTileXYEPKcPiS3_S3_) for i._ZN18Microsoft_MapPoint10TileSystem15QuadKeyToTileXYEPKcPiS3_S3_
    new.o(i._Z11first_allocj) refers to lv_obj.o(i.lv_is_initialized) for lv_is_initialized
    new.o(i._Z11first_allocj) refers to lv_obj.o(i.lv_init) for lv_init
    new.o(i._Z11first_allocj) refers to lv_mem.o(i.lv_mem_alloc) for lv_mem_alloc
    new.o(i._Z11first_allocj) refers to new.o(.data) for .data
    new.o(i._ZdaPv) refers to lv_mem.o(i.lv_mem_free) for lv_mem_free
    new.o(i._ZdlPv) refers to lv_mem.o(i.lv_mem_free) for lv_mem_free
    new.o(i._Znaj) refers to new.o(.data) for .data
    new.o(i._Znwj) refers to new.o(.data) for .data
    new.o(.ARM.exidx) refers to new.o(i._Z11first_allocj) for i._Z11first_allocj
    new.o(.ARM.exidx) refers to new.o(i._Znwj) for i._Znwj
    new.o(.ARM.exidx) refers to new.o(i._Znaj) for i._Znaj
    new.o(.ARM.exidx) refers to new.o(i._ZdlPv) for i._ZdlPv
    new.o(.ARM.exidx) refers to new.o(i._ZdaPv) for i._ZdaPv
    new.o(.data) refers to new.o(i._Z11first_allocj) for first_alloc(unsigned)
    pm_anim.o(i._ZN11PageManager15GetLoadAnimAttrEhPNS_14LoadAnimAttr_tE) refers to lv_hal_disp.o(i.lv_disp_get_default) for lv_disp_get_default
    pm_anim.o(i._ZN11PageManager15GetLoadAnimAttrEhPNS_14LoadAnimAttr_tE) refers to lv_hal_disp.o(i.lv_disp_get_hor_res) for lv_disp_get_hor_res
    pm_anim.o(i._ZN11PageManager15GetLoadAnimAttrEhPNS_14LoadAnimAttr_tE) refers to lv_hal_disp.o(i.lv_disp_get_ver_res) for lv_disp_get_ver_res
    pm_anim.o(i._ZN11PageManager15GetLoadAnimAttrEhPNS_14LoadAnimAttr_tE) refers to rt_memclr_w.o(.text) for __aeabi_memclr4
    pm_anim.o(i._ZN11PageManager15GetLoadAnimAttrEhPNS_14LoadAnimAttr_tE) refers to pm_anim.o(i._ZZN11PageManager15GetLoadAnimAttrEhPNS_14LoadAnimAttr_tEENUlPviE_4_FUNES2_i) for PageManager::GetLoadAnimAttr(unsigned char, PageManager::LoadAnimAttr_t*)::[lambda(void*, int) (instance 1)]::_FUN(void*, int)
    pm_anim.o(i._ZN11PageManager15GetLoadAnimAttrEhPNS_14LoadAnimAttr_tE) refers to pm_anim.o(i._ZZN11PageManager15GetLoadAnimAttrEhPNS_14LoadAnimAttr_tEENUlPvE_4_FUNES2_) for PageManager::GetLoadAnimAttr(unsigned char, PageManager::LoadAnimAttr_t*)::[lambda(void*) (instance 1)]::_FUN(void*)
    pm_anim.o(i._ZN11PageManager15GetLoadAnimAttrEhPNS_14LoadAnimAttr_tE) refers to pm_anim.o(i._ZZN11PageManager15GetLoadAnimAttrEhPNS_14LoadAnimAttr_tEENUlPviE0_4_FUNES2_i) for PageManager::GetLoadAnimAttr(unsigned char, PageManager::LoadAnimAttr_t*)::[lambda(void*, int) (instance 2)]::_FUN(void*, int)
    pm_anim.o(i._ZN11PageManager15GetLoadAnimAttrEhPNS_14LoadAnimAttr_tE) refers to pm_anim.o(i._ZZN11PageManager15GetLoadAnimAttrEhPNS_14LoadAnimAttr_tEENUlPvE0_4_FUNES2_) for PageManager::GetLoadAnimAttr(unsigned char, PageManager::LoadAnimAttr_t*)::[lambda(void*) (instance 2)]::_FUN(void*)
    pm_anim.o(i._ZN11PageManager15GetLoadAnimAttrEhPNS_14LoadAnimAttr_tE) refers to pm_anim.o(i._ZZN11PageManager15GetLoadAnimAttrEhPNS_14LoadAnimAttr_tEENUlPviE1_4_FUNES2_i) for PageManager::GetLoadAnimAttr(unsigned char, PageManager::LoadAnimAttr_t*)::[lambda(void*, int) (instance 3)]::_FUN(void*, int)
    pm_anim.o(i._ZN11PageManager15GetLoadAnimAttrEhPNS_14LoadAnimAttr_tE) refers to pm_anim.o(i._ZZN11PageManager15GetLoadAnimAttrEhPNS_14LoadAnimAttr_tEENUlPvE1_4_FUNES2_) for PageManager::GetLoadAnimAttr(unsigned char, PageManager::LoadAnimAttr_t*)::[lambda(void*) (instance 3)]::_FUN(void*)
    pm_anim.o(i._ZZN11PageManager15GetLoadAnimAttrEhPNS_14LoadAnimAttr_tEENUlPvE0_4_FUNES2_) refers to lv_obj_pos.o(i.lv_obj_get_y) for lv_obj_get_y
    pm_anim.o(i._ZZN11PageManager15GetLoadAnimAttrEhPNS_14LoadAnimAttr_tEENUlPvE1_4_FUNES2_) refers to lv_obj_style.o(i.lv_obj_get_style_prop) for lv_obj_get_style_prop
    pm_anim.o(i._ZZN11PageManager15GetLoadAnimAttrEhPNS_14LoadAnimAttr_tEENUlPvE_4_FUNES2_) refers to lv_obj_pos.o(i.lv_obj_get_x) for lv_obj_get_x
    pm_anim.o(i._ZZN11PageManager15GetLoadAnimAttrEhPNS_14LoadAnimAttr_tEENUlPviE0_4_FUNES2_i) refers to lv_obj_pos.o(i.lv_obj_set_y) for lv_obj_set_y
    pm_anim.o(i._ZZN11PageManager15GetLoadAnimAttrEhPNS_14LoadAnimAttr_tEENUlPviE1_4_FUNES2_i) refers to lv_obj_style_gen.o(i.lv_obj_set_style_bg_opa) for lv_obj_set_style_bg_opa
    pm_anim.o(i._ZZN11PageManager15GetLoadAnimAttrEhPNS_14LoadAnimAttr_tEENUlPviE_4_FUNES2_i) refers to lv_obj_pos.o(i.lv_obj_set_x) for lv_obj_set_x
    pm_anim.o(.ARM.exidx) refers to pm_anim.o(i._ZZN11PageManager15GetLoadAnimAttrEhPNS_14LoadAnimAttr_tEENUlPvE1_4_FUNES2_) for i._ZZN11PageManager15GetLoadAnimAttrEhPNS_14LoadAnimAttr_tEENUlPvE1_4_FUNES2_
    pm_anim.o(.ARM.exidx) refers to pm_anim.o(i._ZZN11PageManager15GetLoadAnimAttrEhPNS_14LoadAnimAttr_tEENUlPviE1_4_FUNES2_i) for i._ZZN11PageManager15GetLoadAnimAttrEhPNS_14LoadAnimAttr_tEENUlPviE1_4_FUNES2_i
    pm_anim.o(.ARM.exidx) refers to pm_anim.o(i._ZZN11PageManager15GetLoadAnimAttrEhPNS_14LoadAnimAttr_tEENUlPvE0_4_FUNES2_) for i._ZZN11PageManager15GetLoadAnimAttrEhPNS_14LoadAnimAttr_tEENUlPvE0_4_FUNES2_
    pm_anim.o(.ARM.exidx) refers to pm_anim.o(i._ZZN11PageManager15GetLoadAnimAttrEhPNS_14LoadAnimAttr_tEENUlPviE0_4_FUNES2_i) for i._ZZN11PageManager15GetLoadAnimAttrEhPNS_14LoadAnimAttr_tEENUlPviE0_4_FUNES2_i
    pm_anim.o(.ARM.exidx) refers to pm_anim.o(i._ZZN11PageManager15GetLoadAnimAttrEhPNS_14LoadAnimAttr_tEENUlPvE_4_FUNES2_) for i._ZZN11PageManager15GetLoadAnimAttrEhPNS_14LoadAnimAttr_tEENUlPvE_4_FUNES2_
    pm_anim.o(.ARM.exidx) refers to pm_anim.o(i._ZZN11PageManager15GetLoadAnimAttrEhPNS_14LoadAnimAttr_tEENUlPviE_4_FUNES2_i) for i._ZZN11PageManager15GetLoadAnimAttrEhPNS_14LoadAnimAttr_tEENUlPviE_4_FUNES2_i
    pm_anim.o(.ARM.exidx) refers to pm_anim.o(i._ZN11PageManager15GetLoadAnimAttrEhPNS_14LoadAnimAttr_tE) for i._ZN11PageManager15GetLoadAnimAttrEhPNS_14LoadAnimAttr_tE
    pm_base.o(i._ZN11PageManager10UnregisterEPKc) refers to pm_base.o(i._ZN11PageManager15FindPageInStackEPKc) for PageManager::FindPageInStack(const char*)
    pm_base.o(i._ZN11PageManager10UnregisterEPKc) refers to pm_base.o(i._ZN11PageManager14FindPageInPoolEPKc) for PageManager::FindPageInPool(const char*)
    pm_base.o(i._ZN11PageManager11GetStackTopEv) refers to pm_base.o(t._ZNKSt5stackIP8PageBaseSt5dequeIS1_SaIS1_EEE5emptyEv) for std::stack<PageBase*, std::deque<PageBase*, std::allocator<PageBase*>>>::empty() const
    pm_base.o(i._ZN11PageManager11GetStackTopEv) refers to pm_base.o(t._ZNSt5dequeIP8PageBaseSaIS1_EE4backEv) for std::deque<PageBase*, std::allocator<PageBase*>>::back()
    pm_base.o(i._ZN11PageManager13SetStackClearEb) refers to pm_base.o(i._ZN11PageManager11GetStackTopEv) for PageManager::GetStackTop()
    pm_base.o(i._ZN11PageManager13SetStackClearEb) refers to pm_base.o(i._ZN11PageManager16GetStackTopAfterEv) for PageManager::GetStackTopAfter()
    pm_base.o(i._ZN11PageManager13SetStackClearEb) refers to pm_router.o(i._ZN11PageManager12FourceUnloadEP8PageBase) for PageManager::FourceUnload(PageBase*)
    pm_base.o(i._ZN11PageManager13SetStackClearEb) refers to pm_base.o(t._ZNSt5stackIP8PageBaseSt5dequeIS1_SaIS1_EEE3popEv) for std::stack<PageBase*, std::deque<PageBase*, std::allocator<PageBase*>>>::pop()
    pm_base.o(i._ZN11PageManager14FindPageInPoolEPKc) refers to strcmpv7m.o(.text) for strcmp
    pm_base.o(i._ZN11PageManager15FindPageInStackEPKc) refers to pm_base.o(t._ZNSt5dequeIP8PageBaseSaIS1_EEC1ERKS3_) for std::deque<PageBase*, std::allocator<PageBase*>>::deque(const std::deque<PageBase*, std::allocator<PageBase*>>&)
    pm_base.o(i._ZN11PageManager15FindPageInStackEPKc) refers to pm_base.o(t._ZNSt5dequeIP8PageBaseSaIS1_EE4backEv) for std::deque<PageBase*, std::allocator<PageBase*>>::back()
    pm_base.o(i._ZN11PageManager15FindPageInStackEPKc) refers to strcmpv7m.o(.text) for strcmp
    pm_base.o(i._ZN11PageManager15FindPageInStackEPKc) refers to pm_base.o(t._ZNSt5stackIP8PageBaseSt5dequeIS1_SaIS1_EEE3popEv) for std::stack<PageBase*, std::deque<PageBase*, std::allocator<PageBase*>>>::pop()
    pm_base.o(i._ZN11PageManager15FindPageInStackEPKc) refers to pm_base.o(t._ZNKSt5stackIP8PageBaseSt5dequeIS1_SaIS1_EEE5emptyEv) for std::stack<PageBase*, std::deque<PageBase*, std::allocator<PageBase*>>>::empty() const
    pm_base.o(i._ZN11PageManager15FindPageInStackEPKc) refers to pm_base.o(t._ZNSt5dequeIP8PageBaseSaIS1_EED1Ev) for std::deque<PageBase*, std::allocator<PageBase*>>::~deque()
    pm_base.o(i._ZN11PageManager16GetStackTopAfterEv) refers to pm_base.o(i._ZN11PageManager11GetStackTopEv) for PageManager::GetStackTop()
    pm_base.o(i._ZN11PageManager16GetStackTopAfterEv) refers to pm_base.o(t._ZNSt5stackIP8PageBaseSt5dequeIS1_SaIS1_EEE3popEv) for std::stack<PageBase*, std::deque<PageBase*, std::allocator<PageBase*>>>::pop()
    pm_base.o(i._ZN11PageManager16GetStackTopAfterEv) refers to pm_base.o(t._ZNSt5dequeIP8PageBaseSaIS1_EE9push_backERKS1_) for std::deque<PageBase*, std::allocator<PageBase*>>::push_back(PageBase*const &)
    pm_base.o(i._ZN11PageManager7InstallEPKcS1_) refers to rt_memclr_w.o(.text) for __aeabi_memclr4
    pm_base.o(i._ZN11PageManager7InstallEPKcS1_) refers to pm_base.o(i._ZN11PageManager8RegisterEP8PageBasePKc) for PageManager::Register(PageBase*, const char*)
    pm_base.o(i._ZN11PageManager8RegisterEP8PageBasePKc) refers to pm_base.o(i._ZN11PageManager14FindPageInPoolEPKc) for PageManager::FindPageInPool(const char*)
    pm_base.o(i._ZN11PageManager8RegisterEP8PageBasePKc) refers to pm_base.o(t._ZNSt6vectorIP8PageBaseSaIS1_EE13_C_insert_auxEPS1_RKS1_) for std::vector<PageBase*, std::allocator<PageBase*>>::_C_insert_aux(PageBase**, PageBase*const &)
    pm_base.o(i._ZN11PageManager9UninstallEPKc) refers to pm_base.o(i._ZN11PageManager14FindPageInPoolEPKc) for PageManager::FindPageInPool(const char*)
    pm_base.o(i._ZN11PageManager9UninstallEPKc) refers to pm_base.o(i._ZN11PageManager10UnregisterEPKc) for PageManager::Unregister(const char*)
    pm_base.o(i._ZN11PageManager9UninstallEPKc) refers to pm_state.o(i._ZN11PageManager11StateUpdateEP8PageBase) for PageManager::StateUpdate(PageBase*)
    pm_base.o(i._ZN11PageManagerC1EP11PageFactory) refers to pm_base.o(t._ZNSt5dequeIP8PageBaseSaIS1_EE7_C_initEv) for std::deque<PageBase*, std::allocator<PageBase*>>::_C_init()
    pm_base.o(i._ZN11PageManagerC1EP11PageFactory) refers to pm_base.o(t._ZNSt5dequeIP8PageBaseSaIS1_EEC1ERKS3_) for std::deque<PageBase*, std::allocator<PageBase*>>::deque(const std::deque<PageBase*, std::allocator<PageBase*>>&)
    pm_base.o(i._ZN11PageManagerC1EP11PageFactory) refers to pm_base.o(t._ZNSt5dequeIP8PageBaseSaIS1_EED1Ev) for std::deque<PageBase*, std::allocator<PageBase*>>::~deque()
    pm_base.o(i._ZN11PageManagerC1EP11PageFactory) refers to rt_memclr_w.o(.text) for __aeabi_memclr4
    pm_base.o(i._ZN11PageManagerC1EP11PageFactory) refers to pm_router.o(i._ZN11PageManager21SetGlobalLoadAnimTypeENS_10LoadAnim_tEtPFiPK10_lv_anim_tE) for PageManager::SetGlobalLoadAnimType(PageManager::LoadAnim_t, unsigned short, int(*)(const _lv_anim_t*))
    pm_base.o(i._ZN11PageManagerC1EP11PageFactory) refers to lv_anim.o(i.lv_anim_path_ease_out) for lv_anim_path_ease_out
    pm_base.o(i._ZN11PageManagerD1Ev) refers to pm_base.o(t._ZNSt5dequeIP8PageBaseSaIS1_EED1Ev) for std::deque<PageBase*, std::allocator<PageBase*>>::~deque()
    pm_base.o(i._ZN11PageManagerD1Ev) refers to pm_base.o(t._ZNSaIP8PageBaseE10deallocateEPS0_j) for std::allocator<PageBase*>::deallocate(PageBase**, unsigned)
    pm_base.o(.ARM.exidx) refers to pm_base.o(i._ZN11PageManagerC1EP11PageFactory) for i._ZN11PageManagerC1EP11PageFactory
    pm_base.o(.ARM.exidx) refers to pm_base.o(i._ZN11PageManagerD1Ev) for i._ZN11PageManagerD1Ev
    pm_base.o(.ARM.exidx) refers to pm_base.o(i._ZN11PageManager14FindPageInPoolEPKc) for i._ZN11PageManager14FindPageInPoolEPKc
    pm_base.o(.ARM.exidx) refers to pm_base.o(i._ZN11PageManager8RegisterEP8PageBasePKc) for i._ZN11PageManager8RegisterEP8PageBasePKc
    pm_base.o(.ARM.exidx) refers to pm_base.o(i._ZN11PageManager7InstallEPKcS1_) for i._ZN11PageManager7InstallEPKcS1_
    pm_base.o(.ARM.exidx) refers to pm_base.o(i._ZN11PageManager15FindPageInStackEPKc) for i._ZN11PageManager15FindPageInStackEPKc
    pm_base.o(.ARM.exidx) refers to pm_base.o(i._ZN11PageManager10UnregisterEPKc) for i._ZN11PageManager10UnregisterEPKc
    pm_base.o(.ARM.exidx) refers to pm_base.o(i._ZN11PageManager9UninstallEPKc) for i._ZN11PageManager9UninstallEPKc
    pm_base.o(.ARM.exidx) refers to pm_base.o(i._ZN11PageManager15GetPagePrevNameEv) for i._ZN11PageManager15GetPagePrevNameEv
    pm_base.o(.ARM.exidx) refers to pm_base.o(i._ZN11PageManager11GetStackTopEv) for i._ZN11PageManager11GetStackTopEv
    pm_base.o(.ARM.exidx) refers to pm_base.o(i._ZN11PageManager16GetStackTopAfterEv) for i._ZN11PageManager16GetStackTopAfterEv
    pm_base.o(.ARM.exidx) refers to pm_base.o(i._ZN11PageManager13SetStackClearEb) for i._ZN11PageManager13SetStackClearEb
    pm_drag.o(i._ZN11PageManager14RootEnableDragEP9_lv_obj_t) refers to lv_event.o(i.lv_obj_add_event_cb) for lv_obj_add_event_cb
    pm_drag.o(i._ZN11PageManager14RootEnableDragEP9_lv_obj_t) refers to pm_drag.o(i._ZN11PageManager15onRootDragEventEP11_lv_event_t) for PageManager::onRootDragEvent(_lv_event_t*)
    pm_drag.o(i._ZN11PageManager15onRootDragEventEP11_lv_event_t) refers to lv_event.o(i.lv_event_get_code) for lv_event_get_code
    pm_drag.o(i._ZN11PageManager16onRootAsyncLeaveEPv) refers to lv_event.o(i.lv_event_send) for lv_event_send
    pm_drag.o(i._ZN11PageManager18RootGetDragPredictEPsS0_) refers to lv_indev.o(i.lv_indev_get_act) for lv_indev_get_act
    pm_drag.o(i._ZN11PageManager18RootGetDragPredictEPsS0_) refers to lv_indev.o(i.lv_indev_get_vect) for lv_indev_get_vect
    pm_drag.o(.ARM.exidx) refers to pm_drag.o(i._ZN11PageManager16onRootAnimFinishEP10_lv_anim_t) for i._ZN11PageManager16onRootAnimFinishEP10_lv_anim_t
    pm_drag.o(.ARM.exidx) refers to pm_drag.o(i._ZN11PageManager16onRootAsyncLeaveEPv) for i._ZN11PageManager16onRootAsyncLeaveEPv
    pm_drag.o(.ARM.exidx) refers to pm_drag.o(i._ZN11PageManager18RootGetDragPredictEPsS0_) for i._ZN11PageManager18RootGetDragPredictEPsS0_
    pm_drag.o(.ARM.exidx) refers to pm_drag.o(i._ZN11PageManager15onRootDragEventEP11_lv_event_t) for i._ZN11PageManager15onRootDragEventEP11_lv_event_t
    pm_drag.o(.ARM.exidx) refers to pm_drag.o(i._ZN11PageManager14RootEnableDragEP9_lv_obj_t) for i._ZN11PageManager14RootEnableDragEP9_lv_obj_t
    pm_router.o(i._ZN11PageManager12FourceUnloadEP8PageBase) refers to pm_state.o(i._ZN11PageManager18StateUnloadExecuteEP8PageBase) for PageManager::StateUnloadExecute(PageBase*)
    pm_router.o(i._ZN11PageManager15AnimDefaultInitEP10_lv_anim_t) refers to lv_anim.o(i.lv_anim_init) for lv_anim_init
    pm_router.o(i._ZN11PageManager16SwitchAnimCreateEP8PageBase) refers to pm_anim.o(i._ZN11PageManager15GetLoadAnimAttrEhPNS_14LoadAnimAttr_tE) for PageManager::GetLoadAnimAttr(unsigned char, PageManager::LoadAnimAttr_t*)
    pm_router.o(i._ZN11PageManager16SwitchAnimCreateEP8PageBase) refers to pm_router.o(i._ZN11PageManager15AnimDefaultInitEP10_lv_anim_t) for PageManager::AnimDefaultInit(_lv_anim_t*)
    pm_router.o(i._ZN11PageManager16SwitchAnimCreateEP8PageBase) refers to lv_anim.o(i.lv_anim_start) for lv_anim_start
    pm_router.o(i._ZN11PageManager16SwitchAnimCreateEP8PageBase) refers to pm_router.o(i._ZN11PageManager18onSwitchAnimFinishEP10_lv_anim_t) for PageManager::onSwitchAnimFinish(_lv_anim_t*)
    pm_router.o(i._ZN11PageManager18onSwitchAnimFinishEP10_lv_anim_t) refers to pm_state.o(i._ZN11PageManager11StateUpdateEP8PageBase) for PageManager::StateUpdate(PageBase*)
    pm_router.o(i._ZN11PageManager18onSwitchAnimFinishEP10_lv_anim_t) refers to pm_router.o(i._ZN11PageManager14SwitchReqCheckEv) for PageManager::SwitchReqCheck()
    pm_router.o(i._ZN11PageManager18onSwitchAnimFinishEP10_lv_anim_t) refers to pm_router.o(i._ZN11PageManager20SwitchAnimTypeUpdateEP8PageBase) for PageManager::SwitchAnimTypeUpdate(PageBase*)
    pm_router.o(i._ZN11PageManager3PopEv) refers to pm_router.o(i._ZN11PageManager20SwitchAnimStateCheckEv) for PageManager::SwitchAnimStateCheck()
    pm_router.o(i._ZN11PageManager3PopEv) refers to pm_base.o(i._ZN11PageManager11GetStackTopEv) for PageManager::GetStackTop()
    pm_router.o(i._ZN11PageManager3PopEv) refers to pm_base.o(t._ZNSt5dequeIP8PageBaseSaIS1_EE14_C_free_at_endEv) for std::deque<PageBase*, std::allocator<PageBase*>>::_C_free_at_end()
    pm_router.o(i._ZN11PageManager3PopEv) refers to pm_router.o(i._ZN11PageManager8SwitchToEP8PageBasebPKNS0_7Stash_tE) for PageManager::SwitchTo(PageBase*, bool, const PageBase::Stash_t*)
    pm_router.o(i._ZN11PageManager4PushEPKcPKN8PageBase7Stash_tE) refers to pm_router.o(i._ZN11PageManager20SwitchAnimStateCheckEv) for PageManager::SwitchAnimStateCheck()
    pm_router.o(i._ZN11PageManager4PushEPKcPKN8PageBase7Stash_tE) refers to pm_base.o(i._ZN11PageManager15FindPageInStackEPKc) for PageManager::FindPageInStack(const char*)
    pm_router.o(i._ZN11PageManager4PushEPKcPKN8PageBase7Stash_tE) refers to pm_base.o(i._ZN11PageManager14FindPageInPoolEPKc) for PageManager::FindPageInPool(const char*)
    pm_router.o(i._ZN11PageManager4PushEPKcPKN8PageBase7Stash_tE) refers to pm_base.o(t._ZNSt5dequeIP8PageBaseSaIS1_EE15_C_alloc_at_endEv) for std::deque<PageBase*, std::allocator<PageBase*>>::_C_alloc_at_end()
    pm_router.o(i._ZN11PageManager4PushEPKcPKN8PageBase7Stash_tE) refers to pm_router.o(i._ZN11PageManager8SwitchToEP8PageBasebPKNS0_7Stash_tE) for PageManager::SwitchTo(PageBase*, bool, const PageBase::Stash_t*)
    pm_router.o(i._ZN11PageManager8BackHomeEv) refers to pm_router.o(i._ZN11PageManager20SwitchAnimStateCheckEv) for PageManager::SwitchAnimStateCheck()
    pm_router.o(i._ZN11PageManager8BackHomeEv) refers to pm_base.o(i._ZN11PageManager13SetStackClearEb) for PageManager::SetStackClear(bool)
    pm_router.o(i._ZN11PageManager8BackHomeEv) refers to pm_base.o(i._ZN11PageManager11GetStackTopEv) for PageManager::GetStackTop()
    pm_router.o(i._ZN11PageManager8BackHomeEv) refers to pm_router.o(i._ZN11PageManager8SwitchToEP8PageBasebPKNS0_7Stash_tE) for PageManager::SwitchTo(PageBase*, bool, const PageBase::Stash_t*)
    pm_router.o(i._ZN11PageManager8SwitchToEP8PageBasebPKNS0_7Stash_tE) refers to rt_memcpy_v6.o(.text) for __aeabi_memcpy
    pm_router.o(i._ZN11PageManager8SwitchToEP8PageBasebPKNS0_7Stash_tE) refers to lv_mem.o(i.lv_mem_alloc) for lv_mem_alloc
    pm_router.o(i._ZN11PageManager8SwitchToEP8PageBasebPKNS0_7Stash_tE) refers to pm_router.o(i._ZN11PageManager20SwitchAnimTypeUpdateEP8PageBase) for PageManager::SwitchAnimTypeUpdate(PageBase*)
    pm_router.o(i._ZN11PageManager8SwitchToEP8PageBasebPKNS0_7Stash_tE) refers to pm_state.o(i._ZN11PageManager11StateUpdateEP8PageBase) for PageManager::StateUpdate(PageBase*)
    pm_router.o(i._ZN11PageManager8SwitchToEP8PageBasebPKNS0_7Stash_tE) refers to pm_router.o(i._ZN35_INTERNAL_13_PM_Router_cpp_987e782b22lv_obj_move_foregroundEP9_lv_obj_t) for [local to PM_Router_cpp]::lv_obj_move_foreground(_lv_obj_t*)
    pm_router.o(i._ZN35_INTERNAL_13_PM_Router_cpp_987e782b22lv_obj_move_foregroundEP9_lv_obj_t) refers to lv_obj_tree.o(i.lv_obj_get_parent) for lv_obj_get_parent
    pm_router.o(i._ZN35_INTERNAL_13_PM_Router_cpp_987e782b22lv_obj_move_foregroundEP9_lv_obj_t) refers to lv_obj_tree.o(i.lv_obj_get_child_cnt) for lv_obj_get_child_cnt
    pm_router.o(i._ZN35_INTERNAL_13_PM_Router_cpp_987e782b22lv_obj_move_foregroundEP9_lv_obj_t) refers to lv_obj_tree.o(i.lv_obj_move_to_index) for lv_obj_move_to_index
    pm_router.o(.ARM.exidx) refers to pm_router.o(i._ZN11PageManager20SwitchAnimTypeUpdateEP8PageBase) for i._ZN11PageManager20SwitchAnimTypeUpdateEP8PageBase
    pm_router.o(.ARM.exidx) refers to pm_router.o(i._ZN11PageManager8SwitchToEP8PageBasebPKNS0_7Stash_tE) for i._ZN11PageManager8SwitchToEP8PageBasebPKNS0_7Stash_tE
    pm_router.o(.ARM.exidx) refers to pm_router.o(i._ZN11PageManager20SwitchAnimStateCheckEv) for i._ZN11PageManager20SwitchAnimStateCheckEv
    pm_router.o(.ARM.exidx) refers to pm_router.o(i._ZN11PageManager4PushEPKcPKN8PageBase7Stash_tE) for i._ZN11PageManager4PushEPKcPKN8PageBase7Stash_tE
    pm_router.o(.ARM.exidx) refers to pm_router.o(i._ZN11PageManager3PopEv) for i._ZN11PageManager3PopEv
    pm_router.o(.ARM.exidx) refers to pm_router.o(i._ZN11PageManager8BackHomeEv) for i._ZN11PageManager8BackHomeEv
    pm_router.o(.ARM.exidx) refers to pm_router.o(i._ZN11PageManager21SetGlobalLoadAnimTypeENS_10LoadAnim_tEtPFiPK10_lv_anim_tE) for i._ZN11PageManager21SetGlobalLoadAnimTypeENS_10LoadAnim_tEtPFiPK10_lv_anim_tE
    pm_router.o(.ARM.exidx) refers to pm_router.o(i._ZN11PageManager12FourceUnloadEP8PageBase) for i._ZN11PageManager12FourceUnloadEP8PageBase
    pm_router.o(.ARM.exidx) refers to pm_router.o(i._ZN11PageManager15AnimDefaultInitEP10_lv_anim_t) for i._ZN11PageManager15AnimDefaultInitEP10_lv_anim_t
    pm_router.o(.ARM.exidx) refers to pm_router.o(i._ZN11PageManager14SwitchReqCheckEv) for i._ZN11PageManager14SwitchReqCheckEv
    pm_router.o(.ARM.exidx) refers to pm_router.o(i._ZN11PageManager18onSwitchAnimFinishEP10_lv_anim_t) for i._ZN11PageManager18onSwitchAnimFinishEP10_lv_anim_t
    pm_router.o(.ARM.exidx) refers to pm_router.o(i._ZN11PageManager16SwitchAnimCreateEP8PageBase) for i._ZN11PageManager16SwitchAnimCreateEP8PageBase
    pm_router.o(.ARM.exidx) refers to pm_router.o(i._ZN35_INTERNAL_13_PM_Router_cpp_987e782b22lv_obj_move_foregroundEP9_lv_obj_t) for i._ZN35_INTERNAL_13_PM_Router_cpp_987e782b22lv_obj_move_foregroundEP9_lv_obj_t
    pm_state.o(i._ZN11PageManager11StateUpdateEP8PageBase) refers to pm_state.o(i._ZN11PageManager16StateLoadExecuteEP8PageBase) for PageManager::StateLoadExecute(PageBase*)
    pm_state.o(i._ZN11PageManager11StateUpdateEP8PageBase) refers to pm_state.o(i._ZN11PageManager22StateWillAppearExecuteEP8PageBase) for PageManager::StateWillAppearExecute(PageBase*)
    pm_state.o(i._ZN11PageManager11StateUpdateEP8PageBase) refers to pm_state.o(i._ZN11PageManager21StateDidAppearExecuteEP8PageBase) for PageManager::StateDidAppearExecute(PageBase*)
    pm_state.o(i._ZN11PageManager11StateUpdateEP8PageBase) refers to pm_state.o(i._ZN11PageManager25StateWillDisappearExecuteEP8PageBase) for PageManager::StateWillDisappearExecute(PageBase*)
    pm_state.o(i._ZN11PageManager11StateUpdateEP8PageBase) refers to pm_state.o(i._ZN11PageManager24StateDidDisappearExecuteEP8PageBase) for PageManager::StateDidDisappearExecute(PageBase*)
    pm_state.o(i._ZN11PageManager11StateUpdateEP8PageBase) refers to pm_state.o(i._ZN11PageManager18StateUnloadExecuteEP8PageBase) for PageManager::StateUnloadExecute(PageBase*)
    pm_state.o(i._ZN11PageManager16StateLoadExecuteEP8PageBase) refers to lv_hal_disp.o(i.lv_disp_get_default) for lv_disp_get_default
    pm_state.o(i._ZN11PageManager16StateLoadExecuteEP8PageBase) refers to lv_disp.o(i.lv_disp_get_scr_act) for lv_disp_get_scr_act
    pm_state.o(i._ZN11PageManager16StateLoadExecuteEP8PageBase) refers to lv_obj.o(i.lv_obj_create) for lv_obj_create
    pm_state.o(i._ZN11PageManager16StateLoadExecuteEP8PageBase) refers to lv_hal_disp.o(i.lv_disp_get_ver_res) for lv_disp_get_ver_res
    pm_state.o(i._ZN11PageManager16StateLoadExecuteEP8PageBase) refers to lv_hal_disp.o(i.lv_disp_get_hor_res) for lv_disp_get_hor_res
    pm_state.o(i._ZN11PageManager16StateLoadExecuteEP8PageBase) refers to lv_obj_pos.o(i.lv_obj_set_size) for lv_obj_set_size
    pm_state.o(i._ZN11PageManager16StateLoadExecuteEP8PageBase) refers to lv_obj.o(i.lv_obj_clear_flag) for lv_obj_clear_flag
    pm_state.o(i._ZN11PageManager16StateLoadExecuteEP8PageBase) refers to pm_base.o(i._ZN11PageManager16GetStackTopAfterEv) for PageManager::GetStackTopAfter()
    pm_state.o(i._ZN11PageManager16StateLoadExecuteEP8PageBase) refers to pm_anim.o(i._ZN11PageManager15GetLoadAnimAttrEhPNS_14LoadAnimAttr_tE) for PageManager::GetLoadAnimAttr(unsigned char, PageManager::LoadAnimAttr_t*)
    pm_state.o(i._ZN11PageManager16StateLoadExecuteEP8PageBase) refers to pm_drag.o(i._ZN11PageManager14RootEnableDragEP9_lv_obj_t) for PageManager::RootEnableDrag(_lv_obj_t*)
    pm_state.o(i._ZN11PageManager18StateUnloadExecuteEP8PageBase) refers to lv_mem.o(i.lv_mem_free) for lv_mem_free
    pm_state.o(i._ZN11PageManager18StateUnloadExecuteEP8PageBase) refers to lv_obj_tree.o(i.lv_obj_del_async) for lv_obj_del_async
    pm_state.o(i._ZN11PageManager22StateWillAppearExecuteEP8PageBase) refers to lv_obj.o(i.lv_obj_clear_flag) for lv_obj_clear_flag
    pm_state.o(i._ZN11PageManager22StateWillAppearExecuteEP8PageBase) refers to pm_router.o(i._ZN11PageManager16SwitchAnimCreateEP8PageBase) for PageManager::SwitchAnimCreate(PageBase*)
    pm_state.o(i._ZN11PageManager24StateDidDisappearExecuteEP8PageBase) refers to lv_obj.o(i.lv_obj_add_flag) for lv_obj_add_flag
    pm_state.o(i._ZN11PageManager25StateWillDisappearExecuteEP8PageBase) refers to pm_router.o(i._ZN11PageManager16SwitchAnimCreateEP8PageBase) for PageManager::SwitchAnimCreate(PageBase*)
    pm_state.o(.ARM.exidx) refers to pm_state.o(i._ZN11PageManager16StateLoadExecuteEP8PageBase) for i._ZN11PageManager16StateLoadExecuteEP8PageBase
    pm_state.o(.ARM.exidx) refers to pm_state.o(i._ZN11PageManager22StateWillAppearExecuteEP8PageBase) for i._ZN11PageManager22StateWillAppearExecuteEP8PageBase
    pm_state.o(.ARM.exidx) refers to pm_state.o(i._ZN11PageManager21StateDidAppearExecuteEP8PageBase) for i._ZN11PageManager21StateDidAppearExecuteEP8PageBase
    pm_state.o(.ARM.exidx) refers to pm_state.o(i._ZN11PageManager25StateWillDisappearExecuteEP8PageBase) for i._ZN11PageManager25StateWillDisappearExecuteEP8PageBase
    pm_state.o(.ARM.exidx) refers to pm_state.o(i._ZN11PageManager24StateDidDisappearExecuteEP8PageBase) for i._ZN11PageManager24StateDidDisappearExecuteEP8PageBase
    pm_state.o(.ARM.exidx) refers to pm_state.o(i._ZN11PageManager18StateUnloadExecuteEP8PageBase) for i._ZN11PageManager18StateUnloadExecuteEP8PageBase
    pm_state.o(.ARM.exidx) refers to pm_state.o(i._ZN11PageManager11StateUpdateEP8PageBase) for i._ZN11PageManager11StateUpdateEP8PageBase
    pointcontainer.o(i._ZN14PointContainer12PopFullPointEPNS_11FullPoint_tE) refers to pointcontainer.o(t._ZNKSt6vectorIN14PointContainer11DiffPoint_tESaIS1_EE4sizeEv) for std::vector<PointContainer::DiffPoint_t, std::allocator<PointContainer::DiffPoint_t>>::size() const
    pointcontainer.o(i._ZN14PointContainer13PushFullPointEPKNS_11FullPoint_tE) refers to pointcontainer.o(t._ZNSt6vectorIN14PointContainer11DiffPoint_tESaIS1_EE9push_backERKS1_) for std::vector<PointContainer::DiffPoint_t, std::allocator<PointContainer::DiffPoint_t>>::push_back(const PointContainer::DiffPoint_t&)
    pointcontainer.o(i._ZN14PointContainer8PopPointEPNS_11FullPoint_tE) refers to pointcontainer.o(t._ZNKSt6vectorIN14PointContainer11DiffPoint_tESaIS1_EE4sizeEv) for std::vector<PointContainer::DiffPoint_t, std::allocator<PointContainer::DiffPoint_t>>::size() const
    pointcontainer.o(i._ZN14PointContainer8PopPointEPNS_11FullPoint_tE) refers to pointcontainer.o(i._ZN14PointContainer12PopFullPointEPNS_11FullPoint_tE) for PointContainer::PopFullPoint(PointContainer::FullPoint_t*)
    pointcontainer.o(i._ZN14PointContainer9PushPointEPKNS_11FullPoint_tE) refers to pointcontainer.o(t._ZNKSt6vectorIN14PointContainer11DiffPoint_tESaIS1_EE4sizeEv) for std::vector<PointContainer::DiffPoint_t, std::allocator<PointContainer::DiffPoint_t>>::size() const
    pointcontainer.o(i._ZN14PointContainer9PushPointEPKNS_11FullPoint_tE) refers to pointcontainer.o(i._ZN14PointContainer6IsFlagEPKNS_11DiffPoint_tE) for PointContainer::IsFlag(const PointContainer::DiffPoint_t*)
    pointcontainer.o(i._ZN14PointContainer9PushPointEPKNS_11FullPoint_tE) refers to pointcontainer.o(i._ZN14PointContainer13PushFullPointEPKNS_11FullPoint_tE) for PointContainer::PushFullPoint(const PointContainer::FullPoint_t*)
    pointcontainer.o(i._ZN14PointContainer9PushPointEPKNS_11FullPoint_tE) refers to pointcontainer.o(t._ZNSt6vectorIN14PointContainer11DiffPoint_tESaIS1_EE9push_backERKS1_) for std::vector<PointContainer::DiffPoint_t, std::allocator<PointContainer::DiffPoint_t>>::push_back(const PointContainer::DiffPoint_t&)
    pointcontainer.o(i._ZN14PointContainerC1Ev) refers to rt_memclr_w.o(.text) for __aeabi_memclr4
    pointcontainer.o(i._ZN14PointContainerD1Ev) refers to rwalloc.o(i._ZN4__rw15__rw_deallocateEPvji) for __rw::__rw_deallocate(void*, unsigned, int)
    pointcontainer.o(.ARM.exidx) refers to pointcontainer.o(i._ZN14PointContainerC1Ev) for i._ZN14PointContainerC1Ev
    pointcontainer.o(.ARM.exidx) refers to pointcontainer.o(i._ZN14PointContainerD1Ev) for i._ZN14PointContainerD1Ev
    pointcontainer.o(.ARM.exidx) refers to pointcontainer.o(i._ZN14PointContainer8PopStartEv) for i._ZN14PointContainer8PopStartEv
    pointcontainer.o(.ARM.exidx) refers to pointcontainer.o(i._ZN14PointContainer13PushFullPointEPKNS_11FullPoint_tE) for i._ZN14PointContainer13PushFullPointEPKNS_11FullPoint_tE
    pointcontainer.o(.ARM.exidx) refers to pointcontainer.o(i._ZN14PointContainer6IsFlagEPKNS_11DiffPoint_tE) for i._ZN14PointContainer6IsFlagEPKNS_11DiffPoint_tE
    pointcontainer.o(.ARM.exidx) refers to pointcontainer.o(i._ZN14PointContainer9PushPointEPKNS_11FullPoint_tE) for i._ZN14PointContainer9PushPointEPKNS_11FullPoint_tE
    pointcontainer.o(.ARM.exidx) refers to pointcontainer.o(i._ZN14PointContainer12PopFullPointEPNS_11FullPoint_tE) for i._ZN14PointContainer12PopFullPointEPNS_11FullPoint_tE
    pointcontainer.o(.ARM.exidx) refers to pointcontainer.o(i._ZN14PointContainer8PopPointEPNS_11FullPoint_tE) for i._ZN14PointContainer8PopPointEPNS_11FullPoint_tE
    resourcemanager.o(i._ZN15ResourceManager10SearchNodeEPKcPNS_12ResourceNodeE) refers to strcmpv7m.o(.text) for strcmp
    resourcemanager.o(i._ZN15ResourceManager11AddResourceEPKcPv) refers to resourcemanager.o(i._ZN15ResourceManager10SearchNodeEPKcPNS_12ResourceNodeE) for ResourceManager::SearchNode(const char*, ResourceManager::ResourceNode*)
    resourcemanager.o(i._ZN15ResourceManager11AddResourceEPKcPv) refers to resourcemanager.o(t._ZNSaIN15ResourceManager12ResourceNodeEE9constructEPS0_RKS0_) for std::allocator<ResourceManager::ResourceNode>::construct(ResourceManager::ResourceNode*, const ResourceManager::ResourceNode&)
    resourcemanager.o(i._ZN15ResourceManager11AddResourceEPKcPv) refers to resourcemanager.o(t._ZNSt6vectorIN15ResourceManager12ResourceNodeESaIS1_EE13_C_insert_auxEPS1_RKS1_) for std::vector<ResourceManager::ResourceNode, std::allocator<ResourceManager::ResourceNode>>::_C_insert_aux(ResourceManager::ResourceNode*, const ResourceManager::ResourceNode&)
    resourcemanager.o(i._ZN15ResourceManager11GetResourceEPKc) refers to resourcemanager.o(i._ZN15ResourceManager10SearchNodeEPKcPNS_12ResourceNodeE) for ResourceManager::SearchNode(const char*, ResourceManager::ResourceNode*)
    resourcemanager.o(i._ZN15ResourceManager14RemoveResourceEPKc) refers to resourcemanager.o(i._ZN15ResourceManager10SearchNodeEPKcPNS_12ResourceNodeE) for ResourceManager::SearchNode(const char*, ResourceManager::ResourceNode*)
    resourcemanager.o(i._ZN15ResourceManagerD1Ev) refers to rwalloc.o(i._ZN4__rw15__rw_deallocateEPvji) for __rw::__rw_deallocate(void*, unsigned, int)
    resourcemanager.o(.ARM.exidx) refers to resourcemanager.o(i._ZN15ResourceManagerC1Ev) for i._ZN15ResourceManagerC1Ev
    resourcemanager.o(.ARM.exidx) refers to resourcemanager.o(i._ZN15ResourceManagerD1Ev) for i._ZN15ResourceManagerD1Ev
    resourcemanager.o(.ARM.exidx) refers to resourcemanager.o(i._ZN15ResourceManager10SearchNodeEPKcPNS_12ResourceNodeE) for i._ZN15ResourceManager10SearchNodeEPKcPNS_12ResourceNodeE
    resourcemanager.o(.ARM.exidx) refers to resourcemanager.o(i._ZN15ResourceManager11AddResourceEPKcPv) for i._ZN15ResourceManager11AddResourceEPKcPv
    resourcemanager.o(.ARM.exidx) refers to resourcemanager.o(i._ZN15ResourceManager14RemoveResourceEPKc) for i._ZN15ResourceManager14RemoveResourceEPKc
    resourcemanager.o(.ARM.exidx) refers to resourcemanager.o(i._ZN15ResourceManager11GetResourceEPKc) for i._ZN15ResourceManager11GetResourceEPKc
    resourcemanager.o(.ARM.exidx) refers to resourcemanager.o(i._ZN15ResourceManager10SetDefaultEPv) for i._ZN15ResourceManager10SetDefaultEPv
    storageservice.o(i._ZN14StorageService10SearchNodeEPKc) refers to strcmpv7m.o(.text) for strcmp
    storageservice.o(i._ZN14StorageService3AddEPKcPvtNS_10DataType_tE) refers to storageservice.o(i._ZN14StorageService10SearchNodeEPKc) for StorageService::SearchNode(const char*)
    storageservice.o(i._ZN14StorageService3AddEPKcPvtNS_10DataType_tE) refers to new.o(i._Znwj) for operator new(unsigned)
    storageservice.o(i._ZN14StorageService3AddEPKcPvtNS_10DataType_tE) refers to storageservice.o(t._ZNSt6vectorIPN14StorageService6Node_tESaIS2_EE13_C_insert_auxEPS2_RKS2_) for std::vector<StorageService::Node_t*, std::allocator<StorageService::Node_t*>>::_C_insert_aux(StorageService::Node_t**, StorageService::Node_t*const &)
    storageservice.o(i._ZN14StorageService6RemoveEPKc) refers to storageservice.o(i._ZN14StorageService10SearchNodeEPKc) for StorageService::SearchNode(const char*)
    storageservice.o(i._ZN14StorageService6RemoveEPKc) refers to new.o(i._ZdlPv) for operator delete (void*)
    storageservice.o(i._ZN14StorageService8LoadFileEv) refers to storageservice.o(i._ZN11FileWrapperC1EPKch) for FileWrapper::FileWrapper(const char*, unsigned char)
    storageservice.o(i._ZN14StorageService8LoadFileEv) refers to storageservice.o(t._ZN18ArduinoJson6184_1118StaticJsonDocumentILj2048EEC1Ev) for ArduinoJson6184_11::StaticJsonDocument<(unsigned)2048>::StaticJsonDocument()
    storageservice.o(i._ZN14StorageService8LoadFileEv) refers to storageservice.o(t._ZN18ArduinoJson6184_1111deserializeINS_16JsonDeserializerE11FileWrapperNS_14AllowAllFilterEEENS_20DeserializationErrorERNS_12JsonDocumentERT0_NS_12NestingLimitET1_) for ArduinoJson6184_11::DeserializationError ArduinoJson6184_11::deserialize<ArduinoJson6184_11::JsonDeserializer, FileWrapper, ArduinoJson6184_11::AllowAllFilter>(ArduinoJson6184_11::JsonDocument&, T2&, ArduinoJson6184_11::NestingLimit, T3)
    storageservice.o(i._ZN14StorageService8LoadFileEv) refers to storageservice.o(i._ZNK18ArduinoJson6184_1120DeserializationErrorcvMS0_KFvvEEv) for ArduinoJson6184_11::DeserializationError::operator void(ArduinoJson6184_11::DeserializationError::*)() const() const
    storageservice.o(i._ZN14StorageService8LoadFileEv) refers to lv_fs.o(i.lv_fs_close) for lv_fs_close
    storageservice.o(i._ZN14StorageService8LoadFileEv) refers to storageservice.o(t._ZNK18ArduinoJson6184_1111VariantData9getMemberINS_13StringAdapterIPKcLb0EvEEEEPS0_T_) for ArduinoJson6184_11::VariantData* ArduinoJson6184_11::VariantData::getMember<ArduinoJson6184_11::StringAdapter<const char*, (bool)0, void>>(T1) const
    storageservice.o(i._ZN14StorageService8LoadFileEv) refers to storageservice.o(t._ZN18ArduinoJson6184_119ConverterIivE8fromJsonENS_15VariantConstRefE) for ArduinoJson6184_11::Converter<int, void>::fromJson(ArduinoJson6184_11::VariantConstRef)
    storageservice.o(i._ZN14StorageService8LoadFileEv) refers to rt_memcpy_v6.o(.text) for __aeabi_memcpy
    storageservice.o(i._ZN14StorageService8LoadFileEv) refers to storageservice.o(t._ZN18ArduinoJson6184_119ConverterIfvE8fromJsonENS_15VariantConstRefE) for ArduinoJson6184_11::Converter<float, void>::fromJson(ArduinoJson6184_11::VariantConstRef)
    storageservice.o(i._ZN14StorageService8LoadFileEv) refers to storageservice.o(t._ZN18ArduinoJson6184_119ConverterIdvE8fromJsonENS_15VariantConstRefE) for ArduinoJson6184_11::Converter<double, void>::fromJson(ArduinoJson6184_11::VariantConstRef)
    storageservice.o(i._ZN14StorageService8LoadFileEv) refers to strncpy.o(.text) for strncpy
    storageservice.o(i._ZN14StorageService8SaveFileEPKc) refers to storageservice.o(i._ZN11FileWrapperC1EPKch) for FileWrapper::FileWrapper(const char*, unsigned char)
    storageservice.o(i._ZN14StorageService8SaveFileEPKc) refers to storageservice.o(t._ZN18ArduinoJson6184_1118StaticJsonDocumentILj2048EEC1Ev) for ArduinoJson6184_11::StaticJsonDocument<(unsigned)2048>::StaticJsonDocument()
    storageservice.o(i._ZN14StorageService8SaveFileEPKc) refers to rt_memcpy_v6.o(.text) for __aeabi_memcpy
    storageservice.o(i._ZN14StorageService8SaveFileEPKc) refers to storageservice.o(i._ZN18ArduinoJson6184_1111VariantData8toObjectEv) for ArduinoJson6184_11::VariantData::toObject()
    storageservice.o(i._ZN14StorageService8SaveFileEPKc) refers to storageservice.o(t._ZN18ArduinoJson6184_1114CollectionData14getOrAddMemberINS_13StringAdapterIPKcLb0EvEEEEPNS_11VariantDataET_PNS_10MemoryPoolE) for ArduinoJson6184_11::VariantData* ArduinoJson6184_11::CollectionData::getOrAddMember<ArduinoJson6184_11::StringAdapter<const char*, (bool)0, void>>(T1, ArduinoJson6184_11::MemoryPool*)
    storageservice.o(i._ZN14StorageService8SaveFileEPKc) refers to storageservice.o(i._ZN18ArduinoJson6184_1111VariantData7setTypeEh) for ArduinoJson6184_11::VariantData::setType(unsigned char)
    storageservice.o(i._ZN14StorageService8SaveFileEPKc) refers to storageservice.o(i._ZN18ArduinoJson6184_1111VariantData8setFloatEf) for ArduinoJson6184_11::VariantData::setFloat(float)
    storageservice.o(i._ZN14StorageService8SaveFileEPKc) refers to d2f.o(x$fpl$d2f) for __aeabi_d2f
    storageservice.o(i._ZN14StorageService8SaveFileEPKc) refers to storageservice.o(t._ZNK18ArduinoJson6184_1111VariantData6acceptINS_20PrettyJsonSerializerINS_6WriterI11FileWrappervEEEEEENT_11result_typeERS7_) for T1::result_type ArduinoJson6184_11::VariantData::accept<ArduinoJson6184_11::PrettyJsonSerializer<ArduinoJson6184_11::Writer<FileWrapper, void>>>(T1&) const
    storageservice.o(i._ZN14StorageService8SaveFileEPKc) refers to lv_fs.o(i.lv_fs_close) for lv_fs_close
    storageservice.o(i._ZN14StorageServiceD1Ev) refers to rwalloc.o(i._ZN4__rw15__rw_deallocateEPvji) for __rw::__rw_deallocate(void*, unsigned, int)
    storageservice.o(.ARM.exidx) refers to storageservice.o(i._ZN14StorageServiceC1EPKcj) for i._ZN14StorageServiceC1EPKcj
    storageservice.o(.ARM.exidx) refers to storageservice.o(i._ZN14StorageServiceD1Ev) for i._ZN14StorageServiceD1Ev
    storageservice.o(.ARM.exidx) refers to storageservice.o(i._ZN14StorageService10SearchNodeEPKc) for i._ZN14StorageService10SearchNodeEPKc
    storageservice.o(.ARM.exidx) refers to storageservice.o(i._ZN14StorageService3AddEPKcPvtNS_10DataType_tE) for i._ZN14StorageService3AddEPKcPvtNS_10DataType_tE
    storageservice.o(.ARM.exidx) refers to storageservice.o(i._ZN14StorageService6RemoveEPKc) for i._ZN14StorageService6RemoveEPKc
    storageservice.o(.ARM.exidx) refers to storageservice.o(i._ZN14StorageService8SaveFileEPKc) for i._ZN14StorageService8SaveFileEPKc
    storageservice.o(.ARM.exidx) refers to storageservice.o(i._ZN14StorageService8LoadFileEv) for i._ZN14StorageService8LoadFileEv
    storageservice.o(.constdata) refers to storageservice.o(i._ZNK18ArduinoJson6184_1120DeserializationError14safeBoolHelperEv) for ArduinoJson6184_11::DeserializationError::safeBoolHelper() const
    toneplayer.o(.ARM.exidx) refers to toneplayer.o(i._ZN10TonePlayerC1Ev) for i._ZN10TonePlayerC1Ev
    toneplayer.o(.ARM.exidx) refers to toneplayer.o(i._ZN10TonePlayer8SetMusicEPKNS_11MusicNode_tEt) for i._ZN10TonePlayer8SetMusicEPKNS_11MusicNode_tEt
    toneplayer.o(.ARM.exidx) refers to toneplayer.o(i._ZN10TonePlayer4PlayEv) for i._ZN10TonePlayer4PlayEv
    toneplayer.o(.ARM.exidx) refers to toneplayer.o(i._ZN10TonePlayer4StopEv) for i._ZN10TonePlayer4StopEv
    toneplayer.o(.ARM.exidx) refers to toneplayer.o(i._ZN10TonePlayer8SetSpeedEt) for i._ZN10TonePlayer8SetSpeedEt
    toneplayer.o(.ARM.exidx) refers to toneplayer.o(i._ZN10TonePlayer6UpdateEj) for i._ZN10TonePlayer6UpdateEj
    datestrings.o(i._Z11dayShortStrh) refers to datestrings.o(.constdata) for .constdata
    datestrings.o(i._Z11dayShortStrh) refers to datestrings.o(.bss) for .bss
    datestrings.o(i._Z13monthShortStrh) refers to datestrings.o(.constdata) for .constdata
    datestrings.o(i._Z13monthShortStrh) refers to datestrings.o(.bss) for .bss
    datestrings.o(i._Z6dayStrh) refers to strcpy.o(.text) for strcpy
    datestrings.o(i._Z6dayStrh) refers to datestrings.o(.constdata) for .constdata
    datestrings.o(i._Z6dayStrh) refers to datestrings.o(.bss) for .bss
    datestrings.o(i._Z8monthStrh) refers to strcpy.o(.text) for strcpy
    datestrings.o(i._Z8monthStrh) refers to datestrings.o(.constdata) for .constdata
    datestrings.o(i._Z8monthStrh) refers to datestrings.o(.bss) for .bss
    datestrings.o(.ARM.exidx) refers to datestrings.o(i._Z8monthStrh) for i._Z8monthStrh
    datestrings.o(.ARM.exidx) refers to datestrings.o(i._Z13monthShortStrh) for i._Z13monthShortStrh
    datestrings.o(.ARM.exidx) refers to datestrings.o(i._Z6dayStrh) for i._Z6dayStrh
    datestrings.o(.ARM.exidx) refers to datestrings.o(i._Z11dayShortStrh) for i._Z11dayShortStrh
    datestrings.o(.constdata) refers to datestrings.o(.constdata) for monthStr0
    datestrings.o(.constdata) refers to datestrings.o(.constdata) for monthStr1
    datestrings.o(.constdata) refers to datestrings.o(.constdata) for monthStr2
    datestrings.o(.constdata) refers to datestrings.o(.constdata) for monthStr3
    datestrings.o(.constdata) refers to datestrings.o(.constdata) for monthStr4
    datestrings.o(.constdata) refers to datestrings.o(.constdata) for monthStr5
    datestrings.o(.constdata) refers to datestrings.o(.constdata) for monthStr6
    datestrings.o(.constdata) refers to datestrings.o(.constdata) for monthStr7
    datestrings.o(.constdata) refers to datestrings.o(.constdata) for monthStr8
    datestrings.o(.constdata) refers to datestrings.o(.constdata) for monthStr9
    datestrings.o(.constdata) refers to datestrings.o(.constdata) for monthStr10
    datestrings.o(.constdata) refers to datestrings.o(.constdata) for monthStr11
    datestrings.o(.constdata) refers to datestrings.o(.constdata) for monthStr12
    datestrings.o(.constdata) refers to datestrings.o(.constdata) for dayStr0
    datestrings.o(.constdata) refers to datestrings.o(.constdata) for dayStr1
    datestrings.o(.constdata) refers to datestrings.o(.constdata) for dayStr2
    datestrings.o(.constdata) refers to datestrings.o(.constdata) for dayStr3
    datestrings.o(.constdata) refers to datestrings.o(.constdata) for dayStr4
    datestrings.o(.constdata) refers to datestrings.o(.constdata) for dayStr5
    datestrings.o(.constdata) refers to datestrings.o(.constdata) for dayStr6
    datestrings.o(.constdata) refers to datestrings.o(.constdata) for dayStr7
    time.o(i._Z10adjustTimel) refers to time.o(.data) for .data
    time.o(i._Z10timeStatusv) refers to time.o(i._Z3nowv) for now()
    time.o(i._Z10timeStatusv) refers to time.o(.data) for .data
    time.o(i._Z12hourFormat12m) refers to time.o(i._Z12refreshCachem) for refreshCache(unsigned long)
    time.o(i._Z12hourFormat12m) refers to time.o(.data) for .data
    time.o(i._Z12hourFormat12v) refers to time.o(i._Z3nowv) for now()
    time.o(i._Z12hourFormat12v) refers to time.o(i._Z12hourFormat12m) for hourFormat12(unsigned long)
    time.o(i._Z12refreshCachem) refers to time.o(i._Z9breakTimemR12tmElements_t) for breakTime(unsigned long, tmElements_t&)
    time.o(i._Z12refreshCachem) refers to time.o(.data) for .data
    time.o(i._Z15setSyncIntervalm) refers to time.o(.data) for .data
    time.o(i._Z15setSyncProviderPFmvE) refers to time.o(i._Z3nowv) for now()
    time.o(i._Z15setSyncProviderPFmvE) refers to time.o(.data) for .data
    time.o(i._Z3daym) refers to time.o(i._Z12refreshCachem) for refreshCache(unsigned long)
    time.o(i._Z3daym) refers to time.o(.data) for .data
    time.o(i._Z3dayv) refers to time.o(i._Z3nowv) for now()
    time.o(i._Z3dayv) refers to time.o(i._Z3daym) for day(unsigned long)
    time.o(i._Z3nowv) refers to delay.o(i.millis) for millis
    time.o(i._Z3nowv) refers to time.o(i._Z7setTimem) for setTime(unsigned long)
    time.o(i._Z3nowv) refers to time.o(.data) for .data
    time.o(i._Z4hourm) refers to time.o(i._Z12refreshCachem) for refreshCache(unsigned long)
    time.o(i._Z4hourm) refers to time.o(.data) for .data
    time.o(i._Z4hourv) refers to time.o(i._Z3nowv) for now()
    time.o(i._Z4hourv) refers to time.o(i._Z4hourm) for hour(unsigned long)
    time.o(i._Z4isAMm) refers to time.o(i._Z4isPMm) for isPM(unsigned long)
    time.o(i._Z4isAMv) refers to time.o(i._Z3nowv) for now()
    time.o(i._Z4isAMv) refers to time.o(i._Z4isPMm) for isPM(unsigned long)
    time.o(i._Z4isPMm) refers to time.o(i._Z4hourm) for hour(unsigned long)
    time.o(i._Z4isPMv) refers to time.o(i._Z3nowv) for now()
    time.o(i._Z4isPMv) refers to time.o(i._Z4isPMm) for isPM(unsigned long)
    time.o(i._Z4yearm) refers to time.o(i._Z12refreshCachem) for refreshCache(unsigned long)
    time.o(i._Z4yearm) refers to time.o(.data) for .data
    time.o(i._Z4yearv) refers to time.o(i._Z3nowv) for now()
    time.o(i._Z4yearv) refers to time.o(i._Z4yearm) for year(unsigned long)
    time.o(i._Z5monthm) refers to time.o(i._Z12refreshCachem) for refreshCache(unsigned long)
    time.o(i._Z5monthm) refers to time.o(.data) for .data
    time.o(i._Z5monthv) refers to time.o(i._Z3nowv) for now()
    time.o(i._Z5monthv) refers to time.o(i._Z5monthm) for month(unsigned long)
    time.o(i._Z6minutem) refers to time.o(i._Z12refreshCachem) for refreshCache(unsigned long)
    time.o(i._Z6minutem) refers to time.o(.data) for .data
    time.o(i._Z6minutev) refers to time.o(i._Z3nowv) for now()
    time.o(i._Z6minutev) refers to time.o(i._Z6minutem) for minute(unsigned long)
    time.o(i._Z6secondm) refers to time.o(i._Z12refreshCachem) for refreshCache(unsigned long)
    time.o(i._Z6secondm) refers to time.o(.data) for .data
    time.o(i._Z6secondv) refers to time.o(i._Z3nowv) for now()
    time.o(i._Z6secondv) refers to time.o(i._Z6secondm) for second(unsigned long)
    time.o(i._Z7setTimeiiiiii) refers to time.o(i._Z8makeTimeR12tmElements_t) for makeTime(tmElements_t&)
    time.o(i._Z7setTimeiiiiii) refers to time.o(i._Z7setTimem) for setTime(unsigned long)
    time.o(i._Z7setTimeiiiiii) refers to time.o(.data) for .data
    time.o(i._Z7setTimem) refers to delay.o(i.millis) for millis
    time.o(i._Z7setTimem) refers to time.o(.data) for .data
    time.o(i._Z7weekdaym) refers to time.o(i._Z12refreshCachem) for refreshCache(unsigned long)
    time.o(i._Z7weekdaym) refers to time.o(.data) for .data
    time.o(i._Z7weekdayv) refers to time.o(i._Z3nowv) for now()
    time.o(i._Z7weekdayv) refers to time.o(i._Z7weekdaym) for weekday(unsigned long)
    time.o(i._Z8makeTimeR12tmElements_t) refers to time.o(.constdata) for .constdata
    time.o(i._Z9breakTimemR12tmElements_t) refers to time.o(.constdata) for .constdata
    time.o(.ARM.exidx) refers to time.o(i._Z9breakTimemR12tmElements_t) for i._Z9breakTimemR12tmElements_t
    time.o(.ARM.exidx) refers to time.o(i._Z12refreshCachem) for i._Z12refreshCachem
    time.o(.ARM.exidx) refers to time.o(i._Z7setTimem) for i._Z7setTimem
    time.o(.ARM.exidx) refers to time.o(i._Z3nowv) for i._Z3nowv
    time.o(.ARM.exidx) refers to time.o(i._Z4hourm) for i._Z4hourm
    time.o(.ARM.exidx) refers to time.o(i._Z4hourv) for i._Z4hourv
    time.o(.ARM.exidx) refers to time.o(i._Z12hourFormat12m) for i._Z12hourFormat12m
    time.o(.ARM.exidx) refers to time.o(i._Z12hourFormat12v) for i._Z12hourFormat12v
    time.o(.ARM.exidx) refers to time.o(i._Z4isPMm) for i._Z4isPMm
    time.o(.ARM.exidx) refers to time.o(i._Z4isAMv) for i._Z4isAMv
    time.o(.ARM.exidx) refers to time.o(i._Z4isAMm) for i._Z4isAMm
    time.o(.ARM.exidx) refers to time.o(i._Z4isPMv) for i._Z4isPMv
    time.o(.ARM.exidx) refers to time.o(i._Z6minutem) for i._Z6minutem
    time.o(.ARM.exidx) refers to time.o(i._Z6minutev) for i._Z6minutev
    time.o(.ARM.exidx) refers to time.o(i._Z6secondm) for i._Z6secondm
    time.o(.ARM.exidx) refers to time.o(i._Z6secondv) for i._Z6secondv
    time.o(.ARM.exidx) refers to time.o(i._Z3daym) for i._Z3daym
    time.o(.ARM.exidx) refers to time.o(i._Z3dayv) for i._Z3dayv
    time.o(.ARM.exidx) refers to time.o(i._Z7weekdaym) for i._Z7weekdaym
    time.o(.ARM.exidx) refers to time.o(i._Z7weekdayv) for i._Z7weekdayv
    time.o(.ARM.exidx) refers to time.o(i._Z5monthm) for i._Z5monthm
    time.o(.ARM.exidx) refers to time.o(i._Z5monthv) for i._Z5monthv
    time.o(.ARM.exidx) refers to time.o(i._Z4yearm) for i._Z4yearm
    time.o(.ARM.exidx) refers to time.o(i._Z4yearv) for i._Z4yearv
    time.o(.ARM.exidx) refers to time.o(i._Z8makeTimeR12tmElements_t) for i._Z8makeTimeR12tmElements_t
    time.o(.ARM.exidx) refers to time.o(i._Z7setTimeiiiiii) for i._Z7setTimeiiiiii
    time.o(.ARM.exidx) refers to time.o(i._Z10adjustTimel) for i._Z10adjustTimel
    time.o(.ARM.exidx) refers to time.o(i._Z10timeStatusv) for i._Z10timeStatusv
    time.o(.ARM.exidx) refers to time.o(i._Z15setSyncProviderPFmvE) for i._Z15setSyncProviderPFmvE
    time.o(.ARM.exidx) refers to time.o(i._Z15setSyncIntervalm) for i._Z15setSyncIntervalm
    tileconv.o(i._ZN8TileConv11SetFocusPosEii) refers to tileconv.o(i._ZN8TileConv7FixTileEib) for TileConv::FixTile(int, bool)
    tileconv.o(i._ZN8TileConv14GetFocusOffsetEPNS_7Point_tE) refers to tileconv.o(i._ZN8TileConv9GetOffsetEPNS_7Point_tEPKS0_) for TileConv::GetOffset(TileConv::Point_t*, const TileConv::Point_t*)
    tileconv.o(i._ZN8TileConv22GetTileContainerOffsetEPNS_7Point_tE) refers to tileconv.o(i._ZN8TileConv9GetOffsetEPNS_7Point_tEPKS0_) for TileConv::GetOffset(TileConv::Point_t*, const TileConv::Point_t*)
    tileconv.o(i._ZN8TileConvC1Ejjj) refers to rt_memclr_w.o(.text) for __aeabi_memclr4
    tileconv.o(.ARM.exidx) refers to tileconv.o(i._ZN8TileConvC1Ejjj) for i._ZN8TileConvC1Ejjj
    tileconv.o(.ARM.exidx) refers to tileconv.o(i._ZN8TileConv7FixTileEib) for i._ZN8TileConv7FixTileEib
    tileconv.o(.ARM.exidx) refers to tileconv.o(i._ZN8TileConv11SetFocusPosEii) for i._ZN8TileConv11SetFocusPosEii
    tileconv.o(.ARM.exidx) refers to tileconv.o(i._ZN8TileConv9GetOffsetEPNS_7Point_tEPKS0_) for i._ZN8TileConv9GetOffsetEPNS_7Point_tEPKS0_
    tileconv.o(.ARM.exidx) refers to tileconv.o(i._ZN8TileConv14GetFocusOffsetEPNS_7Point_tE) for i._ZN8TileConv14GetFocusOffsetEPNS_7Point_tE
    tileconv.o(.ARM.exidx) refers to tileconv.o(i._ZN8TileConv16GetTileContainerEPNS_6Rect_tE) for i._ZN8TileConv16GetTileContainerEPNS_6Rect_tE
    tileconv.o(.ARM.exidx) refers to tileconv.o(i._ZN8TileConv22GetTileContainerOffsetEPNS_7Point_tE) for i._ZN8TileConv22GetTileContainerOffsetEPNS_7Point_tE
    tileconv.o(.ARM.exidx) refers to tileconv.o(i._ZN8TileConv10GetTilePosEjPNS_7Point_tE) for i._ZN8TileConv10GetTilePosEjPNS_7Point_tE
    tracklinefilter.o(i._ZN15TrackLineFilter11OutputPointEPKNS_7Point_tE) refers to tracklinefilter.o(i._ZN15TrackLineFilter9SendEventENS_11EventCode_tEPKNS_7Point_tE) for TrackLineFilter::SendEvent(TrackLineFilter::EventCode_t, const TrackLineFilter::Point_t*)
    tracklinefilter.o(i._ZN15TrackLineFilter14PushPointForceEPKNS_7Point_tE) refers to tracklinefilter.o(i._ZN15TrackLineFilter9SendEventENS_11EventCode_tEPKNS_7Point_tE) for TrackLineFilter::SendEvent(TrackLineFilter::EventCode_t, const TrackLineFilter::Point_t*)
    tracklinefilter.o(i._ZN15TrackLineFilter5ResetEv) refers to tracklinefilter.o(i._ZN15TrackLineFilter9SendEventENS_11EventCode_tEPKNS_7Point_tE) for TrackLineFilter::SendEvent(TrackLineFilter::EventCode_t, const TrackLineFilter::Point_t*)
    tracklinefilter.o(i._ZN15TrackLineFilter7PushEndEv) refers to tracklinefilter.o(i._ZN15TrackLineFilter9SendEventENS_11EventCode_tEPKNS_7Point_tE) for TrackLineFilter::SendEvent(TrackLineFilter::EventCode_t, const TrackLineFilter::Point_t*)
    tracklinefilter.o(i._ZN15TrackLineFilter9PushPointEPKNS_7Point_tE) refers to tracklinefilter.o(i._ZN15TrackLineFilter16GetIsPointInAreaEPKNS_6Area_tEPKNS_7Point_tE) for TrackLineFilter::GetIsPointInArea(const TrackLineFilter::Area_t*, const TrackLineFilter::Point_t*)
    tracklinefilter.o(i._ZN15TrackLineFilter9PushPointEPKNS_7Point_tE) refers to tracklinefilter.o(i._ZN15TrackLineFilter9SendEventENS_11EventCode_tEPKNS_7Point_tE) for TrackLineFilter::SendEvent(TrackLineFilter::EventCode_t, const TrackLineFilter::Point_t*)
    tracklinefilter.o(i._ZN15TrackLineFilter9PushPointEPKNS_7Point_tE) refers to tracklinefilter.o(i._ZN15TrackLineFilter11OutputPointEPKNS_7Point_tE) for TrackLineFilter::OutputPoint(const TrackLineFilter::Point_t*)
    tracklinefilter.o(i._ZN15TrackLineFilterC1Ev) refers to rt_memclr_w.o(.text) for __aeabi_memclr4
    tracklinefilter.o(.ARM.exidx) refers to tracklinefilter.o(i._ZN15TrackLineFilterC1Ev) for i._ZN15TrackLineFilterC1Ev
    tracklinefilter.o(.ARM.exidx) refers to tracklinefilter.o(i._ZN15TrackLineFilterD1Ev) for i._ZN15TrackLineFilterD1Ev
    tracklinefilter.o(.ARM.exidx) refers to tracklinefilter.o(i._ZN15TrackLineFilter9SendEventENS_11EventCode_tEPKNS_7Point_tE) for i._ZN15TrackLineFilter9SendEventENS_11EventCode_tEPKNS_7Point_tE
    tracklinefilter.o(.ARM.exidx) refers to tracklinefilter.o(i._ZN15TrackLineFilter5ResetEv) for i._ZN15TrackLineFilter5ResetEv
    tracklinefilter.o(.ARM.exidx) refers to tracklinefilter.o(i._ZN15TrackLineFilter11OutputPointEPKNS_7Point_tE) for i._ZN15TrackLineFilter11OutputPointEPKNS_7Point_tE
    tracklinefilter.o(.ARM.exidx) refers to tracklinefilter.o(i._ZN15TrackLineFilter16GetIsPointInAreaEPKNS_6Area_tEPKNS_7Point_tE) for i._ZN15TrackLineFilter16GetIsPointInAreaEPKNS_6Area_tEPKNS_7Point_tE
    tracklinefilter.o(.ARM.exidx) refers to tracklinefilter.o(i._ZN15TrackLineFilter9PushPointEPKNS_7Point_tE) for i._ZN15TrackLineFilter9PushPointEPKNS_7Point_tE
    tracklinefilter.o(.ARM.exidx) refers to tracklinefilter.o(i._ZN15TrackLineFilter14PushPointForceEPKNS_7Point_tE) for i._ZN15TrackLineFilter14PushPointForceEPKNS_7Point_tE
    tracklinefilter.o(.ARM.exidx) refers to tracklinefilter.o(i._ZN15TrackLineFilter7PushEndEv) for i._ZN15TrackLineFilter7PushEndEv
    tracklinefilter.o(.ARM.exidx) refers to tracklinefilter.o(i._ZN15TrackLineFilter11SetClipAreaEPKNS_6Area_tE) for i._ZN15TrackLineFilter11SetClipAreaEPKNS_6Area_tE
    tracklinefilter.o(.ARM.exidx) refers to tracklinefilter.o(i._ZN15TrackLineFilter22SetOutputPointCallbackEPFvPS_PNS_7Event_tEE) for i._ZN15TrackLineFilter22SetOutputPointCallbackEPFvPS_PNS_7Event_tEE
    trackpointfilter.o(i._ZN16TrackPointFilter15GetIsOnSameSideEPKNS_6Line_tEPKNS_7Point_tES5_) refers to dmul.o(x$fpl$dmul) for __aeabi_dmul
    trackpointfilter.o(i._ZN16TrackPointFilter15GetIsOnSameSideEPKNS_6Line_tEPKNS_7Point_tES5_) refers to daddsub_clz.o(x$fpl$dadd) for __aeabi_dadd
    trackpointfilter.o(i._ZN16TrackPointFilter15GetIsOnSameSideEPKNS_6Line_tEPKNS_7Point_tES5_) refers to dleqf.o(x$fpl$dleqf) for __aeabi_cdcmple
    trackpointfilter.o(i._ZN16TrackPointFilter15GetVerticalLineEPNS_6Line_tEPKS0_PKNS_7Point_tE) refers to basic.o(x$fpl$basic) for __aeabi_dneg
    trackpointfilter.o(i._ZN16TrackPointFilter15GetVerticalLineEPNS_6Line_tEPKS0_PKNS_7Point_tE) refers to dmul.o(x$fpl$dmul) for __aeabi_dmul
    trackpointfilter.o(i._ZN16TrackPointFilter15GetVerticalLineEPNS_6Line_tEPKS0_PKNS_7Point_tE) refers to daddsub_clz.o(x$fpl$dsub) for __aeabi_dsub
    trackpointfilter.o(i._ZN16TrackPointFilter16GetIsPointInLineEPKNS_6Line_tEPKNS_7Point_tE) refers to dmul.o(x$fpl$dmul) for __aeabi_dmul
    trackpointfilter.o(i._ZN16TrackPointFilter16GetIsPointInLineEPKNS_6Line_tEPKNS_7Point_tE) refers to daddsub_clz.o(x$fpl$dadd) for __aeabi_dadd
    trackpointfilter.o(i._ZN16TrackPointFilter16GetIsPointInLineEPKNS_6Line_tEPKNS_7Point_tE) refers to trackpointfilter.o(i._ZSt3absd) for std::abs(double)
    trackpointfilter.o(i._ZN16TrackPointFilter16GetIsPointInLineEPKNS_6Line_tEPKNS_7Point_tE) refers to dleqf.o(x$fpl$dleqf) for __aeabi_cdcmple
    trackpointfilter.o(i._ZN16TrackPointFilter7GetLineEPNS_6Line_tEPKNS_7Point_tES4_) refers to daddsub_clz.o(x$fpl$dsub) for __aeabi_dsub
    trackpointfilter.o(i._ZN16TrackPointFilter7GetLineEPNS_6Line_tEPKNS_7Point_tES4_) refers to fabs.o(i.__hardfp_fabs) for __hardfp_fabs
    trackpointfilter.o(i._ZN16TrackPointFilter7GetLineEPNS_6Line_tEPKNS_7Point_tES4_) refers to dleqf.o(x$fpl$dleqf) for __aeabi_cdcmple
    trackpointfilter.o(i._ZN16TrackPointFilter7GetLineEPNS_6Line_tEPKNS_7Point_tES4_) refers to drleqf.o(x$fpl$drleqf) for __aeabi_cdrcmple
    trackpointfilter.o(i._ZN16TrackPointFilter7GetLineEPNS_6Line_tEPKNS_7Point_tES4_) refers to basic.o(x$fpl$basic) for __aeabi_dneg
    trackpointfilter.o(i._ZN16TrackPointFilter7GetLineEPNS_6Line_tEPKNS_7Point_tES4_) refers to ddiv.o(x$fpl$ddiv) for __aeabi_ddiv
    trackpointfilter.o(i._ZN16TrackPointFilter7GetLineEPNS_6Line_tEPKNS_7Point_tES4_) refers to dmul.o(x$fpl$dmul) for __aeabi_dmul
    trackpointfilter.o(i._ZN16TrackPointFilter7PushEndEv) refers to trackpointfilter.o(i._ZN16TrackPointFilter11OutputPointEPKNS_7Point_tE) for TrackPointFilter::OutputPoint(const TrackPointFilter::Point_t*)
    trackpointfilter.o(i._ZN16TrackPointFilter9GetOffsetEPKNS_6Line_tEPKNS_7Point_tE) refers to dmul.o(x$fpl$dmul) for __aeabi_dmul
    trackpointfilter.o(i._ZN16TrackPointFilter9GetOffsetEPKNS_6Line_tEPKNS_7Point_tE) refers to daddsub_clz.o(x$fpl$dadd) for __aeabi_dadd
    trackpointfilter.o(i._ZN16TrackPointFilter9GetOffsetEPKNS_6Line_tEPKNS_7Point_tE) refers to trackpointfilter.o(i._ZN16TrackPointFilter9QuickSqrtEd) for TrackPointFilter::QuickSqrt(double)
    trackpointfilter.o(i._ZN16TrackPointFilter9GetOffsetEPKNS_6Line_tEPKNS_7Point_tE) refers to trackpointfilter.o(i._ZSt3absd) for std::abs(double)
    trackpointfilter.o(i._ZN16TrackPointFilter9PushPointEPKNS_7Point_tE) refers to trackpointfilter.o(i._ZN16TrackPointFilter9GetOffsetEPKNS_6Line_tEPKNS_7Point_tE) for TrackPointFilter::GetOffset(const TrackPointFilter::Line_t*, const TrackPointFilter::Point_t*)
    trackpointfilter.o(i._ZN16TrackPointFilter9PushPointEPKNS_7Point_tE) refers to drleqf.o(x$fpl$drleqf) for __aeabi_cdrcmple
    trackpointfilter.o(i._ZN16TrackPointFilter9PushPointEPKNS_7Point_tE) refers to trackpointfilter.o(i._ZN16TrackPointFilter11OutputPointEPKNS_7Point_tE) for TrackPointFilter::OutputPoint(const TrackPointFilter::Point_t*)
    trackpointfilter.o(i._ZN16TrackPointFilter9PushPointEPKNS_7Point_tE) refers to trackpointfilter.o(i._ZN16TrackPointFilter7GetLineEPNS_6Line_tEPKNS_7Point_tES4_) for TrackPointFilter::GetLine(TrackPointFilter::Line_t*, const TrackPointFilter::Point_t*, const TrackPointFilter::Point_t*)
    trackpointfilter.o(i._ZN16TrackPointFilter9PushPointEPKNS_7Point_tE) refers to trackpointfilter.o(i._ZN16TrackPointFilter15GetVerticalLineEPNS_6Line_tEPKS0_PKNS_7Point_tE) for TrackPointFilter::GetVerticalLine(TrackPointFilter::Line_t*, const TrackPointFilter::Line_t*, const TrackPointFilter::Point_t*)
    trackpointfilter.o(i._ZN16TrackPointFilter9PushPointEPKNS_7Point_tE) refers to trackpointfilter.o(i._ZN16TrackPointFilter15GetIsOnSameSideEPKNS_6Line_tEPKNS_7Point_tES5_) for TrackPointFilter::GetIsOnSameSide(const TrackPointFilter::Line_t*, const TrackPointFilter::Point_t*, const TrackPointFilter::Point_t*)
    trackpointfilter.o(i._ZN16TrackPointFilter9QuickSqrtEd) refers to d2f.o(x$fpl$d2f) for __aeabi_d2f
    trackpointfilter.o(i._ZN16TrackPointFilter9QuickSqrtEd) refers to f2d.o(x$fpl$f2d) for __aeabi_f2d
    trackpointfilter.o(i._ZN16TrackPointFilterC1Ev) refers to rt_memclr_w.o(.text) for __aeabi_memclr4
    trackpointfilter.o(.ARM.exidx) refers to trackpointfilter.o(i._ZN16TrackPointFilterC1Ev) for i._ZN16TrackPointFilterC1Ev
    trackpointfilter.o(.ARM.exidx) refers to trackpointfilter.o(i._ZN16TrackPointFilterD1Ev) for i._ZN16TrackPointFilterD1Ev
    trackpointfilter.o(.ARM.exidx) refers to trackpointfilter.o(i._ZN16TrackPointFilter5ResetEv) for i._ZN16TrackPointFilter5ResetEv
    trackpointfilter.o(.ARM.exidx) refers to trackpointfilter.o(i._ZN16TrackPointFilter7GetLineEPNS_6Line_tEPKNS_7Point_tES4_) for i._ZN16TrackPointFilter7GetLineEPNS_6Line_tEPKNS_7Point_tES4_
    trackpointfilter.o(.ARM.exidx) refers to trackpointfilter.o(i._ZN16TrackPointFilter9DumpPointEPKcPKNS_7Point_tE) for i._ZN16TrackPointFilter9DumpPointEPKcPKNS_7Point_tE
    trackpointfilter.o(.ARM.exidx) refers to trackpointfilter.o(i._ZN16TrackPointFilter11OutputPointEPKNS_7Point_tE) for i._ZN16TrackPointFilter11OutputPointEPKNS_7Point_tE
    trackpointfilter.o(.ARM.exidx) refers to trackpointfilter.o(i._ZN16TrackPointFilter15GetIsOnSameSideEPKNS_6Line_tEPKNS_7Point_tES5_) for i._ZN16TrackPointFilter15GetIsOnSameSideEPKNS_6Line_tEPKNS_7Point_tES5_
    trackpointfilter.o(.ARM.exidx) refers to trackpointfilter.o(i._ZN16TrackPointFilter8DumpLineEPKcPKNS_6Line_tE) for i._ZN16TrackPointFilter8DumpLineEPKcPKNS_6Line_tE
    trackpointfilter.o(.ARM.exidx) refers to trackpointfilter.o(i._ZN16TrackPointFilter15GetVerticalLineEPNS_6Line_tEPKS0_PKNS_7Point_tE) for i._ZN16TrackPointFilter15GetVerticalLineEPNS_6Line_tEPKS0_PKNS_7Point_tE
    trackpointfilter.o(.ARM.exidx) refers to trackpointfilter.o(i._ZN16TrackPointFilter9QuickSqrtEd) for i._ZN16TrackPointFilter9QuickSqrtEd
    trackpointfilter.o(.ARM.exidx) refers to trackpointfilter.o(i._ZN16TrackPointFilter9GetOffsetEPKNS_6Line_tEPKNS_7Point_tE) for i._ZN16TrackPointFilter9GetOffsetEPKNS_6Line_tEPKNS_7Point_tE
    trackpointfilter.o(.ARM.exidx) refers to trackpointfilter.o(i._ZN16TrackPointFilter9PushPointEPKNS_7Point_tE) for i._ZN16TrackPointFilter9PushPointEPKNS_7Point_tE
    trackpointfilter.o(.ARM.exidx) refers to trackpointfilter.o(i._ZN16TrackPointFilter7PushEndEv) for i._ZN16TrackPointFilter7PushEndEv
    trackpointfilter.o(.ARM.exidx) refers to trackpointfilter.o(i._ZN16TrackPointFilter18SetOffsetThresholdEd) for i._ZN16TrackPointFilter18SetOffsetThresholdEd
    trackpointfilter.o(.ARM.exidx) refers to trackpointfilter.o(i._ZN16TrackPointFilter22SetOutputPointCallbackEPFvPS_PKNS_7Point_tEE) for i._ZN16TrackPointFilter22SetOutputPointCallbackEPFvPS_PKNS_7Point_tEE
    trackpointfilter.o(.ARM.exidx) refers to trackpointfilter.o(i._ZN16TrackPointFilter25SetSecondFilterModeEnableEb) for i._ZN16TrackPointFilter25SetSecondFilterModeEnableEb
    trackpointfilter.o(.ARM.exidx) refers to trackpointfilter.o(i._ZN16TrackPointFilter16GetIsPointInLineEPKNS_6Line_tEPKNS_7Point_tE) for i._ZN16TrackPointFilter16GetIsPointInLineEPKNS_6Line_tEPKNS_7Point_tE
    sunrisecalc.o(i.SunRiseSunSetCalculator) refers to f2d.o(x$fpl$f2d) for __aeabi_f2d
    sunrisecalc.o(i.SunRiseSunSetCalculator) refers to tan.o(i.__hardfp_tan) for __hardfp_tan
    sunrisecalc.o(i.SunRiseSunSetCalculator) refers to cos.o(i.__hardfp_cos) for __hardfp_cos
    sunrisecalc.o(i.SunRiseSunSetCalculator) refers to dmul.o(x$fpl$dmul) for __aeabi_dmul
    sunrisecalc.o(i.SunRiseSunSetCalculator) refers to ddiv.o(x$fpl$ddiv) for __aeabi_ddiv
    sunrisecalc.o(i.SunRiseSunSetCalculator) refers to basic.o(x$fpl$basic) for __aeabi_dneg
    sunrisecalc.o(i.SunRiseSunSetCalculator) refers to acos.o(i.__hardfp_acos) for __hardfp_acos
    sunrisecalc.o(i.SunRiseSunSetCalculator) refers to daddsub_clz.o(x$fpl$dsub) for __aeabi_dsub
    sunrisecalc.o(i.SunRiseSunSetCalculator) refers to d2f.o(x$fpl$d2f) for __aeabi_d2f
    sunrisecalc.o(i.SunRiseSunSetCalculator) refers to sunrisecalc.o(.constdata) for .constdata
    hal.o(i._ZN28_INTERNAL_7_HAL_cpp_dbacc59d24HAL_TimerInterrputUpdateEv) refers to hal_power.o(i._ZN3HAL12Power_UpdateEv) for HAL::Power_Update()
    hal.o(i._ZN28_INTERNAL_7_HAL_cpp_dbacc59d24HAL_TimerInterrputUpdateEv) refers to hal_encoder.o(i._ZN3HAL14Encoder_UpdateEv) for HAL::Encoder_Update()
    hal.o(i._ZN28_INTERNAL_7_HAL_cpp_dbacc59d24HAL_TimerInterrputUpdateEv) refers to hal_audio.o(i._ZN3HAL12Audio_UpdateEv) for HAL::Audio_Update()
    hal.o(i._ZN3HAL10HAL_UpdateEv) refers to delay.o(i.millis) for millis
    hal.o(i._ZN3HAL10HAL_UpdateEv) refers to millistaskmanager.o(i._ZN17MillisTaskManager7RunningEj) for MillisTaskManager::Running(unsigned)
    hal.o(i._ZN3HAL10HAL_UpdateEv) refers to hal.o(.bss) for .bss
    hal.o(i._ZN3HAL8HAL_InitEv) refers to hardwareserial.o(i._ZN14HardwareSerial5beginEj15SERIAL_Config_thh) for HardwareSerial::begin(unsigned, SERIAL_Config_t, unsigned char, unsigned char)
    hal.o(i._ZN3HAL8HAL_InitEv) refers to print.o(i._ZN5Print7printlnEPKc) for Print::println(const char*)
    hal.o(i._ZN3HAL8HAL_InitEv) refers to hal_i2c_scan.o(i._ZN3HAL8I2C_ScanEv) for HAL::I2C_Scan()
    hal.o(i._ZN3HAL8HAL_InitEv) refers to hal_faulthandle.o(i._ZN3HAL16FaultHandle_InitEv) for HAL::FaultHandle_Init()
    hal.o(i._ZN3HAL8HAL_InitEv) refers to hal_memory.o(i._ZN3HAL15Memory_DumpInfoEv) for HAL::Memory_DumpInfo()
    hal.o(i._ZN3HAL8HAL_InitEv) refers to hal_power.o(i._ZN3HAL10Power_InitEv) for HAL::Power_Init()
    hal.o(i._ZN3HAL8HAL_InitEv) refers to hal_backlight.o(i._ZN3HAL14Backlight_InitEv) for HAL::Backlight_Init()
    hal.o(i._ZN3HAL8HAL_InitEv) refers to hal_encoder.o(i._ZN3HAL12Encoder_InitEv) for HAL::Encoder_Init()
    hal.o(i._ZN3HAL8HAL_InitEv) refers to hal_clock.o(i._ZN3HAL10Clock_InitEv) for HAL::Clock_Init()
    hal.o(i._ZN3HAL8HAL_InitEv) refers to hal_buzz.o(i._ZN3HAL9Buzz_initEv) for HAL::Buzz_init()
    hal.o(i._ZN3HAL8HAL_InitEv) refers to hal_gps.o(i._ZN3HAL8GPS_InitEv) for HAL::GPS_Init()
    hal.o(i._ZN3HAL8HAL_InitEv) refers to hal_imu.o(i._ZN3HAL8IMU_InitEv) for HAL::IMU_Init()
    hal.o(i._ZN3HAL8HAL_InitEv) refers to millistaskmanager.o(i._ZN17MillisTaskManager8RegisterEPFvvEjb) for MillisTaskManager::Register(void(*)(), unsigned, bool)
    hal.o(i._ZN3HAL8HAL_InitEv) refers to hal_audio.o(i._ZN3HAL10Audio_InitEv) for HAL::Audio_Init()
    hal.o(i._ZN3HAL8HAL_InitEv) refers to hal_sd_card.o(i._ZN3HAL7SD_InitEv) for HAL::SD_Init()
    hal.o(i._ZN3HAL8HAL_InitEv) refers to hal_display.o(i._ZN3HAL12Display_InitEv) for HAL::Display_Init()
    hal.o(i._ZN3HAL8HAL_InitEv) refers to wdg.o(i.WDG_Init) for WDG_Init
    hal.o(i._ZN3HAL8HAL_InitEv) refers to print.o(i._ZN5Print6printfEPKcz) for Print::printf(const char*, ...)
    hal.o(i._ZN3HAL8HAL_InitEv) refers to timer.o(i.Timer_SetInterrupt) for Timer_SetInterrupt
    hal.o(i._ZN3HAL8HAL_InitEv) refers to timer.o(i.Timer_SetEnable) for Timer_SetEnable
    hal.o(i._ZN3HAL8HAL_InitEv) refers to hardwareserial.o(.bss) for Serial
    hal.o(i._ZN3HAL8HAL_InitEv) refers to hal_imu.o(i._ZN3HAL10IMU_UpdateEv) for HAL::IMU_Update()
    hal.o(i._ZN3HAL8HAL_InitEv) refers to hal.o(.bss) for .bss
    hal.o(i._ZN3HAL8HAL_InitEv) refers to wdg.o(i.WDG_ReloadCounter) for WDG_ReloadCounter
    hal.o(i._ZN3HAL8HAL_InitEv) refers to hal_power.o(i._ZN3HAL18Power_EventMonitorEv) for HAL::Power_EventMonitor()
    hal.o(i._ZN3HAL8HAL_InitEv) refers to hal_gps.o(i._ZN3HAL10GPS_UpdateEv) for HAL::GPS_Update()
    hal.o(i._ZN3HAL8HAL_InitEv) refers to hal_sd_card.o(i._ZN3HAL9SD_UpdateEv) for HAL::SD_Update()
    hal.o(i._ZN3HAL8HAL_InitEv) refers to hal.o(i._ZN28_INTERNAL_7_HAL_cpp_dbacc59d24HAL_TimerInterrputUpdateEv) for [local to HAL_cpp]::HAL_TimerInterrputUpdate()
    hal.o(i.__sti___7_HAL_cpp_dbacc59d) refers to millistaskmanager.o(i._ZN17MillisTaskManagerC1Eb) for MillisTaskManager::MillisTaskManager(bool)
    hal.o(i.__sti___7_HAL_cpp_dbacc59d) refers to aeabi_atexit.o(.text) for __aeabi_atexit
    hal.o(i.__sti___7_HAL_cpp_dbacc59d) refers to hal.o(.bss) for .bss
    hal.o(i.__sti___7_HAL_cpp_dbacc59d) refers to millistaskmanager.o(i._ZN17MillisTaskManagerD1Ev) for MillisTaskManager::~MillisTaskManager()
    hal.o(.ARM.exidx) refers to hal.o(i._ZN28_INTERNAL_7_HAL_cpp_dbacc59d24HAL_TimerInterrputUpdateEv) for i._ZN28_INTERNAL_7_HAL_cpp_dbacc59d24HAL_TimerInterrputUpdateEv
    hal.o(.ARM.exidx) refers to hal.o(i._ZN3HAL8HAL_InitEv) for i._ZN3HAL8HAL_InitEv
    hal.o(.ARM.exidx) refers to hal.o(i._ZN3HAL10HAL_UpdateEv) for i._ZN3HAL10HAL_UpdateEv
    hal.o(.ARM.exidx) refers to hal.o(i.__sti___7_HAL_cpp_dbacc59d) for i.__sti___7_HAL_cpp_dbacc59d
    hal.o(.init_array) refers to hal.o(i.__sti___7_HAL_cpp_dbacc59d) for __sti___7_HAL_cpp_dbacc59d
    hal.o(.init_array) refers to init_aeabi.o(.text) for __cpp_initialize__aeabi_
    hal_audio.o(i._ZN3HAL10Audio_InitEv) refers to hal_audio.o(i._ZZN3HAL10Audio_InitEvENUljtE_4_FUNEjt) for HAL::Audio_Init()::[lambda(unsigned, unsigned short) (instance 1)]::_FUN(unsigned, unsigned short)
    hal_audio.o(i._ZN3HAL10Audio_InitEv) refers to hal_audio.o(.bss) for .bss
    hal_audio.o(i._ZN3HAL12Audio_UpdateEv) refers to delay.o(i.millis) for millis
    hal_audio.o(i._ZN3HAL12Audio_UpdateEv) refers to toneplayer.o(i._ZN10TonePlayer6UpdateEj) for TonePlayer::Update(unsigned)
    hal_audio.o(i._ZN3HAL12Audio_UpdateEv) refers to hal_audio.o(.bss) for .bss
    hal_audio.o(i._ZN3HAL15Audio_PlayMusicEPKc) refers to strcmpv7m.o(.text) for strcmp
    hal_audio.o(i._ZN3HAL15Audio_PlayMusicEPKc) refers to toneplayer.o(i._ZN10TonePlayer8SetMusicEPKNS_11MusicNode_tEt) for TonePlayer::SetMusic(const TonePlayer::MusicNode_t*, unsigned short)
    hal_audio.o(i._ZN3HAL15Audio_PlayMusicEPKc) refers to toneplayer.o(i._ZN10TonePlayer4PlayEv) for TonePlayer::Play()
    hal_audio.o(i._ZN3HAL15Audio_PlayMusicEPKc) refers to hal_audio.o(.constdata) for .constdata
    hal_audio.o(i._ZN3HAL15Audio_PlayMusicEPKc) refers to hal_audio.o(.bss) for .bss
    hal_audio.o(i._ZZN3HAL10Audio_InitEvENUljtE_4_FUNEjt) refers to hal_buzz.o(i._ZN3HAL9Buzz_ToneEji) for HAL::Buzz_Tone(unsigned, int)
    hal_audio.o(i.__sti___13_HAL_Audio_cpp_0a059262) refers to toneplayer.o(i._ZN10TonePlayerC1Ev) for TonePlayer::TonePlayer()
    hal_audio.o(i.__sti___13_HAL_Audio_cpp_0a059262) refers to hal_audio.o(.bss) for .bss
    hal_audio.o(.ARM.exidx) refers to hal_audio.o(i._ZZN3HAL10Audio_InitEvENUljtE_4_FUNEjt) for i._ZZN3HAL10Audio_InitEvENUljtE_4_FUNEjt
    hal_audio.o(.ARM.exidx) refers to hal_audio.o(i._ZN3HAL10Audio_InitEv) for i._ZN3HAL10Audio_InitEv
    hal_audio.o(.ARM.exidx) refers to hal_audio.o(i._ZN3HAL12Audio_UpdateEv) for i._ZN3HAL12Audio_UpdateEv
    hal_audio.o(.ARM.exidx) refers to hal_audio.o(i._ZN3HAL15Audio_PlayMusicEPKc) for i._ZN3HAL15Audio_PlayMusicEPKc
    hal_audio.o(.ARM.exidx) refers to hal_audio.o(i.__sti___13_HAL_Audio_cpp_0a059262) for i.__sti___13_HAL_Audio_cpp_0a059262
    hal_audio.o(.constdata) refers to hal_audio.o(.constdata) for Music_Startup
    hal_audio.o(.constdata) refers to hal_audio.o(.conststring) for .conststring
    hal_audio.o(.constdata) refers to hal_audio.o(.constdata) for Music_Shutdown
    hal_audio.o(.constdata) refers to hal_audio.o(.constdata) for Music_Error
    hal_audio.o(.constdata) refers to hal_audio.o(.constdata) for Music_Connect
    hal_audio.o(.constdata) refers to hal_audio.o(.constdata) for Music_Disconnect
    hal_audio.o(.constdata) refers to hal_audio.o(.constdata) for Music_UnstableConnect
    hal_audio.o(.constdata) refers to hal_audio.o(.constdata) for Music_BattChargeStart
    hal_audio.o(.constdata) refers to hal_audio.o(.constdata) for Music_BattChargeEnd
    hal_audio.o(.constdata) refers to hal_audio.o(.constdata) for Music_DeviceInsert
    hal_audio.o(.constdata) refers to hal_audio.o(.constdata) for Music_DevicePullout
    hal_audio.o(.constdata) refers to hal_audio.o(.constdata) for Music_NoOperationWarning
    hal_audio.o(.constdata) refers to hal_audio.o(.constdata) for Music_GaugeSetting
    hal_audio.o(.init_array) refers to hal_audio.o(i.__sti___13_HAL_Audio_cpp_0a059262) for __sti___13_HAL_Audio_cpp_0a059262
    hal_audio.o(.init_array) refers to init_aeabi.o(.text) for __cpp_initialize__aeabi_
    hal_backlight.o(i._ZN39_INTERNAL_17_HAL_Backlight_cpp_fb36bc6522Backlight_AnimCallbackEPvi) refers to hal_backlight.o(i._ZN3HAL18Backlight_SetValueEs) for HAL::Backlight_SetValue(short)
    hal_backlight.o(i._ZN3HAL14Backlight_InitEv) refers to pwm.o(i.PWM_Init) for PWM_Init
    hal_backlight.o(i._ZN3HAL14Backlight_InitEv) refers to hal_backlight.o(i._ZN3HAL18Backlight_SetValueEs) for HAL::Backlight_SetValue(short)
    hal_backlight.o(i._ZN3HAL18Backlight_ForceLitEb) refers to arduino.o(i.pinMode) for pinMode
    hal_backlight.o(i._ZN3HAL18Backlight_ForceLitEb) refers to arduino.o(i.digitalWrite) for digitalWrite
    hal_backlight.o(i._ZN3HAL18Backlight_GetValueEv) refers to timer.o(i.Timer_GetCompare) for Timer_GetCompare
    hal_backlight.o(i._ZN3HAL18Backlight_GetValueEv) refers to gpio.o(.constdata) for PIN_MAP
    hal_backlight.o(i._ZN3HAL18Backlight_SetValueEs) refers to arduino.o(i.analogWrite) for analogWrite
    hal_backlight.o(i._ZN3HAL20Backlight_SetGradualEtt) refers to lv_anim.o(i.lv_anim_init) for lv_anim_init
    hal_backlight.o(i._ZN3HAL20Backlight_SetGradualEtt) refers to hal_backlight.o(i._ZN3HAL18Backlight_GetValueEv) for HAL::Backlight_GetValue()
    hal_backlight.o(i._ZN3HAL20Backlight_SetGradualEtt) refers to lv_anim.o(i.lv_anim_start) for lv_anim_start
    hal_backlight.o(i._ZN3HAL20Backlight_SetGradualEtt) refers to hal_backlight.o(i._ZN39_INTERNAL_17_HAL_Backlight_cpp_fb36bc6522Backlight_AnimCallbackEPvi) for [local to HAL_Backlight_cpp]::Backlight_AnimCallback(void*, int)
    hal_backlight.o(i._ZN3HAL20Backlight_SetGradualEtt) refers to lv_anim.o(i.lv_anim_path_ease_out) for lv_anim_path_ease_out
    hal_backlight.o(.ARM.exidx) refers to hal_backlight.o(i._ZN3HAL18Backlight_SetValueEs) for i._ZN3HAL18Backlight_SetValueEs
    hal_backlight.o(.ARM.exidx) refers to hal_backlight.o(i._ZN39_INTERNAL_17_HAL_Backlight_cpp_fb36bc6522Backlight_AnimCallbackEPvi) for i._ZN39_INTERNAL_17_HAL_Backlight_cpp_fb36bc6522Backlight_AnimCallbackEPvi
    hal_backlight.o(.ARM.exidx) refers to hal_backlight.o(i._ZN3HAL14Backlight_InitEv) for i._ZN3HAL14Backlight_InitEv
    hal_backlight.o(.ARM.exidx) refers to hal_backlight.o(i._ZN3HAL18Backlight_GetValueEv) for i._ZN3HAL18Backlight_GetValueEv
    hal_backlight.o(.ARM.exidx) refers to hal_backlight.o(i._ZN3HAL20Backlight_SetGradualEtt) for i._ZN3HAL20Backlight_SetGradualEtt
    hal_backlight.o(.ARM.exidx) refers to hal_backlight.o(i._ZN3HAL18Backlight_ForceLitEb) for i._ZN3HAL18Backlight_ForceLitEb
    hal_buzz.o(i._ZN3HAL14Buzz_SetEnableEb) refers to hal_buzz.o(i._ZN3HAL9Buzz_ToneEji) for HAL::Buzz_Tone(unsigned, int)
    hal_buzz.o(i._ZN3HAL14Buzz_SetEnableEb) refers to hal_buzz.o(.data) for .data
    hal_buzz.o(i._ZN3HAL9Buzz_ToneEji) refers to tone.o(i._Z4tonehjj) for tone(unsigned char, unsigned, unsigned)
    hal_buzz.o(i._ZN3HAL9Buzz_ToneEji) refers to hal_buzz.o(.data) for .data
    hal_buzz.o(i._ZN3HAL9Buzz_initEv) refers to arduino.o(i.pinMode) for pinMode
    hal_buzz.o(.ARM.exidx) refers to hal_buzz.o(i._ZN3HAL9Buzz_initEv) for i._ZN3HAL9Buzz_initEv
    hal_buzz.o(.ARM.exidx) refers to hal_buzz.o(i._ZN3HAL9Buzz_ToneEji) for i._ZN3HAL9Buzz_ToneEji
    hal_buzz.o(.ARM.exidx) refers to hal_buzz.o(i._ZN3HAL14Buzz_SetEnableEb) for i._ZN3HAL14Buzz_SetEnableEb
    hal_clock.o(i._ZN3HAL10Clock_InitEv) refers to rtc.o(i.RTC_Init) for RTC_Init
    hal_clock.o(i._ZN3HAL10Clock_InitEv) refers to hal_clock.o(i._ZN3HAL13Clock_GetInfoEPNS_12Clock_Info_tE) for HAL::Clock_GetInfo(HAL::Clock_Info_t*)
    hal_clock.o(i._ZN3HAL10Clock_InitEv) refers to hal_clock.o(i._ZN3HAL19Clock_GetWeekStringEh) for HAL::Clock_GetWeekString(unsigned char)
    hal_clock.o(i._ZN3HAL10Clock_InitEv) refers to print.o(i._ZN5Print6printfEPKcz) for Print::printf(const char*, ...)
    hal_clock.o(i._ZN3HAL10Clock_InitEv) refers to hardwareserial.o(.bss) for Serial
    hal_clock.o(i._ZN3HAL13Clock_GetInfoEPNS_12Clock_Info_tE) refers to rtc.o(i.RTC_GetCalendar) for RTC_GetCalendar
    hal_clock.o(i._ZN3HAL13Clock_SetInfoEPKNS_12Clock_Info_tE) refers to rtc.o(i.RTC_SetTime) for RTC_SetTime
    hal_clock.o(i._ZN3HAL19Clock_GetWeekStringEh) refers to rt_memcpy_w.o(.text) for __aeabi_memcpy4
    hal_clock.o(i._ZN3HAL19Clock_GetWeekStringEh) refers to hal_clock.o(.constdata) for .constdata
    hal_clock.o(.ARM.exidx) refers to hal_clock.o(i._ZN3HAL19Clock_GetWeekStringEh) for i._ZN3HAL19Clock_GetWeekStringEh
    hal_clock.o(.ARM.exidx) refers to hal_clock.o(i._ZN3HAL13Clock_GetInfoEPNS_12Clock_Info_tE) for i._ZN3HAL13Clock_GetInfoEPNS_12Clock_Info_tE
    hal_clock.o(.ARM.exidx) refers to hal_clock.o(i._ZN3HAL10Clock_InitEv) for i._ZN3HAL10Clock_InitEv
    hal_clock.o(.ARM.exidx) refers to hal_clock.o(i._ZN3HAL13Clock_SetInfoEPKNS_12Clock_Info_tE) for i._ZN3HAL13Clock_SetInfoEPKNS_12Clock_Info_tE
    hal_clock.o(.constdata) refers to hal_clock.o(.conststring) for .conststring
    hal_display.o(i.DMA1_Channel3_IRQHandler) refers to at32f435_437_dma.o(i.dma_flag_get) for dma_flag_get
    hal_display.o(i.DMA1_Channel3_IRQHandler) refers to at32f435_437_dma.o(i.dma_flag_clear) for dma_flag_clear
    hal_display.o(i.DMA1_Channel3_IRQHandler) refers to hal_display.o(i._ZN37_INTERNAL_15_HAL_Display_cpp_6b788b1420Display_SPI_DMA_SendEPKvj) for [local to HAL_Display_cpp]::Display_SPI_DMA_Send(const void*, unsigned)
    hal_display.o(i.DMA1_Channel3_IRQHandler) refers to hal_display.o(.data) for .data
    hal_display.o(i.DMA1_Channel3_IRQHandler) refers to gpio.o(.constdata) for PIN_MAP
    hal_display.o(i._ZN37_INTERNAL_15_HAL_Display_cpp_6b788b1420Display_SPI_DMA_InitEv) refers to at32f435_437_crm.o(i.crm_periph_clock_enable) for crm_periph_clock_enable
    hal_display.o(i._ZN37_INTERNAL_15_HAL_Display_cpp_6b788b1420Display_SPI_DMA_InitEv) refers to at32f435_437_dma.o(i.dma_reset) for dma_reset
    hal_display.o(i._ZN37_INTERNAL_15_HAL_Display_cpp_6b788b1420Display_SPI_DMA_InitEv) refers to at32f435_437_dma.o(i.dma_default_para_init) for dma_default_para_init
    hal_display.o(i._ZN37_INTERNAL_15_HAL_Display_cpp_6b788b1420Display_SPI_DMA_InitEv) refers to at32f435_437_dma.o(i.dma_init) for dma_init
    hal_display.o(i._ZN37_INTERNAL_15_HAL_Display_cpp_6b788b1420Display_SPI_DMA_InitEv) refers to at32f435_437_dma.o(i.dmamux_enable) for dmamux_enable
    hal_display.o(i._ZN37_INTERNAL_15_HAL_Display_cpp_6b788b1420Display_SPI_DMA_InitEv) refers to at32f435_437_dma.o(i.dmamux_init) for dmamux_init
    hal_display.o(i._ZN37_INTERNAL_15_HAL_Display_cpp_6b788b1420Display_SPI_DMA_InitEv) refers to at32f435_437_spi.o(i.spi_i2s_dma_transmitter_enable) for spi_i2s_dma_transmitter_enable
    hal_display.o(i._ZN37_INTERNAL_15_HAL_Display_cpp_6b788b1420Display_SPI_DMA_InitEv) refers to at32f435_437_dma.o(i.dma_interrupt_enable) for dma_interrupt_enable
    hal_display.o(i._ZN37_INTERNAL_15_HAL_Display_cpp_6b788b1420Display_SPI_DMA_SendEPKvj) refers to at32f435_437_dma.o(i.dma_channel_enable) for dma_channel_enable
    hal_display.o(i._ZN37_INTERNAL_15_HAL_Display_cpp_6b788b1420Display_SPI_DMA_SendEPKvj) refers to hal_display.o(.data) for .data
    hal_display.o(i._ZN3HAL12Display_InitEv) refers to print.o(i._ZN5Print5printEPKc) for Print::print(const char*)
    hal_display.o(i._ZN3HAL12Display_InitEv) refers to adafruit_st7789.o(i._ZN15Adafruit_ST77895beginEv) for Adafruit_ST7789::begin()
    hal_display.o(i._ZN3HAL12Display_InitEv) refers to adafruit_st7789.o(i._ZN15Adafruit_ST778911setRotationEh) for Adafruit_ST7789::setRotation(unsigned char)
    hal_display.o(i._ZN3HAL12Display_InitEv) refers to adafruit_st7789.o(i._ZN15Adafruit_ST778910fillScreenEt) for Adafruit_ST7789::fillScreen(unsigned short)
    hal_display.o(i._ZN3HAL12Display_InitEv) refers to adafruit_gfx.o(i._ZN12Adafruit_GFX11setTextWrapEb) for Adafruit_GFX::setTextWrap(bool)
    hal_display.o(i._ZN3HAL12Display_InitEv) refers to adafruit_gfx.o(i._ZN12Adafruit_GFX11setTextSizeEh) for Adafruit_GFX::setTextSize(unsigned char)
    hal_display.o(i._ZN3HAL12Display_InitEv) refers to adafruit_st7789.o(i._ZN15Adafruit_ST77899setCursorEss) for Adafruit_ST7789::setCursor(short, short)
    hal_display.o(i._ZN3HAL12Display_InitEv) refers to adafruit_gfx.o(i._ZN12Adafruit_GFX7setFontEPK7GFXfont) for Adafruit_GFX::setFont(const GFXfont*)
    hal_display.o(i._ZN3HAL12Display_InitEv) refers to adafruit_gfx.o(i._ZN12Adafruit_GFX12setTextColorEtt) for Adafruit_GFX::setTextColor(unsigned short, unsigned short)
    hal_display.o(i._ZN3HAL12Display_InitEv) refers to hal_display.o(i._ZN37_INTERNAL_15_HAL_Display_cpp_6b788b1420Display_SPI_DMA_InitEv) for [local to HAL_Display_cpp]::Display_SPI_DMA_Init()
    hal_display.o(i._ZN3HAL12Display_InitEv) refers to hal_backlight.o(i._ZN3HAL20Backlight_SetGradualEtt) for HAL::Backlight_SetGradual(unsigned short, unsigned short)
    hal_display.o(i._ZN3HAL12Display_InitEv) refers to print.o(i._ZN5Print7printlnEPKc) for Print::println(const char*)
    hal_display.o(i._ZN3HAL12Display_InitEv) refers to hardwareserial.o(.bss) for Serial
    hal_display.o(i._ZN3HAL12Display_InitEv) refers to hal_display.o(.bss) for .bss
    hal_display.o(i._ZN3HAL18Display_SendPixelsEPKtj) refers to hal_display.o(i._ZN37_INTERNAL_15_HAL_Display_cpp_6b788b1420Display_SPI_DMA_SendEPKvj) for [local to HAL_Display_cpp]::Display_SPI_DMA_Send(const void*, unsigned)
    hal_display.o(i._ZN3HAL18Display_SendPixelsEPKtj) refers to gpio.o(.constdata) for PIN_MAP
    hal_display.o(i._ZN3HAL21Display_DumpCrashInfoEPKc) refers to adafruit_st7789.o(i._ZN15Adafruit_ST778910fillScreenEt) for Adafruit_ST7789::fillScreen(unsigned short)
    hal_display.o(i._ZN3HAL21Display_DumpCrashInfoEPKc) refers to adafruit_gfx.o(i._ZN12Adafruit_GFX12setTextColorEt) for Adafruit_GFX::setTextColor(unsigned short)
    hal_display.o(i._ZN3HAL21Display_DumpCrashInfoEPKc) refers to adafruit_gfx.o(i._ZN12Adafruit_GFX7setFontEPK7GFXfont) for Adafruit_GFX::setFont(const GFXfont*)
    hal_display.o(i._ZN3HAL21Display_DumpCrashInfoEPKc) refers to adafruit_gfx.o(i._ZN12Adafruit_GFX11setTextSizeEh) for Adafruit_GFX::setTextSize(unsigned char)
    hal_display.o(i._ZN3HAL21Display_DumpCrashInfoEPKc) refers to adafruit_st7789.o(i._ZN15Adafruit_ST77899setCursorEss) for Adafruit_ST7789::setCursor(short, short)
    hal_display.o(i._ZN3HAL21Display_DumpCrashInfoEPKc) refers to print.o(i._ZN5Print5printEPKc) for Print::print(const char*)
    hal_display.o(i._ZN3HAL21Display_DumpCrashInfoEPKc) refers to adafruit_gfx.o(i._ZNK12Adafruit_GFX6heightEv) for Adafruit_GFX::height() const
    hal_display.o(i._ZN3HAL21Display_DumpCrashInfoEPKc) refers to print.o(i._ZN5Print7printlnEPKc) for Print::println(const char*)
    hal_display.o(i._ZN3HAL21Display_DumpCrashInfoEPKc) refers to print.o(i._ZN5Print6printfEPKcz) for Print::printf(const char*, ...)
    hal_display.o(i._ZN3HAL21Display_DumpCrashInfoEPKc) refers to hal_display.o(.bss) for .bss
    hal_display.o(i._ZN3HAL21Display_DumpCrashInfoEPKc) refers to hal_display.o(.constdata) for .constdata
    hal_display.o(i._ZN3HAL21Display_SetAddrWindowEssss) refers to adafruit_st7789.o(i._ZN15Adafruit_ST778913setAddrWindowEssss) for Adafruit_ST7789::setAddrWindow(short, short, short, short)
    hal_display.o(i._ZN3HAL21Display_SetAddrWindowEssss) refers to hal_display.o(.bss) for .bss
    hal_display.o(i._ZN3HAL29Display_SetSendFinishCallbackEPFvvE) refers to hal_display.o(.data) for .data
    hal_display.o(i.__sti___15_HAL_Display_cpp_6b788b14) refers to adafruit_st7789.o(i._ZN15Adafruit_ST7789C1EhhhP8SPIClass) for Adafruit_ST7789::Adafruit_ST7789(unsigned char, unsigned char, unsigned char, SPIClass*)
    hal_display.o(i.__sti___15_HAL_Display_cpp_6b788b14) refers to spi.o(.bss) for SPI
    hal_display.o(i.__sti___15_HAL_Display_cpp_6b788b14) refers to hal_display.o(.bss) for .bss
    hal_display.o(.ARM.exidx) refers to hal_display.o(i._ZN37_INTERNAL_15_HAL_Display_cpp_6b788b1420Display_SPI_DMA_SendEPKvj) for i._ZN37_INTERNAL_15_HAL_Display_cpp_6b788b1420Display_SPI_DMA_SendEPKvj
    hal_display.o(.ARM.exidx) refers to hal_display.o(i.DMA1_Channel3_IRQHandler) for i.DMA1_Channel3_IRQHandler
    hal_display.o(.ARM.exidx) refers to hal_display.o(i._ZN3HAL12Display_InitEv) for i._ZN3HAL12Display_InitEv
    hal_display.o(.ARM.exidx) refers to hal_display.o(i._ZN3HAL21Display_DumpCrashInfoEPKc) for i._ZN3HAL21Display_DumpCrashInfoEPKc
    hal_display.o(.ARM.exidx) refers to hal_display.o(i._ZN3HAL21Display_SetAddrWindowEssss) for i._ZN3HAL21Display_SetAddrWindowEssss
    hal_display.o(.ARM.exidx) refers to hal_display.o(i._ZN3HAL18Display_SendPixelsEPKtj) for i._ZN3HAL18Display_SendPixelsEPKtj
    hal_display.o(.ARM.exidx) refers to hal_display.o(i._ZN3HAL29Display_SetSendFinishCallbackEPFvvE) for i._ZN3HAL29Display_SetSendFinishCallbackEPFvvE
    hal_display.o(.ARM.exidx) refers to hal_display.o(i.__sti___15_HAL_Display_cpp_6b788b14) for i.__sti___15_HAL_Display_cpp_6b788b14
    hal_display.o(.ARM.exidx) refers to hal_display.o(i._ZN37_INTERNAL_15_HAL_Display_cpp_6b788b1420Display_SPI_DMA_InitEv) for i._ZN37_INTERNAL_15_HAL_Display_cpp_6b788b1420Display_SPI_DMA_InitEv
    hal_display.o(.constdata) refers to hal_display.o(.constdata) for FreeMono12pt7bBitmaps
    hal_display.o(.constdata) refers to hal_display.o(.constdata) for FreeMono12pt7bGlyphs
    hal_display.o(.init_array) refers to hal_display.o(i.__sti___15_HAL_Display_cpp_6b788b14) for __sti___15_HAL_Display_cpp_6b788b14
    hal_display.o(.init_array) refers to init_aeabi.o(.text) for __cpp_initialize__aeabi_
    hal_encoder.o(i._ZN37_INTERNAL_15_HAL_Encoder_cpp_1362964a12Buzz_HandlerEi) refers to delay.o(i.millis) for millis
    hal_encoder.o(i._ZN37_INTERNAL_15_HAL_Encoder_cpp_1362964a12Buzz_HandlerEi) refers to hal_buzz.o(i._ZN3HAL9Buzz_ToneEji) for HAL::Buzz_Tone(unsigned, int)
    hal_encoder.o(i._ZN37_INTERNAL_15_HAL_Encoder_cpp_1362964a12Buzz_HandlerEi) refers to hal_encoder.o(.data) for .data
    hal_encoder.o(i._ZN37_INTERNAL_15_HAL_Encoder_cpp_1362964a19Encoder_PushHandlerEP11ButtonEventi) refers to hal_power.o(i._ZN3HAL14Power_ShutdownEv) for HAL::Power_Shutdown()
    hal_encoder.o(i._ZN37_INTERNAL_15_HAL_Encoder_cpp_1362964a19Encoder_PushHandlerEP11ButtonEventi) refers to hal_audio.o(i._ZN3HAL15Audio_PlayMusicEPKc) for HAL::Audio_PlayMusic(const char*)
    hal_encoder.o(i._ZN37_INTERNAL_15_HAL_Encoder_cpp_1362964a19Encoder_PushHandlerEP11ButtonEventi) refers to hal_encoder.o(.data) for .data
    hal_encoder.o(i._ZN37_INTERNAL_15_HAL_Encoder_cpp_1362964a20Encoder_EventHandlerEv) refers to arduino.o(i.digitalRead) for digitalRead
    hal_encoder.o(i._ZN37_INTERNAL_15_HAL_Encoder_cpp_1362964a20Encoder_EventHandlerEv) refers to hal_encoder.o(i._ZN37_INTERNAL_15_HAL_Encoder_cpp_1362964a12Buzz_HandlerEi) for [local to HAL_Encoder_cpp]::Buzz_Handler(int)
    hal_encoder.o(i._ZN37_INTERNAL_15_HAL_Encoder_cpp_1362964a20Encoder_EventHandlerEv) refers to hal_encoder.o(.data) for .data
    hal_encoder.o(i._ZN3HAL12Encoder_InitEv) refers to arduino.o(i.pinMode) for pinMode
    hal_encoder.o(i._ZN3HAL12Encoder_InitEv) refers to exti.o(i.attachInterrupt) for attachInterrupt
    hal_encoder.o(i._ZN3HAL12Encoder_InitEv) refers to buttonevent.o(i._ZN11ButtonEvent11EventAttachEPFvPS_iE) for ButtonEvent::EventAttach(void(*)(ButtonEvent*, int))
    hal_encoder.o(i._ZN3HAL12Encoder_InitEv) refers to hal_encoder.o(i._ZN37_INTERNAL_15_HAL_Encoder_cpp_1362964a20Encoder_EventHandlerEv) for [local to HAL_Encoder_cpp]::Encoder_EventHandler()
    hal_encoder.o(i._ZN3HAL12Encoder_InitEv) refers to hal_encoder.o(i._ZN37_INTERNAL_15_HAL_Encoder_cpp_1362964a19Encoder_PushHandlerEP11ButtonEventi) for [local to HAL_Encoder_cpp]::Encoder_PushHandler(ButtonEvent*, int)
    hal_encoder.o(i._ZN3HAL12Encoder_InitEv) refers to hal_encoder.o(.bss) for .bss
    hal_encoder.o(i._ZN3HAL14Encoder_UpdateEv) refers to hal_encoder.o(i._ZN3HAL17Encoder_GetIsPushEv) for HAL::Encoder_GetIsPush()
    hal_encoder.o(i._ZN3HAL14Encoder_UpdateEv) refers to buttonevent.o(i._ZN11ButtonEvent12EventMonitorEb) for ButtonEvent::EventMonitor(bool)
    hal_encoder.o(i._ZN3HAL14Encoder_UpdateEv) refers to hal_encoder.o(.bss) for .bss
    hal_encoder.o(i._ZN3HAL15Encoder_GetDiffEv) refers to hal_encoder.o(.data) for .data
    hal_encoder.o(i._ZN3HAL17Encoder_GetIsPushEv) refers to arduino.o(i.digitalRead) for digitalRead
    hal_encoder.o(i._ZN3HAL17Encoder_GetIsPushEv) refers to hal_encoder.o(.data) for .data
    hal_encoder.o(i._ZN3HAL17Encoder_SetEnableEb) refers to hal_encoder.o(.data) for .data
    hal_encoder.o(i.__sti___15_HAL_Encoder_cpp_1362964a) refers to buttonevent.o(i._ZN11ButtonEventC1Ettt) for ButtonEvent::ButtonEvent(unsigned short, unsigned short, unsigned short)
    hal_encoder.o(i.__sti___15_HAL_Encoder_cpp_1362964a) refers to hal_encoder.o(.bss) for .bss
    hal_encoder.o(.ARM.exidx) refers to hal_encoder.o(i._ZN37_INTERNAL_15_HAL_Encoder_cpp_1362964a20Encoder_EventHandlerEv) for i._ZN37_INTERNAL_15_HAL_Encoder_cpp_1362964a20Encoder_EventHandlerEv
    hal_encoder.o(.ARM.exidx) refers to hal_encoder.o(i._ZN37_INTERNAL_15_HAL_Encoder_cpp_1362964a19Encoder_PushHandlerEP11ButtonEventi) for i._ZN37_INTERNAL_15_HAL_Encoder_cpp_1362964a19Encoder_PushHandlerEP11ButtonEventi
    hal_encoder.o(.ARM.exidx) refers to hal_encoder.o(i._ZN3HAL12Encoder_InitEv) for i._ZN3HAL12Encoder_InitEv
    hal_encoder.o(.ARM.exidx) refers to hal_encoder.o(i._ZN3HAL17Encoder_GetIsPushEv) for i._ZN3HAL17Encoder_GetIsPushEv
    hal_encoder.o(.ARM.exidx) refers to hal_encoder.o(i._ZN3HAL14Encoder_UpdateEv) for i._ZN3HAL14Encoder_UpdateEv
    hal_encoder.o(.ARM.exidx) refers to hal_encoder.o(i._ZN3HAL15Encoder_GetDiffEv) for i._ZN3HAL15Encoder_GetDiffEv
    hal_encoder.o(.ARM.exidx) refers to hal_encoder.o(i._ZN3HAL17Encoder_SetEnableEb) for i._ZN3HAL17Encoder_SetEnableEb
    hal_encoder.o(.ARM.exidx) refers to hal_encoder.o(i.__sti___15_HAL_Encoder_cpp_1362964a) for i.__sti___15_HAL_Encoder_cpp_1362964a
    hal_encoder.o(.ARM.exidx) refers to hal_encoder.o(i._ZN37_INTERNAL_15_HAL_Encoder_cpp_1362964a12Buzz_HandlerEi) for i._ZN37_INTERNAL_15_HAL_Encoder_cpp_1362964a12Buzz_HandlerEi
    hal_encoder.o(.init_array) refers to hal_encoder.o(i.__sti___15_HAL_Encoder_cpp_1362964a) for __sti___15_HAL_Encoder_cpp_1362964a
    hal_encoder.o(.init_array) refers to init_aeabi.o(.text) for __cpp_initialize__aeabi_
    hal_faulthandle.o(.emb_text) refers to cm_backtrace.o(i.cm_backtrace_fault) for cm_backtrace_fault
    hal_faulthandle.o(.emb_text) refers to hal_faulthandle.o(i.vApplicationHardFaultHook) for vApplicationHardFaultHook
    hal_faulthandle.o(i._ZN3HAL16FaultHandle_InitEv) refers to cm_backtrace.o(i.cm_backtrace_init) for cm_backtrace_init
    hal_faulthandle.o(i.cmb_printf) refers to c89vsnprintf.o(.text) for __c89vsnprintf
    hal_faulthandle.o(i.cmb_printf) refers to print.o(i._ZN5Print5printEPKc) for Print::print(const char*)
    hal_faulthandle.o(i.cmb_printf) refers to hardwareserial.o(.bss) for Serial
    hal_faulthandle.o(i.vApplicationHardFaultHook) refers to hal_display.o(i._ZN3HAL21Display_DumpCrashInfoEPKc) for HAL::Display_DumpCrashInfo(const char*)
    hal_faulthandle.o(i.vApplicationHardFaultHook) refers to arduino.o(i.digitalRead) for digitalRead
    hal_faulthandle.o(i.vApplicationHardFaultHook) refers to system_at32f435_437.o(.data) for system_core_clock
    hal_faulthandle.o(.ARM.exidx) refers to hal_faulthandle.o(i.cmb_printf) for i.cmb_printf
    hal_faulthandle.o(.ARM.exidx) refers to hal_faulthandle.o(i.vApplicationHardFaultHook) for i.vApplicationHardFaultHook
    hal_faulthandle.o(.ARM.exidx) refers to hal_faulthandle.o(i._ZN3HAL16FaultHandle_InitEv) for i._ZN3HAL16FaultHandle_InitEv
    hal_gps.o(i._ZN3HAL10GPS_UpdateEv) refers to hardwareserial.o(i._ZN14HardwareSerial4readEv) for HardwareSerial::read()
    hal_gps.o(i._ZN3HAL10GPS_UpdateEv) refers to hal_gps.o(i._ZN14HardwareSerial5writeEi) for HardwareSerial::write(int)
    hal_gps.o(i._ZN3HAL10GPS_UpdateEv) refers to tinygps++.o(i._ZN11TinyGPSPlus6encodeEc) for TinyGPSPlus::encode(char)
    hal_gps.o(i._ZN3HAL10GPS_UpdateEv) refers to hardwareserial.o(i._ZN14HardwareSerial9availableEv) for HardwareSerial::available()
    hal_gps.o(i._ZN3HAL10GPS_UpdateEv) refers to hardwareserial.o(.bss) for Serial2
    hal_gps.o(i._ZN3HAL10GPS_UpdateEv) refers to hal_gps.o(.bss) for .bss
    hal_gps.o(i._ZN3HAL11GPS_GetInfoEPNS_10GPS_Info_tE) refers to rt_memclr_w.o(.text) for __aeabi_memclr4
    hal_gps.o(i._ZN3HAL11GPS_GetInfoEPNS_10GPS_Info_tE) refers to tinygps++.o(i._ZN15TinyGPSLocation3lngEv) for TinyGPSLocation::lng()
    hal_gps.o(i._ZN3HAL11GPS_GetInfoEPNS_10GPS_Info_tE) refers to tinygps++.o(i._ZN15TinyGPSLocation3latEv) for TinyGPSLocation::lat()
    hal_gps.o(i._ZN3HAL11GPS_GetInfoEPNS_10GPS_Info_tE) refers to dflt_clz.o(x$fpl$dflt) for __aeabi_i2d
    hal_gps.o(i._ZN3HAL11GPS_GetInfoEPNS_10GPS_Info_tE) refers to ddiv.o(x$fpl$ddiv) for __aeabi_ddiv
    hal_gps.o(i._ZN3HAL11GPS_GetInfoEPNS_10GPS_Info_tE) refers to d2f.o(x$fpl$d2f) for __aeabi_d2f
    hal_gps.o(i._ZN3HAL11GPS_GetInfoEPNS_10GPS_Info_tE) refers to dmul.o(x$fpl$dmul) for __aeabi_dmul
    hal_gps.o(i._ZN3HAL11GPS_GetInfoEPNS_10GPS_Info_tE) refers to tinygps++.o(i._ZN11TinyGPSDate4yearEv) for TinyGPSDate::year()
    hal_gps.o(i._ZN3HAL11GPS_GetInfoEPNS_10GPS_Info_tE) refers to tinygps++.o(i._ZN11TinyGPSDate5monthEv) for TinyGPSDate::month()
    hal_gps.o(i._ZN3HAL11GPS_GetInfoEPNS_10GPS_Info_tE) refers to tinygps++.o(i._ZN11TinyGPSDate3dayEv) for TinyGPSDate::day()
    hal_gps.o(i._ZN3HAL11GPS_GetInfoEPNS_10GPS_Info_tE) refers to tinygps++.o(i._ZN11TinyGPSTime4hourEv) for TinyGPSTime::hour()
    hal_gps.o(i._ZN3HAL11GPS_GetInfoEPNS_10GPS_Info_tE) refers to tinygps++.o(i._ZN11TinyGPSTime6minuteEv) for TinyGPSTime::minute()
    hal_gps.o(i._ZN3HAL11GPS_GetInfoEPNS_10GPS_Info_tE) refers to tinygps++.o(i._ZN11TinyGPSTime6secondEv) for TinyGPSTime::second()
    hal_gps.o(i._ZN3HAL11GPS_GetInfoEPNS_10GPS_Info_tE) refers to hal_gps.o(.bss) for .bss
    hal_gps.o(i._ZN3HAL19GPS_LocationIsValidEv) refers to hal_gps.o(.bss) for .bss
    hal_gps.o(i._ZN3HAL21GPS_GetDistanceOffsetEPNS_10GPS_Info_tEdd) refers to tinygps++.o(i._ZN11TinyGPSPlus15distanceBetweenEdddd) for TinyGPSPlus::distanceBetween(double, double, double, double)
    hal_gps.o(i._ZN3HAL8GPS_InitEv) refers to hardwareserial.o(i._ZN14HardwareSerial5beginEj15SERIAL_Config_thh) for HardwareSerial::begin(unsigned, SERIAL_Config_t, unsigned char, unsigned char)
    hal_gps.o(i._ZN3HAL8GPS_InitEv) refers to print.o(i._ZN5Print5printEPKc) for Print::print(const char*)
    hal_gps.o(i._ZN3HAL8GPS_InitEv) refers to print.o(i._ZN5Print7printlnEPKc) for Print::println(const char*)
    hal_gps.o(i._ZN3HAL8GPS_InitEv) refers to hardwareserial.o(.bss) for Serial2
    hal_gps.o(i._ZN3HAL8GPS_InitEv) refers to hal_gps.o(.constdata__ZZN11TinyGPSPlus14libraryVersionEvEs) for TinyGPSPlus::libraryVersion()::string
    hal_gps.o(i.__sti___11_HAL_GPS_cpp_3487eba5) refers to tinygps++.o(i._ZN11TinyGPSPlusC1Ev) for TinyGPSPlus::TinyGPSPlus()
    hal_gps.o(i.__sti___11_HAL_GPS_cpp_3487eba5) refers to hal_gps.o(.bss) for .bss
    hal_gps.o(.ARM.exidx) refers to hal_gps.o(i._ZN3HAL8GPS_InitEv) for i._ZN3HAL8GPS_InitEv
    hal_gps.o(.ARM.exidx) refers to hal_gps.o(i._ZN3HAL10GPS_UpdateEv) for i._ZN3HAL10GPS_UpdateEv
    hal_gps.o(.ARM.exidx) refers to hal_gps.o(i._ZN3HAL11GPS_GetInfoEPNS_10GPS_Info_tE) for i._ZN3HAL11GPS_GetInfoEPNS_10GPS_Info_tE
    hal_gps.o(.ARM.exidx) refers to hal_gps.o(i._ZN3HAL19GPS_LocationIsValidEv) for i._ZN3HAL19GPS_LocationIsValidEv
    hal_gps.o(.ARM.exidx) refers to hal_gps.o(i._ZN3HAL21GPS_GetDistanceOffsetEPNS_10GPS_Info_tEdd) for i._ZN3HAL21GPS_GetDistanceOffsetEPNS_10GPS_Info_tEdd
    hal_gps.o(.ARM.exidx) refers to hal_gps.o(i.__sti___11_HAL_GPS_cpp_3487eba5) for i.__sti___11_HAL_GPS_cpp_3487eba5
    hal_gps.o(.init_array) refers to hal_gps.o(i.__sti___11_HAL_GPS_cpp_3487eba5) for __sti___11_HAL_GPS_cpp_3487eba5
    hal_gps.o(.init_array) refers to init_aeabi.o(.text) for __cpp_initialize__aeabi_
    hal_i2c_scan.o(i._ZN3HAL8I2C_ScanEv) refers to wire.o(i._ZN7TwoWire5beginEh) for TwoWire::begin(unsigned char)
    hal_i2c_scan.o(i._ZN3HAL8I2C_ScanEv) refers to print.o(i._ZN5Print7printlnEPKc) for Print::println(const char*)
    hal_i2c_scan.o(i._ZN3HAL8I2C_ScanEv) refers to wirebase.o(i._ZN8WireBase17beginTransmissionEh) for WireBase::beginTransmission(unsigned char)
    hal_i2c_scan.o(i._ZN3HAL8I2C_ScanEv) refers to wirebase.o(i._ZN8WireBase15endTransmissionEv) for WireBase::endTransmission()
    hal_i2c_scan.o(i._ZN3HAL8I2C_ScanEv) refers to print.o(i._ZN5Print5printEPKc) for Print::print(const char*)
    hal_i2c_scan.o(i._ZN3HAL8I2C_ScanEv) refers to print.o(i._ZN5Print5printEhi) for Print::print(unsigned char, int)
    hal_i2c_scan.o(i._ZN3HAL8I2C_ScanEv) refers to print.o(i._ZN5Print7printlnEhi) for Print::println(unsigned char, int)
    hal_i2c_scan.o(i._ZN3HAL8I2C_ScanEv) refers to print.o(i._ZN5Print6printfEPKcz) for Print::printf(const char*, ...)
    hal_i2c_scan.o(i._ZN3HAL8I2C_ScanEv) refers to wire.o(.bss) for Wire
    hal_i2c_scan.o(i._ZN3HAL8I2C_ScanEv) refers to hardwareserial.o(.bss) for Serial
    hal_i2c_scan.o(.ARM.exidx) refers to hal_i2c_scan.o(i._ZN3HAL8I2C_ScanEv) for i._ZN3HAL8I2C_ScanEv
    hal_imu.o(i._ZN3HAL10IMU_UpdateEv) refers to lsm6dsm.o(i._ZN7LSM6DSM10GetMotion6EPsS0_S0_S0_S0_S0_) for LSM6DSM::GetMotion6(short*, short*, short*, short*, short*, short*)
    hal_imu.o(i._ZN3HAL10IMU_UpdateEv) refers to lsm6dsm.o(i._ZN7LSM6DSM14GetCurrentStepEv) for LSM6DSM::GetCurrentStep()
    hal_imu.o(i._ZN3HAL10IMU_UpdateEv) refers to hal_imu.o(.data) for .data
    hal_imu.o(i._ZN3HAL21IMU_SetCommitCallbackEPFbPvS0_ES0_) refers to hal_imu.o(.data) for .data
    hal_imu.o(i._ZN3HAL8IMU_InitEv) refers to print.o(i._ZN5Print5printEPKc) for Print::print(const char*)
    hal_imu.o(i._ZN3HAL8IMU_InitEv) refers to lsm6dsm.o(i._ZN7LSM6DSM4InitEh) for LSM6DSM::Init(unsigned char)
    hal_imu.o(i._ZN3HAL8IMU_InitEv) refers to print.o(i._ZN5Print7printlnEPKc) for Print::println(const char*)
    hal_imu.o(i._ZN3HAL8IMU_InitEv) refers to hardwareserial.o(.bss) for Serial
    hal_imu.o(i._ZN3HAL8IMU_InitEv) refers to hal_imu.o(.data) for .data
    hal_imu.o(.ARM.exidx) refers to hal_imu.o(i._ZN3HAL8IMU_InitEv) for i._ZN3HAL8IMU_InitEv
    hal_imu.o(.ARM.exidx) refers to hal_imu.o(i._ZN3HAL21IMU_SetCommitCallbackEPFbPvS0_ES0_) for i._ZN3HAL21IMU_SetCommitCallbackEPFbPvS0_ES0_
    hal_imu.o(.ARM.exidx) refers to hal_imu.o(i._ZN3HAL10IMU_UpdateEv) for i._ZN3HAL10IMU_UpdateEv
    hal_mag.o(i._ZN3HAL10MAG_UpdateEv) refers to lis3mdl.o(i._ZN7LIS3MDL4readEv) for LIS3MDL::read()
    hal_mag.o(i._ZN3HAL10MAG_UpdateEv) refers to hal_mag.o(.bss) for .bss
    hal_mag.o(i._ZN3HAL10MAG_UpdateEv) refers to hal_mag.o(.data) for .data
    hal_mag.o(i._ZN3HAL21MAG_SetCommitCallbackEPFbPvS0_ES0_) refers to hal_mag.o(.data) for .data
    hal_mag.o(i._ZN3HAL8MAG_InitEv) refers to print.o(i._ZN5Print5printEPKc) for Print::print(const char*)
    hal_mag.o(i._ZN3HAL8MAG_InitEv) refers to lis3mdl.o(i._ZN7LIS3MDL4initENS_10deviceTypeENS_8sa1StateE) for LIS3MDL::init(LIS3MDL::deviceType, LIS3MDL::sa1State)
    hal_mag.o(i._ZN3HAL8MAG_InitEv) refers to lis3mdl.o(i._ZN7LIS3MDL13enableDefaultEv) for LIS3MDL::enableDefault()
    hal_mag.o(i._ZN3HAL8MAG_InitEv) refers to print.o(i._ZN5Print7printlnEPKc) for Print::println(const char*)
    hal_mag.o(i._ZN3HAL8MAG_InitEv) refers to hardwareserial.o(.bss) for Serial
    hal_mag.o(i._ZN3HAL8MAG_InitEv) refers to hal_mag.o(.bss) for .bss
    hal_mag.o(i.__sti___11_HAL_MAG_cpp_60ef128f) refers to lis3mdl.o(i._ZN7LIS3MDLC1Ev) for LIS3MDL::LIS3MDL()
    hal_mag.o(i.__sti___11_HAL_MAG_cpp_60ef128f) refers to hal_mag.o(.bss) for .bss
    hal_mag.o(.ARM.exidx) refers to hal_mag.o(i._ZN3HAL8MAG_InitEv) for i._ZN3HAL8MAG_InitEv
    hal_mag.o(.ARM.exidx) refers to hal_mag.o(i._ZN3HAL21MAG_SetCommitCallbackEPFbPvS0_ES0_) for i._ZN3HAL21MAG_SetCommitCallbackEPFbPvS0_ES0_
    hal_mag.o(.ARM.exidx) refers to hal_mag.o(i._ZN3HAL10MAG_UpdateEv) for i._ZN3HAL10MAG_UpdateEv
    hal_mag.o(.ARM.exidx) refers to hal_mag.o(i.__sti___11_HAL_MAG_cpp_60ef128f) for i.__sti___11_HAL_MAG_cpp_60ef128f
    hal_mag.o(.init_array) refers to hal_mag.o(i.__sti___11_HAL_MAG_cpp_60ef128f) for __sti___11_HAL_MAG_cpp_60ef128f
    hal_mag.o(.init_array) refers to init_aeabi.o(.text) for __cpp_initialize__aeabi_
    hal_memory.o(.ARM.exidx) refers to hal_memory.o(i._ZN3HAL15Memory_DumpInfoEv) for i._ZN3HAL15Memory_DumpInfoEv
    hal_power.o(i._ZN35_INTERNAL_13_HAL_Power_cpp_1cf242bb14Power_ADC_InitEP8adc_type) refers to at32f435_437_crm.o(i.crm_periph_clock_enable) for crm_periph_clock_enable
    hal_power.o(i._ZN35_INTERNAL_13_HAL_Power_cpp_1cf242bb14Power_ADC_InitEP8adc_type) refers to at32f435_437_adc.o(i.adc_common_default_para_init) for adc_common_default_para_init
    hal_power.o(i._ZN35_INTERNAL_13_HAL_Power_cpp_1cf242bb14Power_ADC_InitEP8adc_type) refers to at32f435_437_adc.o(i.adc_common_config) for adc_common_config
    hal_power.o(i._ZN35_INTERNAL_13_HAL_Power_cpp_1cf242bb14Power_ADC_InitEP8adc_type) refers to at32f435_437_adc.o(i.adc_base_default_para_init) for adc_base_default_para_init
    hal_power.o(i._ZN35_INTERNAL_13_HAL_Power_cpp_1cf242bb14Power_ADC_InitEP8adc_type) refers to at32f435_437_adc.o(i.adc_base_config) for adc_base_config
    hal_power.o(i._ZN35_INTERNAL_13_HAL_Power_cpp_1cf242bb14Power_ADC_InitEP8adc_type) refers to at32f435_437_adc.o(i.adc_resolution_set) for adc_resolution_set
    hal_power.o(i._ZN35_INTERNAL_13_HAL_Power_cpp_1cf242bb14Power_ADC_InitEP8adc_type) refers to at32f435_437_adc.o(i.adc_ordinary_conversion_trigger_set) for adc_ordinary_conversion_trigger_set
    hal_power.o(i._ZN35_INTERNAL_13_HAL_Power_cpp_1cf242bb14Power_ADC_InitEP8adc_type) refers to at32f435_437_adc.o(i.adc_dma_mode_enable) for adc_dma_mode_enable
    hal_power.o(i._ZN35_INTERNAL_13_HAL_Power_cpp_1cf242bb14Power_ADC_InitEP8adc_type) refers to at32f435_437_adc.o(i.adc_dma_request_repeat_enable) for adc_dma_request_repeat_enable
    hal_power.o(i._ZN35_INTERNAL_13_HAL_Power_cpp_1cf242bb14Power_ADC_InitEP8adc_type) refers to at32f435_437_adc.o(i.adc_interrupt_enable) for adc_interrupt_enable
    hal_power.o(i._ZN35_INTERNAL_13_HAL_Power_cpp_1cf242bb14Power_ADC_InitEP8adc_type) refers to at32f435_437_adc.o(i.adc_enable) for adc_enable
    hal_power.o(i._ZN35_INTERNAL_13_HAL_Power_cpp_1cf242bb14Power_ADC_InitEP8adc_type) refers to at32f435_437_adc.o(i.adc_flag_get) for adc_flag_get
    hal_power.o(i._ZN35_INTERNAL_13_HAL_Power_cpp_1cf242bb14Power_ADC_InitEP8adc_type) refers to at32f435_437_adc.o(i.adc_calibration_init) for adc_calibration_init
    hal_power.o(i._ZN35_INTERNAL_13_HAL_Power_cpp_1cf242bb14Power_ADC_InitEP8adc_type) refers to at32f435_437_adc.o(i.adc_calibration_init_status_get) for adc_calibration_init_status_get
    hal_power.o(i._ZN35_INTERNAL_13_HAL_Power_cpp_1cf242bb14Power_ADC_InitEP8adc_type) refers to at32f435_437_adc.o(i.adc_calibration_start) for adc_calibration_start
    hal_power.o(i._ZN35_INTERNAL_13_HAL_Power_cpp_1cf242bb14Power_ADC_InitEP8adc_type) refers to at32f435_437_adc.o(i.adc_calibration_status_get) for adc_calibration_status_get
    hal_power.o(i._ZN3HAL10Power_InitEv) refers to print.o(i._ZN5Print6printfEPKcz) for Print::printf(const char*, ...)
    hal_power.o(i._ZN3HAL10Power_InitEv) refers to arduino.o(i.pinMode) for pinMode
    hal_power.o(i._ZN3HAL10Power_InitEv) refers to arduino.o(i.digitalWrite) for digitalWrite
    hal_power.o(i._ZN3HAL10Power_InitEv) refers to delay.o(i.delay_ms) for delay_ms
    hal_power.o(i._ZN3HAL10Power_InitEv) refers to print.o(i._ZN5Print7printlnEPKc) for Print::println(const char*)
    hal_power.o(i._ZN3HAL10Power_InitEv) refers to hal_power.o(i._ZN35_INTERNAL_13_HAL_Power_cpp_1cf242bb14Power_ADC_InitEP8adc_type) for [local to HAL_Power_cpp]::Power_ADC_Init(adc_type*)
    hal_power.o(i._ZN3HAL10Power_InitEv) refers to hal_power.o(i._ZN3HAL27Power_SetAutoLowPowerEnableEb) for HAL::Power_SetAutoLowPowerEnable(bool)
    hal_power.o(i._ZN3HAL10Power_InitEv) refers to hal_power.o(.bss) for .bss
    hal_power.o(i._ZN3HAL10Power_InitEv) refers to hardwareserial.o(.bss) for Serial
    hal_power.o(i._ZN3HAL12Power_UpdateEv) refers to delay.o(i.millis) for millis
    hal_power.o(i._ZN3HAL12Power_UpdateEv) refers to at32f435_437_adc.o(i.adc_flag_get) for adc_flag_get
    hal_power.o(i._ZN3HAL12Power_UpdateEv) refers to at32f435_437_adc.o(i.adc_ordinary_conversion_data_get) for adc_ordinary_conversion_data_get
    hal_power.o(i._ZN3HAL12Power_UpdateEv) refers to hal_power.o(i._ZN3HAL14Power_ShutdownEv) for HAL::Power_Shutdown()
    hal_power.o(i._ZN3HAL12Power_UpdateEv) refers to at32f435_437_adc.o(i.adc_ordinary_channel_set) for adc_ordinary_channel_set
    hal_power.o(i._ZN3HAL12Power_UpdateEv) refers to at32f435_437_adc.o(i.adc_ordinary_software_trigger_enable) for adc_ordinary_software_trigger_enable
    hal_power.o(i._ZN3HAL12Power_UpdateEv) refers to hal_power.o(.data) for .data
    hal_power.o(i._ZN3HAL12Power_UpdateEv) refers to hal_power.o(.bss) for .bss
    hal_power.o(i._ZN3HAL12Power_UpdateEv) refers to gpio.o(.constdata) for PIN_MAP
    hal_power.o(i._ZN3HAL13Power_GetInfoEPNS_12Power_Info_tE) refers to arduino.o(i.map) for map
    hal_power.o(i._ZN3HAL13Power_GetInfoEPNS_12Power_Info_tE) refers to arduino.o(i.digitalRead) for digitalRead
    hal_power.o(i._ZN3HAL13Power_GetInfoEPNS_12Power_Info_tE) refers to hal_power.o(.bss) for .bss
    hal_power.o(i._ZN3HAL14Power_ShutdownEv) refers to hal_power.o(.data) for .data
    hal_power.o(i._ZN3HAL14Power_ShutdownEv) refers to hal_power.o(.bss) for .bss
    hal_power.o(i._ZN3HAL18Power_EventMonitorEv) refers to hal_backlight.o(i._ZN3HAL20Backlight_SetGradualEtt) for HAL::Backlight_SetGradual(unsigned short, unsigned short)
    hal_power.o(i._ZN3HAL18Power_EventMonitorEv) refers to arduino.o(i.digitalWrite) for digitalWrite
    hal_power.o(i._ZN3HAL18Power_EventMonitorEv) refers to print.o(i._ZN5Print7printlnEPKc) for Print::println(const char*)
    hal_power.o(i._ZN3HAL18Power_EventMonitorEv) refers to hal_power.o(.bss) for .bss
    hal_power.o(i._ZN3HAL18Power_EventMonitorEv) refers to hardwareserial.o(.bss) for Serial
    hal_power.o(i._ZN3HAL22Power_HandleTimeUpdateEv) refers to delay.o(i.millis) for millis
    hal_power.o(i._ZN3HAL22Power_HandleTimeUpdateEv) refers to hal_power.o(.bss) for .bss
    hal_power.o(i._ZN3HAL22Power_SetEventCallbackEPFvvE) refers to hal_power.o(.bss) for .bss
    hal_power.o(i._ZN3HAL27Power_SetAutoLowPowerEnableEb) refers to hal_power.o(i._ZN3HAL22Power_HandleTimeUpdateEv) for HAL::Power_HandleTimeUpdate()
    hal_power.o(i._ZN3HAL27Power_SetAutoLowPowerEnableEb) refers to hal_power.o(.bss) for .bss
    hal_power.o(i._ZN3HAL28Power_GetAutoLowPowerTimeoutEv) refers to hal_power.o(.bss) for .bss
    hal_power.o(i._ZN3HAL28Power_SetAutoLowPowerTimeoutEt) refers to hal_power.o(.bss) for .bss
    hal_power.o(.ARM.exidx) refers to hal_power.o(i._ZN3HAL22Power_HandleTimeUpdateEv) for i._ZN3HAL22Power_HandleTimeUpdateEv
    hal_power.o(.ARM.exidx) refers to hal_power.o(i._ZN3HAL27Power_SetAutoLowPowerEnableEb) for i._ZN3HAL27Power_SetAutoLowPowerEnableEb
    hal_power.o(.ARM.exidx) refers to hal_power.o(i._ZN3HAL10Power_InitEv) for i._ZN3HAL10Power_InitEv
    hal_power.o(.ARM.exidx) refers to hal_power.o(i._ZN3HAL28Power_SetAutoLowPowerTimeoutEt) for i._ZN3HAL28Power_SetAutoLowPowerTimeoutEt
    hal_power.o(.ARM.exidx) refers to hal_power.o(i._ZN3HAL28Power_GetAutoLowPowerTimeoutEv) for i._ZN3HAL28Power_GetAutoLowPowerTimeoutEv
    hal_power.o(.ARM.exidx) refers to hal_power.o(i._ZN3HAL14Power_ShutdownEv) for i._ZN3HAL14Power_ShutdownEv
    hal_power.o(.ARM.exidx) refers to hal_power.o(i._ZN3HAL12Power_UpdateEv) for i._ZN3HAL12Power_UpdateEv
    hal_power.o(.ARM.exidx) refers to hal_power.o(i._ZN3HAL18Power_EventMonitorEv) for i._ZN3HAL18Power_EventMonitorEv
    hal_power.o(.ARM.exidx) refers to hal_power.o(i._ZN3HAL13Power_GetInfoEPNS_12Power_Info_tE) for i._ZN3HAL13Power_GetInfoEPNS_12Power_Info_tE
    hal_power.o(.ARM.exidx) refers to hal_power.o(i._ZN3HAL20Power_RevertCapacityEtt) for i._ZN3HAL20Power_RevertCapacityEtt
    hal_power.o(.ARM.exidx) refers to hal_power.o(i._ZN3HAL22Power_SetEventCallbackEPFvvE) for i._ZN3HAL22Power_SetEventCallbackEPFvvE
    hal_power.o(.ARM.exidx) refers to hal_power.o(i._ZN35_INTERNAL_13_HAL_Power_cpp_1cf242bb14Power_ADC_InitEP8adc_type) for i._ZN35_INTERNAL_13_HAL_Power_cpp_1cf242bb14Power_ADC_InitEP8adc_type
    hal_sd_card.o(i._ZN37_INTERNAL_15_HAL_SD_CARD_cpp_8fe448c011SD_CheckDirEPKc) refers to fatfile.o(i._ZN7FatFile4openEPS_PKch) for FatFile::open(FatFile*, const char*, unsigned char)
    hal_sd_card.o(i._ZN37_INTERNAL_15_HAL_SD_CARD_cpp_8fe448c011SD_CheckDirEPKc) refers to print.o(i._ZN5Print6printfEPKcz) for Print::printf(const char*, ...)
    hal_sd_card.o(i._ZN37_INTERNAL_15_HAL_SD_CARD_cpp_8fe448c011SD_CheckDirEPKc) refers to fatfile.o(i._ZN7FatFile5mkdirEPS_PKcb) for FatFile::mkdir(FatFile*, const char*, bool)
    hal_sd_card.o(i._ZN37_INTERNAL_15_HAL_SD_CARD_cpp_8fe448c011SD_CheckDirEPKc) refers to print.o(i._ZN5Print7printlnEPKc) for Print::println(const char*)
    hal_sd_card.o(i._ZN37_INTERNAL_15_HAL_SD_CARD_cpp_8fe448c011SD_CheckDirEPKc) refers to hal_sd_card.o(.bss) for .bss
    hal_sd_card.o(i._ZN37_INTERNAL_15_HAL_SD_CARD_cpp_8fe448c011SD_CheckDirEPKc) refers to hardwareserial.o(.bss) for Serial
    hal_sd_card.o(i._ZN37_INTERNAL_15_HAL_SD_CARD_cpp_8fe448c014SD_GetDateTimeEPtS0_) refers to hal_clock.o(i._ZN3HAL13Clock_GetInfoEPNS_12Clock_Info_tE) for HAL::Clock_GetInfo(HAL::Clock_Info_t*)
    hal_sd_card.o(i._ZN37_INTERNAL_15_HAL_SD_CARD_cpp_8fe448c08SD_CheckEb) refers to hal_sd_card.o(i._ZN3HAL7SD_InitEv) for HAL::SD_Init()
    hal_sd_card.o(i._ZN37_INTERNAL_15_HAL_SD_CARD_cpp_8fe448c08SD_CheckEb) refers to hal_audio.o(i._ZN3HAL15Audio_PlayMusicEPKc) for HAL::Audio_PlayMusic(const char*)
    hal_sd_card.o(i._ZN37_INTERNAL_15_HAL_SD_CARD_cpp_8fe448c08SD_CheckEb) refers to hal_sd_card.o(.data) for .data
    hal_sd_card.o(i._ZN3HAL11SD_GetReadyEv) refers to hal_sd_card.o(.data) for .data
    hal_sd_card.o(i._ZN3HAL14SD_GetTypeNameEv) refers to hal_sd_card.o(.data) for .data
    hal_sd_card.o(i._ZN3HAL14SD_GetTypeNameEv) refers to hal_sd_card.o(.bss) for .bss
    hal_sd_card.o(i._ZN3HAL16SD_GetCardSizeMBEv) refers to hal_sd_card.o(.data) for .data
    hal_sd_card.o(i._ZN3HAL19SD_SetEventCallbackEPFvbE) refers to hal_sd_card.o(.data) for .data
    hal_sd_card.o(i._ZN3HAL7SD_InitEv) refers to arduino.o(i.pinMode) for pinMode
    hal_sd_card.o(i._ZN3HAL7SD_InitEv) refers to arduino.o(i.digitalRead) for digitalRead
    hal_sd_card.o(i._ZN3HAL7SD_InitEv) refers to print.o(i._ZN5Print7printlnEPKc) for Print::println(const char*)
    hal_sd_card.o(i._ZN3HAL7SD_InitEv) refers to print.o(i._ZN5Print5printEPKc) for Print::print(const char*)
    hal_sd_card.o(i._ZN3HAL7SD_InitEv) refers to hal_sd_card.o(i._ZN5SdFat5beginEh11SPISettings) for SdFat::begin(unsigned char, SPISettings)
    hal_sd_card.o(i._ZN3HAL7SD_InitEv) refers to sdspicard.o(i._ZN9SdSpiCard12cardCapacityEv) for SdSpiCard::cardCapacity()
    hal_sd_card.o(i._ZN3HAL7SD_InitEv) refers to hal_sd_card.o(i._ZN37_INTERNAL_15_HAL_SD_CARD_cpp_8fe448c011SD_CheckDirEPKc) for [local to HAL_SD_CARD_cpp]::SD_CheckDir(const char*)
    hal_sd_card.o(i._ZN3HAL7SD_InitEv) refers to hal_sd_card.o(i._ZN3HAL16SD_GetCardSizeMBEv) for HAL::SD_GetCardSizeMB()
    hal_sd_card.o(i._ZN3HAL7SD_InitEv) refers to f2d.o(x$fpl$f2d) for __aeabi_f2d
    hal_sd_card.o(i._ZN3HAL7SD_InitEv) refers to hal_sd_card.o(i._ZN3HAL14SD_GetTypeNameEv) for HAL::SD_GetTypeName()
    hal_sd_card.o(i._ZN3HAL7SD_InitEv) refers to print.o(i._ZN5Print6printfEPKcz) for Print::printf(const char*, ...)
    hal_sd_card.o(i._ZN3HAL7SD_InitEv) refers to hardwareserial.o(.bss) for Serial
    hal_sd_card.o(i._ZN3HAL7SD_InitEv) refers to hal_sd_card.o(.bss) for .bss
    hal_sd_card.o(i._ZN3HAL7SD_InitEv) refers to hal_sd_card.o(.data) for .data
    hal_sd_card.o(i._ZN3HAL7SD_InitEv) refers to hal_sd_card.o(i._ZN37_INTERNAL_15_HAL_SD_CARD_cpp_8fe448c014SD_GetDateTimeEPtS0_) for [local to HAL_SD_CARD_cpp]::SD_GetDateTime(unsigned short*, unsigned short*)
    hal_sd_card.o(i._ZN3HAL7SD_InitEv) refers to fatfile.o(.data) for FatFile::m_dateTime
    hal_sd_card.o(i._ZN3HAL9SD_UpdateEv) refers to arduino.o(i.digitalRead) for digitalRead
    hal_sd_card.o(i._ZN3HAL9SD_UpdateEv) refers to cxa_guard_acquire.o(i.__cxa_guard_acquire) for __cxa_guard_acquire
    hal_sd_card.o(i._ZN3HAL9SD_UpdateEv) refers to hal_sd_card.o(i._ZN37_INTERNAL_15_HAL_SD_CARD_cpp_8fe448c08SD_CheckEb) for [local to HAL_SD_CARD_cpp]::SD_Check(bool)
    hal_sd_card.o(i._ZN3HAL9SD_UpdateEv) refers to hal_sd_card.o(.data) for .data
    hal_sd_card.o(i.__sti___15_HAL_SD_CARD_cpp_8fe448c0) refers to hal_sd_card.o(.bss) for .bss
    hal_sd_card.o(i.__sti___15_HAL_SD_CARD_cpp_8fe448c0) refers to spi.o(.bss) for SPI_2
    hal_sd_card.o(.ARM.exidx) refers to hal_sd_card.o(i._ZN37_INTERNAL_15_HAL_SD_CARD_cpp_8fe448c014SD_GetDateTimeEPtS0_) for i._ZN37_INTERNAL_15_HAL_SD_CARD_cpp_8fe448c014SD_GetDateTimeEPtS0_
    hal_sd_card.o(.ARM.exidx) refers to hal_sd_card.o(i._ZN3HAL16SD_GetCardSizeMBEv) for i._ZN3HAL16SD_GetCardSizeMBEv
    hal_sd_card.o(.ARM.exidx) refers to hal_sd_card.o(i._ZN3HAL14SD_GetTypeNameEv) for i._ZN3HAL14SD_GetTypeNameEv
    hal_sd_card.o(.ARM.exidx) refers to hal_sd_card.o(i._ZN3HAL7SD_InitEv) for i._ZN3HAL7SD_InitEv
    hal_sd_card.o(.ARM.exidx) refers to hal_sd_card.o(i._ZN3HAL11SD_GetReadyEv) for i._ZN3HAL11SD_GetReadyEv
    hal_sd_card.o(.ARM.exidx) refers to hal_sd_card.o(i._ZN3HAL19SD_SetEventCallbackEPFvbE) for i._ZN3HAL19SD_SetEventCallbackEPFvbE
    hal_sd_card.o(.ARM.exidx) refers to hal_sd_card.o(i._ZN3HAL9SD_UpdateEv) for i._ZN3HAL9SD_UpdateEv
    hal_sd_card.o(.ARM.exidx) refers to hal_sd_card.o(i.__sti___15_HAL_SD_CARD_cpp_8fe448c0) for i.__sti___15_HAL_SD_CARD_cpp_8fe448c0
    hal_sd_card.o(.ARM.exidx) refers to hal_sd_card.o(i._ZN37_INTERNAL_15_HAL_SD_CARD_cpp_8fe448c011SD_CheckDirEPKc) for i._ZN37_INTERNAL_15_HAL_SD_CARD_cpp_8fe448c011SD_CheckDirEPKc
    hal_sd_card.o(.ARM.exidx) refers to hal_sd_card.o(i._ZN37_INTERNAL_15_HAL_SD_CARD_cpp_8fe448c08SD_CheckEb) for i._ZN37_INTERNAL_15_HAL_SD_CARD_cpp_8fe448c08SD_CheckEb
    hal_sd_card.o(.init_array) refers to hal_sd_card.o(i.__sti___15_HAL_SD_CARD_cpp_8fe448c0) for __sti___15_HAL_SD_CARD_cpp_8fe448c0
    hal_sd_card.o(.init_array) refers to init_aeabi.o(.text) for __cpp_initialize__aeabi_
    rt_sys.o(.rev16_text) refers (Special) to use_no_semi_2.o(.text) for __use_no_semihosting
    rt_sys.o(.revsh_text) refers (Special) to use_no_semi_2.o(.text) for __use_no_semihosting
    rt_sys.o(.rrx_text) refers (Special) to use_no_semi_2.o(.text) for __use_no_semihosting
    rt_sys.o(i._sys_close) refers (Special) to use_no_semi_2.o(.text) for __use_no_semihosting
    rt_sys.o(i._sys_close) refers to fatfile.o(i._ZN7FatFile5closeEv) for FatFile::close()
    rt_sys.o(i._sys_close) refers to new.o(i._ZdlPv) for operator delete (void*)
    rt_sys.o(i._sys_command_string) refers (Special) to use_no_semi_2.o(.text) for __use_no_semihosting
    rt_sys.o(i._sys_ensure) refers (Special) to use_no_semi_2.o(.text) for __use_no_semihosting
    rt_sys.o(i._sys_exit) refers (Special) to use_no_semi_2.o(.text) for __use_no_semihosting
    rt_sys.o(i._sys_flen) refers (Special) to use_no_semi_2.o(.text) for __use_no_semihosting
    rt_sys.o(i._sys_istty) refers (Special) to use_no_semi_2.o(.text) for __use_no_semihosting
    rt_sys.o(i._sys_open) refers (Special) to use_no_semi_2.o(.text) for __use_no_semihosting
    rt_sys.o(i._sys_open) refers to new.o(i._Znwj) for operator new(unsigned)
    rt_sys.o(i._sys_open) refers to fatfile.o(i._ZN7FatFile4openEPS_PKch) for FatFile::open(FatFile*, const char*, unsigned char)
    rt_sys.o(i._sys_open) refers to fatfile.o(i._ZN7FatFile7seekSetEj) for FatFile::seekSet(unsigned)
    rt_sys.o(i._sys_open) refers to new.o(i._ZdlPv) for operator delete (void*)
    rt_sys.o(i._sys_open) refers to rt_sys.o(.constdata) for .constdata
    rt_sys.o(i._sys_open) refers to rt_sys.o(.constdata__ZTV6SdFile) for vtable for SdFile
    rt_sys.o(i._sys_open) refers to fatfile.o(.data) for FatFile::m_cwd
    rt_sys.o(i._sys_read) refers (Special) to use_no_semi_2.o(.text) for __use_no_semihosting
    rt_sys.o(i._sys_read) refers to fatfile.o(i._ZN7FatFile4readEPvj) for FatFile::read(void*, unsigned)
    rt_sys.o(i._sys_seek) refers (Special) to use_no_semi_2.o(.text) for __use_no_semihosting
    rt_sys.o(i._sys_seek) refers to fatfile.o(i._ZN7FatFile7seekSetEj) for FatFile::seekSet(unsigned)
    rt_sys.o(i._sys_tmpnam) refers (Special) to use_no_semi_2.o(.text) for __use_no_semihosting
    rt_sys.o(i._sys_write) refers (Special) to use_no_semi_2.o(.text) for __use_no_semihosting
    rt_sys.o(i._sys_write) refers to print.o(i._ZN5Print5writeEPKhj) for Print::write(const unsigned char*, unsigned)
    rt_sys.o(i._sys_write) refers to hardwareserial.o(.bss) for Serial
    rt_sys.o(i._ttywrch) refers (Special) to use_no_semi_2.o(.text) for __use_no_semihosting
    rt_sys.o(i.clock) refers (Special) to use_no_semi_2.o(.text) for __use_no_semihosting
    rt_sys.o(i.clock) refers to delay.o(i.millis) for millis
    rt_sys.o(i.exit) refers (Special) to use_no_semi_2.o(.text) for __use_no_semihosting
    rt_sys.o(i.remove) refers (Special) to use_no_semi_2.o(.text) for __use_no_semihosting
    rt_sys.o(i.system) refers (Special) to use_no_semi_2.o(.text) for __use_no_semihosting
    rt_sys.o(i.time) refers (Special) to use_no_semi_2.o(.text) for __use_no_semihosting
    rt_sys.o(i.time) refers to delay.o(i.millis) for millis
    rt_sys.o(.ARM.exidx) refers (Special) to use_no_semi_2.o(.text) for __use_no_semihosting
    rt_sys.o(.ARM.exidx) refers to rt_sys.o(i._sys_open) for i._sys_open
    rt_sys.o(.ARM.exidx) refers (Special) to use_no_semi_2.o(.text) for __use_no_semihosting
    rt_sys.o(.ARM.exidx) refers to rt_sys.o(i._sys_close) for i._sys_close
    rt_sys.o(.ARM.exidx) refers (Special) to use_no_semi_2.o(.text) for __use_no_semihosting
    rt_sys.o(.ARM.exidx) refers to rt_sys.o(i._sys_write) for i._sys_write
    rt_sys.o(.ARM.exidx) refers (Special) to use_no_semi_2.o(.text) for __use_no_semihosting
    rt_sys.o(.ARM.exidx) refers to rt_sys.o(i._sys_read) for i._sys_read
    rt_sys.o(.ARM.exidx) refers (Special) to use_no_semi_2.o(.text) for __use_no_semihosting
    rt_sys.o(.ARM.exidx) refers to rt_sys.o(i._ttywrch) for i._ttywrch
    rt_sys.o(.ARM.exidx) refers (Special) to use_no_semi_2.o(.text) for __use_no_semihosting
    rt_sys.o(.ARM.exidx) refers to rt_sys.o(i._sys_istty) for i._sys_istty
    rt_sys.o(.ARM.exidx) refers (Special) to use_no_semi_2.o(.text) for __use_no_semihosting
    rt_sys.o(.ARM.exidx) refers to rt_sys.o(i._sys_seek) for i._sys_seek
    rt_sys.o(.ARM.exidx) refers (Special) to use_no_semi_2.o(.text) for __use_no_semihosting
    rt_sys.o(.ARM.exidx) refers to rt_sys.o(i._sys_ensure) for i._sys_ensure
    rt_sys.o(.ARM.exidx) refers (Special) to use_no_semi_2.o(.text) for __use_no_semihosting
    rt_sys.o(.ARM.exidx) refers to rt_sys.o(i._sys_flen) for i._sys_flen
    rt_sys.o(.ARM.exidx) refers (Special) to use_no_semi_2.o(.text) for __use_no_semihosting
    rt_sys.o(.ARM.exidx) refers to rt_sys.o(i._sys_tmpnam) for i._sys_tmpnam
    rt_sys.o(.ARM.exidx) refers (Special) to use_no_semi_2.o(.text) for __use_no_semihosting
    rt_sys.o(.ARM.exidx) refers to rt_sys.o(i._sys_exit) for i._sys_exit
    rt_sys.o(.ARM.exidx) refers (Special) to use_no_semi_2.o(.text) for __use_no_semihosting
    rt_sys.o(.ARM.exidx) refers to rt_sys.o(i._sys_command_string) for i._sys_command_string
    rt_sys.o(.ARM.exidx) refers (Special) to use_no_semi_2.o(.text) for __use_no_semihosting
    rt_sys.o(.ARM.exidx) refers to rt_sys.o(i.time) for i.time
    rt_sys.o(.ARM.exidx) refers (Special) to use_no_semi_2.o(.text) for __use_no_semihosting
    rt_sys.o(.ARM.exidx) refers to rt_sys.o(i.exit) for i.exit
    rt_sys.o(.ARM.exidx) refers (Special) to use_no_semi_2.o(.text) for __use_no_semihosting
    rt_sys.o(.ARM.exidx) refers to rt_sys.o(i.system) for i.system
    rt_sys.o(.ARM.exidx) refers (Special) to use_no_semi_2.o(.text) for __use_no_semihosting
    rt_sys.o(.ARM.exidx) refers to rt_sys.o(i.remove) for i.remove
    rt_sys.o(.ARM.exidx) refers (Special) to use_no_semi_2.o(.text) for __use_no_semihosting
    rt_sys.o(.ARM.exidx) refers to rt_sys.o(i.clock) for i.clock
    rt_sys.o(.constdata) refers (Special) to use_no_semi_2.o(.text) for __use_no_semihosting
    lv_disp.o(i._lv_disp_get_refr_timer) refers to lv_hal_disp.o(i.lv_disp_get_default) for lv_disp_get_default
    lv_disp.o(i.lv_disp_clean_dcache) refers to lv_hal_disp.o(i.lv_disp_get_default) for lv_disp_get_default
    lv_disp.o(i.lv_disp_get_inactive_time) refers to lv_hal_tick.o(i.lv_tick_elaps) for lv_tick_elaps
    lv_disp.o(i.lv_disp_get_inactive_time) refers to lv_hal_disp.o(i.lv_disp_get_next) for lv_disp_get_next
    lv_disp.o(i.lv_disp_get_layer_sys) refers to lv_hal_disp.o(i.lv_disp_get_default) for lv_disp_get_default
    lv_disp.o(i.lv_disp_get_layer_top) refers to lv_hal_disp.o(i.lv_disp_get_default) for lv_disp_get_default
    lv_disp.o(i.lv_disp_get_scr_act) refers to lv_hal_disp.o(i.lv_disp_get_default) for lv_disp_get_default
    lv_disp.o(i.lv_disp_get_scr_prev) refers to lv_hal_disp.o(i.lv_disp_get_default) for lv_disp_get_default
    lv_disp.o(i.lv_disp_get_theme) refers to lv_hal_disp.o(i.lv_disp_get_default) for lv_disp_get_default
    lv_disp.o(i.lv_disp_load_scr) refers to lv_obj_tree.o(i.lv_obj_get_disp) for lv_obj_get_disp
    lv_disp.o(i.lv_disp_load_scr) refers to lv_event.o(i.lv_event_send) for lv_event_send
    lv_disp.o(i.lv_disp_load_scr) refers to lv_obj_pos.o(i.lv_obj_invalidate) for lv_obj_invalidate
    lv_disp.o(i.lv_disp_set_bg_color) refers to lv_hal_disp.o(i.lv_disp_get_default) for lv_disp_get_default
    lv_disp.o(i.lv_disp_set_bg_color) refers to lv_hal_disp.o(i.lv_disp_get_ver_res) for lv_disp_get_ver_res
    lv_disp.o(i.lv_disp_set_bg_color) refers to lv_hal_disp.o(i.lv_disp_get_hor_res) for lv_disp_get_hor_res
    lv_disp.o(i.lv_disp_set_bg_color) refers to lv_area.o(i.lv_area_set) for lv_area_set
    lv_disp.o(i.lv_disp_set_bg_color) refers to lv_refr.o(i._lv_inv_area) for _lv_inv_area
    lv_disp.o(i.lv_disp_set_bg_image) refers to lv_hal_disp.o(i.lv_disp_get_default) for lv_disp_get_default
    lv_disp.o(i.lv_disp_set_bg_image) refers to lv_hal_disp.o(i.lv_disp_get_ver_res) for lv_disp_get_ver_res
    lv_disp.o(i.lv_disp_set_bg_image) refers to lv_hal_disp.o(i.lv_disp_get_hor_res) for lv_disp_get_hor_res
    lv_disp.o(i.lv_disp_set_bg_image) refers to lv_area.o(i.lv_area_set) for lv_area_set
    lv_disp.o(i.lv_disp_set_bg_image) refers to lv_refr.o(i._lv_inv_area) for _lv_inv_area
    lv_disp.o(i.lv_disp_set_bg_opa) refers to lv_hal_disp.o(i.lv_disp_get_default) for lv_disp_get_default
    lv_disp.o(i.lv_disp_set_bg_opa) refers to lv_hal_disp.o(i.lv_disp_get_ver_res) for lv_disp_get_ver_res
    lv_disp.o(i.lv_disp_set_bg_opa) refers to lv_hal_disp.o(i.lv_disp_get_hor_res) for lv_disp_get_hor_res
    lv_disp.o(i.lv_disp_set_bg_opa) refers to lv_area.o(i.lv_area_set) for lv_area_set
    lv_disp.o(i.lv_disp_set_bg_opa) refers to lv_refr.o(i._lv_inv_area) for _lv_inv_area
    lv_disp.o(i.lv_disp_set_theme) refers to lv_hal_disp.o(i.lv_disp_get_default) for lv_disp_get_default
    lv_disp.o(i.lv_disp_set_theme) refers to lv_obj_tree.o(i.lv_obj_get_child_cnt) for lv_obj_get_child_cnt
    lv_disp.o(i.lv_disp_set_theme) refers to lv_theme.o(i.lv_theme_apply) for lv_theme_apply
    lv_disp.o(i.lv_disp_trig_activity) refers to lv_hal_disp.o(i.lv_disp_get_default) for lv_disp_get_default
    lv_disp.o(i.lv_disp_trig_activity) refers to lv_hal_tick.o(i.lv_tick_get) for lv_tick_get
    lv_disp.o(i.lv_scr_act) refers to lv_hal_disp.o(i.lv_disp_get_default) for lv_disp_get_default
    lv_disp.o(i.lv_scr_act) refers to lv_disp.o(i.lv_disp_get_scr_act) for lv_disp_get_scr_act
    lv_disp.o(i.lv_scr_load_anim) refers to lv_obj_tree.o(i.lv_obj_get_disp) for lv_obj_get_disp
    lv_disp.o(i.lv_scr_load_anim) refers to lv_disp.o(i.lv_scr_act) for lv_scr_act
    lv_disp.o(i.lv_scr_load_anim) refers to lv_disp.o(i.lv_disp_load_scr) for lv_disp_load_scr
    lv_disp.o(i.lv_scr_load_anim) refers to lv_anim.o(i.lv_anim_del) for lv_anim_del
    lv_disp.o(i.lv_scr_load_anim) refers to lv_obj_pos.o(i.lv_obj_set_pos) for lv_obj_set_pos
    lv_disp.o(i.lv_scr_load_anim) refers to lv_obj_style.o(i.lv_obj_remove_local_style_prop) for lv_obj_remove_local_style_prop
    lv_disp.o(i.lv_scr_load_anim) refers to lv_obj_tree.o(i.lv_obj_del) for lv_obj_del
    lv_disp.o(i.lv_scr_load_anim) refers to lv_anim.o(i.lv_anim_init) for lv_anim_init
    lv_disp.o(i.lv_scr_load_anim) refers to lv_hal_disp.o(i.lv_disp_get_hor_res) for lv_disp_get_hor_res
    lv_disp.o(i.lv_scr_load_anim) refers to lv_hal_disp.o(i.lv_disp_get_ver_res) for lv_disp_get_ver_res
    lv_disp.o(i.lv_scr_load_anim) refers to lv_event.o(i.lv_event_send) for lv_event_send
    lv_disp.o(i.lv_scr_load_anim) refers to lv_anim.o(i.lv_anim_start) for lv_anim_start
    lv_disp.o(i.lv_scr_load_anim) refers to lv_disp.o(i.scr_load_anim_start) for scr_load_anim_start
    lv_disp.o(i.lv_scr_load_anim) refers to lv_disp.o(i.scr_anim_ready) for scr_anim_ready
    lv_disp.o(i.lv_scr_load_anim) refers to lv_disp.o(i.set_x_anim) for set_x_anim
    lv_disp.o(i.lv_scr_load_anim) refers to lv_disp.o(i.set_y_anim) for set_y_anim
    lv_disp.o(i.lv_scr_load_anim) refers to lv_disp.o(i.opa_scale_anim) for opa_scale_anim
    lv_disp.o(i.opa_scale_anim) refers to lv_obj_style_gen.o(i.lv_obj_set_style_opa) for lv_obj_set_style_opa
    lv_disp.o(i.scr_anim_ready) refers to lv_obj_tree.o(i.lv_obj_get_disp) for lv_obj_get_disp
    lv_disp.o(i.scr_anim_ready) refers to lv_event.o(i.lv_event_send) for lv_event_send
    lv_disp.o(i.scr_anim_ready) refers to lv_obj_tree.o(i.lv_obj_del) for lv_obj_del
    lv_disp.o(i.scr_anim_ready) refers to lv_obj_style.o(i.lv_obj_remove_local_style_prop) for lv_obj_remove_local_style_prop
    lv_disp.o(i.scr_load_anim_start) refers to lv_obj_tree.o(i.lv_obj_get_disp) for lv_obj_get_disp
    lv_disp.o(i.scr_load_anim_start) refers to lv_disp.o(i.lv_scr_act) for lv_scr_act
    lv_disp.o(i.scr_load_anim_start) refers to lv_event.o(i.lv_event_send) for lv_event_send
    lv_disp.o(i.set_x_anim) refers to lv_obj_pos.o(i.lv_obj_set_x) for lv_obj_set_x
    lv_disp.o(i.set_y_anim) refers to lv_obj_pos.o(i.lv_obj_set_y) for lv_obj_set_y
    lv_event.o(i._lv_event_mark_deleted) refers to lv_event.o(.data) for .data
    lv_event.o(i.event_send_core) refers to lv_indev.o(i.lv_indev_get_act) for lv_indev_get_act
    lv_event.o(i.event_send_core) refers to lv_event.o(i.lv_obj_get_event_dsc) for lv_obj_get_event_dsc
    lv_event.o(i.event_send_core) refers to lv_event.o(i.lv_obj_event_base) for lv_obj_event_base
    lv_event.o(i.event_send_core) refers to lv_obj.o(i.lv_obj_has_flag) for lv_obj_has_flag
    lv_event.o(i.lv_event_register_id) refers to lv_event.o(.data) for .data
    lv_event.o(i.lv_event_send) refers to lv_event.o(i.event_send_core) for event_send_core
    lv_event.o(i.lv_event_send) refers to lv_event.o(.data) for .data
    lv_event.o(i.lv_obj_add_event_cb) refers to lv_obj.o(i.lv_obj_allocate_spec_attr) for lv_obj_allocate_spec_attr
    lv_event.o(i.lv_obj_add_event_cb) refers to lv_mem.o(i.lv_mem_realloc) for lv_mem_realloc
    lv_event.o(i.lv_obj_remove_event_cb) refers to lv_mem.o(i.lv_mem_realloc) for lv_mem_realloc
    lv_event.o(i.lv_obj_remove_event_cb_with_user_data) refers to lv_mem.o(i.lv_mem_realloc) for lv_mem_realloc
    lv_event.o(i.lv_obj_remove_event_dsc) refers to lv_mem.o(i.lv_mem_realloc) for lv_mem_realloc
    lv_group.o(i._lv_group_init) refers to lv_ll.o(i._lv_ll_init) for _lv_ll_init
    lv_group.o(i._lv_group_init) refers to lv_gc.o(.bss) for _lv_group_ll
    lv_group.o(i.focus_next_core) refers to lv_obj.o(i.lv_obj_get_state) for lv_obj_get_state
    lv_group.o(i.focus_next_core) refers to lv_obj.o(i.lv_obj_has_flag) for lv_obj_has_flag
    lv_group.o(i.focus_next_core) refers to lv_group.o(i.get_indev) for get_indev
    lv_group.o(i.focus_next_core) refers to lv_event.o(i.lv_event_send) for lv_event_send
    lv_group.o(i.focus_next_core) refers to lv_obj_pos.o(i.lv_obj_invalidate) for lv_obj_invalidate
    lv_group.o(i.focus_next_core) refers to lv_obj_tree.o(i.lv_obj_get_parent) for lv_obj_get_parent
    lv_group.o(i.get_indev) refers to lv_indev.o(i.lv_indev_get_type) for lv_indev_get_type
    lv_group.o(i.get_indev) refers to lv_hal_indev.o(i.lv_indev_get_next) for lv_indev_get_next
    lv_group.o(i.lv_group_add_obj) refers to lv_ll.o(i._lv_ll_get_head) for _lv_ll_get_head
    lv_group.o(i.lv_group_add_obj) refers to lv_ll.o(i._lv_ll_get_next) for _lv_ll_get_next
    lv_group.o(i.lv_group_add_obj) refers to lv_obj.o(i.lv_obj_get_group) for lv_obj_get_group
    lv_group.o(i.lv_group_add_obj) refers to lv_group.o(i.lv_group_refocus) for lv_group_refocus
    lv_group.o(i.lv_group_add_obj) refers to lv_obj.o(i.lv_obj_allocate_spec_attr) for lv_obj_allocate_spec_attr
    lv_group.o(i.lv_group_add_obj) refers to lv_ll.o(i._lv_ll_ins_tail) for _lv_ll_ins_tail
    lv_group.o(i.lv_group_create) refers to lv_ll.o(i._lv_ll_ins_head) for _lv_ll_ins_head
    lv_group.o(i.lv_group_create) refers to lv_ll.o(i._lv_ll_init) for _lv_ll_init
    lv_group.o(i.lv_group_create) refers to lv_gc.o(.bss) for _lv_group_ll
    lv_group.o(i.lv_group_del) refers to lv_group.o(i.get_indev) for get_indev
    lv_group.o(i.lv_group_del) refers to lv_event.o(i.lv_event_send) for lv_event_send
    lv_group.o(i.lv_group_del) refers to lv_obj_pos.o(i.lv_obj_invalidate) for lv_obj_invalidate
    lv_group.o(i.lv_group_del) refers to lv_ll.o(i._lv_ll_get_head) for _lv_ll_get_head
    lv_group.o(i.lv_group_del) refers to lv_ll.o(i._lv_ll_get_next) for _lv_ll_get_next
    lv_group.o(i.lv_group_del) refers to lv_indev.o(i.lv_indev_set_group) for lv_indev_set_group
    lv_group.o(i.lv_group_del) refers to lv_hal_indev.o(i.lv_indev_get_next) for lv_indev_get_next
    lv_group.o(i.lv_group_del) refers to lv_ll.o(i._lv_ll_clear) for _lv_ll_clear
    lv_group.o(i.lv_group_del) refers to lv_ll.o(i._lv_ll_remove) for _lv_ll_remove
    lv_group.o(i.lv_group_del) refers to lv_mem.o(i.lv_mem_free) for lv_mem_free
    lv_group.o(i.lv_group_del) refers to lv_gc.o(.bss) for _lv_group_ll
    lv_group.o(i.lv_group_focus_next) refers to lv_group.o(i.focus_next_core) for focus_next_core
    lv_group.o(i.lv_group_focus_next) refers to lv_ll.o(i._lv_ll_get_next) for _lv_ll_get_next
    lv_group.o(i.lv_group_focus_next) refers to lv_ll.o(i._lv_ll_get_head) for _lv_ll_get_head
    lv_group.o(i.lv_group_focus_obj) refers to lv_obj.o(i.lv_obj_get_group) for lv_obj_get_group
    lv_group.o(i.lv_group_focus_obj) refers to lv_group.o(i.lv_group_set_editing) for lv_group_set_editing
    lv_group.o(i.lv_group_focus_obj) refers to lv_ll.o(i._lv_ll_get_head) for _lv_ll_get_head
    lv_group.o(i.lv_group_focus_obj) refers to lv_group.o(i.get_indev) for get_indev
    lv_group.o(i.lv_group_focus_obj) refers to lv_event.o(i.lv_event_send) for lv_event_send
    lv_group.o(i.lv_group_focus_obj) refers to lv_obj_pos.o(i.lv_obj_invalidate) for lv_obj_invalidate
    lv_group.o(i.lv_group_focus_obj) refers to lv_ll.o(i._lv_ll_get_next) for _lv_ll_get_next
    lv_group.o(i.lv_group_focus_prev) refers to lv_group.o(i.focus_next_core) for focus_next_core
    lv_group.o(i.lv_group_focus_prev) refers to lv_ll.o(i._lv_ll_get_prev) for _lv_ll_get_prev
    lv_group.o(i.lv_group_focus_prev) refers to lv_ll.o(i._lv_ll_get_tail) for _lv_ll_get_tail
    lv_group.o(i.lv_group_get_default) refers to lv_group.o(.data) for .data
    lv_group.o(i.lv_group_get_obj_count) refers to lv_ll.o(i._lv_ll_get_len) for _lv_ll_get_len
    lv_group.o(i.lv_group_refocus) refers to lv_group.o(i.lv_group_focus_next) for lv_group_focus_next
    lv_group.o(i.lv_group_refocus) refers to lv_group.o(i.lv_group_focus_prev) for lv_group_focus_prev
    lv_group.o(i.lv_group_remove_all_objs) refers to lv_group.o(i.get_indev) for get_indev
    lv_group.o(i.lv_group_remove_all_objs) refers to lv_event.o(i.lv_event_send) for lv_event_send
    lv_group.o(i.lv_group_remove_all_objs) refers to lv_obj_pos.o(i.lv_obj_invalidate) for lv_obj_invalidate
    lv_group.o(i.lv_group_remove_all_objs) refers to lv_ll.o(i._lv_ll_get_head) for _lv_ll_get_head
    lv_group.o(i.lv_group_remove_all_objs) refers to lv_ll.o(i._lv_ll_get_next) for _lv_ll_get_next
    lv_group.o(i.lv_group_remove_all_objs) refers to lv_ll.o(i._lv_ll_clear) for _lv_ll_clear
    lv_group.o(i.lv_group_remove_obj) refers to lv_obj.o(i.lv_obj_get_group) for lv_obj_get_group
    lv_group.o(i.lv_group_remove_obj) refers to lv_ll.o(i._lv_ll_get_head) for _lv_ll_get_head
    lv_group.o(i.lv_group_remove_obj) refers to lv_ll.o(i._lv_ll_get_tail) for _lv_ll_get_tail
    lv_group.o(i.lv_group_remove_obj) refers to lv_group.o(i.get_indev) for get_indev
    lv_group.o(i.lv_group_remove_obj) refers to lv_event.o(i.lv_event_send) for lv_event_send
    lv_group.o(i.lv_group_remove_obj) refers to lv_group.o(i.lv_group_refocus) for lv_group_refocus
    lv_group.o(i.lv_group_remove_obj) refers to lv_ll.o(i._lv_ll_remove) for _lv_ll_remove
    lv_group.o(i.lv_group_remove_obj) refers to lv_mem.o(i.lv_mem_free) for lv_mem_free
    lv_group.o(i.lv_group_remove_obj) refers to lv_ll.o(i._lv_ll_get_next) for _lv_ll_get_next
    lv_group.o(i.lv_group_send_data) refers to lv_group.o(i.lv_group_get_focused) for lv_group_get_focused
    lv_group.o(i.lv_group_send_data) refers to lv_obj.o(i.lv_obj_has_state) for lv_obj_has_state
    lv_group.o(i.lv_group_send_data) refers to lv_event.o(i.lv_event_send) for lv_event_send
    lv_group.o(i.lv_group_set_default) refers to lv_group.o(.data) for .data
    lv_group.o(i.lv_group_set_editing) refers to lv_group.o(i.lv_group_get_focused) for lv_group_get_focused
    lv_group.o(i.lv_group_set_editing) refers to lv_group.o(i.get_indev) for get_indev
    lv_group.o(i.lv_group_set_editing) refers to lv_event.o(i.lv_event_send) for lv_event_send
    lv_group.o(i.lv_group_set_editing) refers to lv_obj_pos.o(i.lv_obj_invalidate) for lv_obj_invalidate
    lv_group.o(i.lv_group_swap_obj) refers to lv_obj.o(i.lv_obj_get_group) for lv_obj_get_group
    lv_group.o(i.lv_group_swap_obj) refers to lv_ll.o(i._lv_ll_get_head) for _lv_ll_get_head
    lv_group.o(i.lv_group_swap_obj) refers to lv_ll.o(i._lv_ll_get_next) for _lv_ll_get_next
    lv_group.o(i.lv_group_swap_obj) refers to lv_group.o(i.lv_group_focus_obj) for lv_group_focus_obj
    lv_indev.o(i.indev_button_proc) refers to lv_indev.o(i.indev_proc_release) for indev_proc_release
    lv_indev.o(i.indev_button_proc) refers to lv_indev.o(i.indev_reset_check) for indev_reset_check
    lv_indev.o(i.indev_button_proc) refers to lv_indev.o(i.indev_proc_press) for indev_proc_press
    lv_indev.o(i.indev_click_focus) refers to lv_obj.o(i.lv_obj_has_flag) for lv_obj_has_flag
    lv_indev.o(i.indev_click_focus) refers to lv_obj.o(i.lv_obj_get_group) for lv_obj_get_group
    lv_indev.o(i.indev_click_focus) refers to lv_group.o(i.lv_group_focus_obj) for lv_group_focus_obj
    lv_indev.o(i.indev_click_focus) refers to lv_event.o(i.lv_event_send) for lv_event_send
    lv_indev.o(i.indev_click_focus) refers to lv_indev.o(i.indev_reset_check) for indev_reset_check
    lv_indev.o(i.indev_click_focus) refers to lv_indev.o(.data) for .data
    lv_indev.o(i.indev_encoder_proc) refers to lv_group.o(i.lv_group_get_focused) for lv_group_get_focused
    lv_indev.o(i.indev_encoder_proc) refers to lv_hal_tick.o(i.lv_tick_get) for lv_tick_get
    lv_indev.o(i.indev_encoder_proc) refers to lv_obj_class.o(i.lv_obj_is_editable) for lv_obj_is_editable
    lv_indev.o(i.indev_encoder_proc) refers to lv_obj.o(i.lv_obj_has_flag) for lv_obj_has_flag
    lv_indev.o(i.indev_encoder_proc) refers to lv_group.o(i.lv_group_get_editing) for lv_group_get_editing
    lv_indev.o(i.indev_encoder_proc) refers to lv_group.o(i.lv_group_send_data) for lv_group_send_data
    lv_indev.o(i.indev_encoder_proc) refers to lv_indev.o(i.indev_reset_check) for indev_reset_check
    lv_indev.o(i.indev_encoder_proc) refers to lv_hal_tick.o(i.lv_tick_elaps) for lv_tick_elaps
    lv_indev.o(i.indev_encoder_proc) refers to lv_group.o(i.lv_group_get_obj_count) for lv_group_get_obj_count
    lv_indev.o(i.indev_encoder_proc) refers to lv_group.o(i.lv_group_set_editing) for lv_group_set_editing
    lv_indev.o(i.indev_encoder_proc) refers to lv_obj.o(i.lv_obj_clear_state) for lv_obj_clear_state
    lv_indev.o(i.indev_encoder_proc) refers to lv_event.o(i.lv_event_send) for lv_event_send
    lv_indev.o(i.indev_encoder_proc) refers to lv_group.o(i.lv_group_focus_prev) for lv_group_focus_prev
    lv_indev.o(i.indev_encoder_proc) refers to lv_group.o(i.lv_group_focus_next) for lv_group_focus_next
    lv_indev.o(i.indev_encoder_proc) refers to lv_indev.o(.data) for .data
    lv_indev.o(i.indev_gesture) refers to lv_obj_tree.o(i.lv_obj_get_parent) for lv_obj_get_parent
    lv_indev.o(i.indev_gesture) refers to lv_obj.o(i.lv_obj_has_flag) for lv_obj_has_flag
    lv_indev.o(i.indev_gesture) refers to lv_event.o(i.lv_event_send) for lv_event_send
    lv_indev.o(i.indev_gesture) refers to lv_indev.o(i.indev_reset_check) for indev_reset_check
    lv_indev.o(i.indev_gesture) refers to lv_indev.o(.data) for .data
    lv_indev.o(i.indev_keypad_proc) refers to lv_group.o(i.lv_group_get_focused) for lv_group_get_focused
    lv_indev.o(i.indev_keypad_proc) refers to lv_obj.o(i.lv_obj_has_state) for lv_obj_has_state
    lv_indev.o(i.indev_keypad_proc) refers to lv_hal_tick.o(i.lv_tick_get) for lv_tick_get
    lv_indev.o(i.indev_keypad_proc) refers to lv_group.o(i.lv_group_set_editing) for lv_group_set_editing
    lv_indev.o(i.indev_keypad_proc) refers to lv_group.o(i.lv_group_focus_next) for lv_group_focus_next
    lv_indev.o(i.indev_keypad_proc) refers to lv_group.o(i.lv_group_focus_prev) for lv_group_focus_prev
    lv_indev.o(i.indev_keypad_proc) refers to lv_group.o(i.lv_group_send_data) for lv_group_send_data
    lv_indev.o(i.indev_keypad_proc) refers to lv_indev.o(i.indev_reset_check) for indev_reset_check
    lv_indev.o(i.indev_keypad_proc) refers to lv_event.o(i.lv_event_send) for lv_event_send
    lv_indev.o(i.indev_keypad_proc) refers to lv_hal_tick.o(i.lv_tick_elaps) for lv_tick_elaps
    lv_indev.o(i.indev_keypad_proc) refers to lv_indev.o(.data) for .data
    lv_indev.o(i.indev_pointer_proc) refers to lv_hal_disp.o(i.lv_disp_get_hor_res) for lv_disp_get_hor_res
    lv_indev.o(i.indev_pointer_proc) refers to lv_hal_disp.o(i.lv_disp_get_ver_res) for lv_disp_get_ver_res
    lv_indev.o(i.indev_pointer_proc) refers to lv_obj_pos.o(i.lv_obj_set_pos) for lv_obj_set_pos
    lv_indev.o(i.indev_pointer_proc) refers to lv_indev.o(i.indev_proc_release) for indev_proc_release
    lv_indev.o(i.indev_pointer_proc) refers to lv_indev.o(i.indev_proc_press) for indev_proc_press
    lv_indev.o(i.indev_proc_press) refers to lv_obj.o(i.lv_obj_has_flag) for lv_obj_has_flag
    lv_indev.o(i.indev_proc_press) refers to lv_disp.o(i.lv_disp_get_layer_sys) for lv_disp_get_layer_sys
    lv_indev.o(i.indev_proc_press) refers to lv_indev.o(i.lv_indev_search_obj) for lv_indev_search_obj
    lv_indev.o(i.indev_proc_press) refers to lv_disp.o(i.lv_disp_get_layer_top) for lv_disp_get_layer_top
    lv_indev.o(i.indev_proc_press) refers to lv_disp.o(i.lv_disp_get_scr_act) for lv_disp_get_scr_act
    lv_indev.o(i.indev_proc_press) refers to lv_indev_scroll.o(i._lv_indev_scroll_throw_handler) for _lv_indev_scroll_throw_handler
    lv_indev.o(i.indev_proc_press) refers to lv_indev.o(i.indev_reset_check) for indev_reset_check
    lv_indev.o(i.indev_proc_press) refers to lv_event.o(i.lv_event_send) for lv_event_send
    lv_indev.o(i.indev_proc_press) refers to lv_hal_tick.o(i.lv_tick_get) for lv_tick_get
    lv_indev.o(i.indev_proc_press) refers to lv_indev.o(i.indev_click_focus) for indev_click_focus
    lv_indev.o(i.indev_proc_press) refers to lv_indev_scroll.o(i._lv_indev_scroll_handler) for _lv_indev_scroll_handler
    lv_indev.o(i.indev_proc_press) refers to lv_indev.o(i.indev_gesture) for indev_gesture
    lv_indev.o(i.indev_proc_press) refers to lv_hal_tick.o(i.lv_tick_elaps) for lv_tick_elaps
    lv_indev.o(i.indev_proc_press) refers to lv_indev.o(.data) for .data
    lv_indev.o(i.indev_proc_release) refers to lv_event.o(i.lv_event_send) for lv_event_send
    lv_indev.o(i.indev_proc_release) refers to lv_indev.o(i.indev_reset_check) for indev_reset_check
    lv_indev.o(i.indev_proc_release) refers to lv_indev_scroll.o(i._lv_indev_scroll_throw_handler) for _lv_indev_scroll_throw_handler
    lv_indev.o(i.indev_proc_release) refers to lv_indev.o(.data) for .data
    lv_indev.o(i.indev_proc_reset_query_handler) refers to lv_indev.o(.data) for .data
    lv_indev.o(i.indev_reset_check) refers to lv_indev.o(.data) for .data
    lv_indev.o(i.lv_indev_enable) refers to lv_hal_indev.o(i.lv_indev_get_next) for lv_indev_get_next
    lv_indev.o(i.lv_indev_get_act) refers to lv_indev.o(.data) for .data
    lv_indev.o(i.lv_indev_get_obj_act) refers to lv_indev.o(.data) for .data
    lv_indev.o(i.lv_indev_read_timer_cb) refers to lv_indev.o(i.indev_proc_reset_query_handler) for indev_proc_reset_query_handler
    lv_indev.o(i.lv_indev_read_timer_cb) refers to lv_hal_indev.o(i._lv_indev_read) for _lv_indev_read
    lv_indev.o(i.lv_indev_read_timer_cb) refers to lv_hal_tick.o(i.lv_tick_get) for lv_tick_get
    lv_indev.o(i.lv_indev_read_timer_cb) refers to lv_indev.o(i.indev_pointer_proc) for indev_pointer_proc
    lv_indev.o(i.lv_indev_read_timer_cb) refers to lv_indev.o(i.indev_keypad_proc) for indev_keypad_proc
    lv_indev.o(i.lv_indev_read_timer_cb) refers to lv_indev.o(i.indev_encoder_proc) for indev_encoder_proc
    lv_indev.o(i.lv_indev_read_timer_cb) refers to lv_indev.o(i.indev_button_proc) for indev_button_proc
    lv_indev.o(i.lv_indev_read_timer_cb) refers to lv_indev.o(.data) for .data
    lv_indev.o(i.lv_indev_reset) refers to lv_hal_indev.o(i.lv_indev_get_next) for lv_indev_get_next
    lv_indev.o(i.lv_indev_reset) refers to lv_indev.o(.data) for .data
    lv_indev.o(i.lv_indev_reset_long_press) refers to lv_hal_tick.o(i.lv_tick_get) for lv_tick_get
    lv_indev.o(i.lv_indev_search_obj) refers to lv_obj.o(i.lv_obj_has_flag) for lv_obj_has_flag
    lv_indev.o(i.lv_indev_search_obj) refers to lv_obj_pos.o(i.lv_obj_hit_test) for lv_obj_hit_test
    lv_indev.o(i.lv_indev_search_obj) refers to lv_area.o(i._lv_area_is_point_on) for _lv_area_is_point_on
    lv_indev.o(i.lv_indev_search_obj) refers to lv_obj_tree.o(i.lv_obj_get_child_cnt) for lv_obj_get_child_cnt
    lv_indev.o(i.lv_indev_set_cursor) refers to lv_disp.o(i.lv_disp_get_layer_sys) for lv_disp_get_layer_sys
    lv_indev.o(i.lv_indev_set_cursor) refers to lv_obj_tree.o(i.lv_obj_set_parent) for lv_obj_set_parent
    lv_indev.o(i.lv_indev_set_cursor) refers to lv_obj_pos.o(i.lv_obj_set_pos) for lv_obj_set_pos
    lv_indev.o(i.lv_indev_set_cursor) refers to lv_obj.o(i.lv_obj_clear_flag) for lv_obj_clear_flag
    lv_indev.o(i.lv_indev_set_cursor) refers to lv_obj.o(i.lv_obj_add_flag) for lv_obj_add_flag
    lv_indev_scroll.o(i._lv_indev_scroll_handler) refers to lv_indev_scroll.o(i.find_scroll_obj) for find_scroll_obj
    lv_indev_scroll.o(i._lv_indev_scroll_handler) refers to lv_indev_scroll.o(i.init_scroll_limits) for init_scroll_limits
    lv_indev_scroll.o(i._lv_indev_scroll_handler) refers to lv_event.o(i.lv_event_send) for lv_event_send
    lv_indev_scroll.o(i._lv_indev_scroll_handler) refers to lv_obj_scroll.o(i.lv_obj_get_scroll_top) for lv_obj_get_scroll_top
    lv_indev_scroll.o(i._lv_indev_scroll_handler) refers to lv_obj_scroll.o(i.lv_obj_get_scroll_bottom) for lv_obj_get_scroll_bottom
    lv_indev_scroll.o(i._lv_indev_scroll_handler) refers to lv_indev_scroll.o(i.elastic_diff) for elastic_diff
    lv_indev_scroll.o(i._lv_indev_scroll_handler) refers to lv_obj_scroll.o(i.lv_obj_get_scroll_dir) for lv_obj_get_scroll_dir
    lv_indev_scroll.o(i._lv_indev_scroll_handler) refers to lv_obj_scroll.o(i.lv_obj_get_scroll_right) for lv_obj_get_scroll_right
    lv_indev_scroll.o(i._lv_indev_scroll_handler) refers to lv_obj_scroll.o(i.lv_obj_get_scroll_left) for lv_obj_get_scroll_left
    lv_indev_scroll.o(i._lv_indev_scroll_handler) refers to lv_indev_scroll.o(i.scroll_limit_diff) for scroll_limit_diff
    lv_indev_scroll.o(i._lv_indev_scroll_handler) refers to lv_obj_scroll.o(i.lv_obj_scroll_by) for lv_obj_scroll_by
    lv_indev_scroll.o(i._lv_indev_scroll_throw_handler) refers to lv_indev.o(i.lv_indev_get_act) for lv_indev_get_act
    lv_indev_scroll.o(i._lv_indev_scroll_throw_handler) refers to lv_obj.o(i.lv_obj_has_flag) for lv_obj_has_flag
    lv_indev_scroll.o(i._lv_indev_scroll_throw_handler) refers to lv_obj_scroll.o(i.lv_obj_get_scroll_snap_x) for lv_obj_get_scroll_snap_x
    lv_indev_scroll.o(i._lv_indev_scroll_throw_handler) refers to lv_obj_scroll.o(i.lv_obj_get_scroll_snap_y) for lv_obj_get_scroll_snap_y
    lv_indev_scroll.o(i._lv_indev_scroll_throw_handler) refers to lv_obj_scroll.o(i.lv_obj_get_scroll_bottom) for lv_obj_get_scroll_bottom
    lv_indev_scroll.o(i._lv_indev_scroll_throw_handler) refers to lv_obj_scroll.o(i.lv_obj_get_scroll_top) for lv_obj_get_scroll_top
    lv_indev_scroll.o(i._lv_indev_scroll_throw_handler) refers to lv_indev_scroll.o(i.elastic_diff) for elastic_diff
    lv_indev_scroll.o(i._lv_indev_scroll_throw_handler) refers to lv_indev_scroll.o(i.scroll_limit_diff) for scroll_limit_diff
    lv_indev_scroll.o(i._lv_indev_scroll_throw_handler) refers to lv_indev_scroll.o(i.find_snap_point_y) for find_snap_point_y
    lv_indev_scroll.o(i._lv_indev_scroll_throw_handler) refers to lv_obj_scroll.o(i.lv_obj_get_scroll_left) for lv_obj_get_scroll_left
    lv_indev_scroll.o(i._lv_indev_scroll_throw_handler) refers to lv_obj_scroll.o(i.lv_obj_get_scroll_right) for lv_obj_get_scroll_right
    lv_indev_scroll.o(i._lv_indev_scroll_throw_handler) refers to lv_indev_scroll.o(i.find_snap_point_x) for find_snap_point_x
    lv_indev_scroll.o(i._lv_indev_scroll_throw_handler) refers to lv_obj_scroll.o(i.lv_obj_scroll_by) for lv_obj_scroll_by
    lv_indev_scroll.o(i._lv_indev_scroll_throw_handler) refers to lv_event.o(i.lv_event_send) for lv_event_send
    lv_indev_scroll.o(i.elastic_diff) refers to lv_obj.o(i.lv_obj_has_flag) for lv_obj_has_flag
    lv_indev_scroll.o(i.elastic_diff) refers to lv_obj_scroll.o(i.lv_obj_get_scroll_snap_y) for lv_obj_get_scroll_snap_y
    lv_indev_scroll.o(i.elastic_diff) refers to lv_indev.o(i.lv_indev_get_obj_act) for lv_indev_get_obj_act
    lv_indev_scroll.o(i.elastic_diff) refers to lv_indev_scroll.o(i.lv_obj_get_style_pad_top) for lv_obj_get_style_pad_top
    lv_indev_scroll.o(i.elastic_diff) refers to lv_indev_scroll.o(i.lv_obj_get_style_pad_bottom) for lv_obj_get_style_pad_bottom
    lv_indev_scroll.o(i.elastic_diff) refers to lv_obj_scroll.o(i.lv_obj_get_scroll_snap_x) for lv_obj_get_scroll_snap_x
    lv_indev_scroll.o(i.elastic_diff) refers to lv_indev_scroll.o(i.lv_obj_get_style_pad_left) for lv_obj_get_style_pad_left
    lv_indev_scroll.o(i.elastic_diff) refers to lv_indev_scroll.o(i.lv_obj_get_style_pad_right) for lv_obj_get_style_pad_right
    lv_indev_scroll.o(i.find_scroll_obj) refers to lv_indev.o(i.lv_indev_get_act) for lv_indev_get_act
    lv_indev_scroll.o(i.find_scroll_obj) refers to lv_obj.o(i.lv_obj_has_flag) for lv_obj_has_flag
    lv_indev_scroll.o(i.find_scroll_obj) refers to lv_obj_scroll.o(i.lv_obj_get_scroll_dir) for lv_obj_get_scroll_dir
    lv_indev_scroll.o(i.find_scroll_obj) refers to lv_obj_scroll.o(i.lv_obj_get_scroll_top) for lv_obj_get_scroll_top
    lv_indev_scroll.o(i.find_scroll_obj) refers to lv_obj_scroll.o(i.lv_obj_get_scroll_bottom) for lv_obj_get_scroll_bottom
    lv_indev_scroll.o(i.find_scroll_obj) refers to lv_obj_scroll.o(i.lv_obj_get_scroll_left) for lv_obj_get_scroll_left
    lv_indev_scroll.o(i.find_scroll_obj) refers to lv_obj_scroll.o(i.lv_obj_get_scroll_right) for lv_obj_get_scroll_right
    lv_indev_scroll.o(i.find_scroll_obj) refers to lv_obj_tree.o(i.lv_obj_get_parent) for lv_obj_get_parent
    lv_indev_scroll.o(i.find_snap_point_x) refers to lv_obj_scroll.o(i.lv_obj_get_scroll_snap_x) for lv_obj_get_scroll_snap_x
    lv_indev_scroll.o(i.find_snap_point_x) refers to lv_indev_scroll.o(i.lv_obj_get_style_pad_left) for lv_obj_get_style_pad_left
    lv_indev_scroll.o(i.find_snap_point_x) refers to lv_indev_scroll.o(i.lv_obj_get_style_pad_right) for lv_obj_get_style_pad_right
    lv_indev_scroll.o(i.find_snap_point_x) refers to lv_obj_tree.o(i.lv_obj_get_child_cnt) for lv_obj_get_child_cnt
    lv_indev_scroll.o(i.find_snap_point_x) refers to lv_obj.o(i.lv_obj_has_flag_any) for lv_obj_has_flag_any
    lv_indev_scroll.o(i.find_snap_point_x) refers to lv_obj.o(i.lv_obj_has_flag) for lv_obj_has_flag
    lv_indev_scroll.o(i.find_snap_point_y) refers to lv_obj_scroll.o(i.lv_obj_get_scroll_snap_y) for lv_obj_get_scroll_snap_y
    lv_indev_scroll.o(i.find_snap_point_y) refers to lv_indev_scroll.o(i.lv_obj_get_style_pad_top) for lv_obj_get_style_pad_top
    lv_indev_scroll.o(i.find_snap_point_y) refers to lv_indev_scroll.o(i.lv_obj_get_style_pad_bottom) for lv_obj_get_style_pad_bottom
    lv_indev_scroll.o(i.find_snap_point_y) refers to lv_obj_tree.o(i.lv_obj_get_child_cnt) for lv_obj_get_child_cnt
    lv_indev_scroll.o(i.find_snap_point_y) refers to lv_obj.o(i.lv_obj_has_flag_any) for lv_obj_has_flag_any
    lv_indev_scroll.o(i.find_snap_point_y) refers to lv_obj.o(i.lv_obj_has_flag) for lv_obj_has_flag
    lv_indev_scroll.o(i.init_scroll_limits) refers to lv_obj.o(i.lv_obj_has_flag) for lv_obj_has_flag
    lv_indev_scroll.o(i.init_scroll_limits) refers to lv_obj_scroll.o(i.lv_obj_get_scroll_snap_y) for lv_obj_get_scroll_snap_y
    lv_indev_scroll.o(i.init_scroll_limits) refers to lv_obj_scroll.o(i.lv_obj_get_scroll_snap_x) for lv_obj_get_scroll_snap_x
    lv_indev_scroll.o(i.init_scroll_limits) refers to lv_area.o(i.lv_area_set) for lv_area_set
    lv_indev_scroll.o(i.init_scroll_limits) refers to lv_indev_scroll.o(i.find_snap_point_y) for find_snap_point_y
    lv_indev_scroll.o(i.init_scroll_limits) refers to lv_indev_scroll.o(i.find_snap_point_x) for find_snap_point_x
    lv_indev_scroll.o(i.lv_indev_scroll_get_snap_dist) refers to lv_indev_scroll.o(i.find_snap_point_x) for find_snap_point_x
    lv_indev_scroll.o(i.lv_indev_scroll_get_snap_dist) refers to lv_indev_scroll.o(i.find_snap_point_y) for find_snap_point_y
    lv_indev_scroll.o(i.lv_obj_get_style_pad_bottom) refers to lv_obj_style.o(i.lv_obj_get_style_prop) for lv_obj_get_style_prop
    lv_indev_scroll.o(i.lv_obj_get_style_pad_left) refers to lv_obj_style.o(i.lv_obj_get_style_prop) for lv_obj_get_style_prop
    lv_indev_scroll.o(i.lv_obj_get_style_pad_right) refers to lv_obj_style.o(i.lv_obj_get_style_prop) for lv_obj_get_style_prop
    lv_indev_scroll.o(i.lv_obj_get_style_pad_top) refers to lv_obj_style.o(i.lv_obj_get_style_prop) for lv_obj_get_style_prop
    lv_obj.o(i.draw_scrollbar) refers to lv_obj_scroll.o(i.lv_obj_get_scrollbar_area) for lv_obj_get_scrollbar_area
    lv_obj.o(i.draw_scrollbar) refers to lv_area.o(i.lv_area_get_size) for lv_area_get_size
    lv_obj.o(i.draw_scrollbar) refers to lv_obj.o(i.scrollbar_init_draw_dsc) for scrollbar_init_draw_dsc
    lv_obj.o(i.draw_scrollbar) refers to lv_obj_draw.o(i.lv_obj_draw_dsc_init) for lv_obj_draw_dsc_init
    lv_obj.o(i.draw_scrollbar) refers to lv_event.o(i.lv_event_send) for lv_event_send
    lv_obj.o(i.draw_scrollbar) refers to lv_draw_rect.o(i.lv_draw_rect) for lv_draw_rect
    lv_obj.o(i.draw_scrollbar) refers to lv_obj.o(.constdata) for .constdata
    lv_obj.o(i.lv_deinit) refers to lv_gc.o(i._lv_gc_clear_roots) for _lv_gc_clear_roots
    lv_obj.o(i.lv_deinit) refers to lv_hal_disp.o(i.lv_disp_set_default) for lv_disp_set_default
    lv_obj.o(i.lv_deinit) refers to lv_mem.o(i.lv_mem_deinit) for lv_mem_deinit
    lv_obj.o(i.lv_deinit) refers to lv_obj.o(.data) for .data
    lv_obj.o(i.lv_init) refers to lv_mem.o(i.lv_mem_init) for lv_mem_init
    lv_obj.o(i.lv_init) refers to lv_timer.o(i._lv_timer_core_init) for _lv_timer_core_init
    lv_obj.o(i.lv_init) refers to lv_fs.o(i._lv_fs_init) for _lv_fs_init
    lv_obj.o(i.lv_init) refers to lv_anim.o(i._lv_anim_core_init) for _lv_anim_core_init
    lv_obj.o(i.lv_init) refers to lv_group.o(i._lv_group_init) for _lv_group_init
    lv_obj.o(i.lv_init) refers to lv_draw.o(i.lv_draw_init) for lv_draw_init
    lv_obj.o(i.lv_init) refers to lv_obj_style.o(i._lv_obj_style_init) for _lv_obj_style_init
    lv_obj.o(i.lv_init) refers to lv_ll.o(i._lv_ll_init) for _lv_ll_init
    lv_obj.o(i.lv_init) refers to lv_refr.o(i._lv_refr_init) for _lv_refr_init
    lv_obj.o(i.lv_init) refers to lv_img_decoder.o(i._lv_img_decoder_init) for _lv_img_decoder_init
    lv_obj.o(i.lv_init) refers to lv_extra.o(i.lv_extra_init) for lv_extra_init
    lv_obj.o(i.lv_init) refers to lv_obj.o(.data) for .data
    lv_obj.o(i.lv_init) refers to lv_gc.o(.bss) for _lv_disp_ll
    lv_obj.o(i.lv_is_initialized) refers to lv_obj.o(.data) for .data
    lv_obj.o(i.lv_obj_add_flag) refers to lv_obj_pos.o(i.lv_obj_is_layout_positioned) for lv_obj_is_layout_positioned
    lv_obj.o(i.lv_obj_add_flag) refers to lv_obj_pos.o(i.lv_obj_invalidate) for lv_obj_invalidate
    lv_obj.o(i.lv_obj_add_flag) refers to lv_obj_tree.o(i.lv_obj_get_parent) for lv_obj_get_parent
    lv_obj.o(i.lv_obj_add_flag) refers to lv_obj_pos.o(i.lv_obj_mark_layout_as_dirty) for lv_obj_mark_layout_as_dirty
    lv_obj.o(i.lv_obj_add_flag) refers to lv_obj_scroll.o(i.lv_obj_get_scrollbar_area) for lv_obj_get_scrollbar_area
    lv_obj.o(i.lv_obj_add_flag) refers to lv_obj_pos.o(i.lv_obj_invalidate_area) for lv_obj_invalidate_area
    lv_obj.o(i.lv_obj_add_state) refers to lv_obj.o(i.lv_obj_set_state) for lv_obj_set_state
    lv_obj.o(i.lv_obj_allocate_spec_attr) refers to lv_mem.o(i.lv_mem_alloc) for lv_mem_alloc
    lv_obj.o(i.lv_obj_allocate_spec_attr) refers to rt_memclr.o(.text) for __aeabi_memclr
    lv_obj.o(i.lv_obj_allocate_spec_attr) refers to lv_obj.o(.data) for .data
    lv_obj.o(i.lv_obj_clear_flag) refers to lv_obj_pos.o(i.lv_obj_is_layout_positioned) for lv_obj_is_layout_positioned
    lv_obj.o(i.lv_obj_clear_flag) refers to lv_obj_scroll.o(i.lv_obj_get_scrollbar_area) for lv_obj_get_scrollbar_area
    lv_obj.o(i.lv_obj_clear_flag) refers to lv_obj_pos.o(i.lv_obj_invalidate_area) for lv_obj_invalidate_area
    lv_obj.o(i.lv_obj_clear_flag) refers to lv_obj_pos.o(i.lv_obj_invalidate) for lv_obj_invalidate
    lv_obj.o(i.lv_obj_clear_flag) refers to lv_obj_tree.o(i.lv_obj_get_parent) for lv_obj_get_parent
    lv_obj.o(i.lv_obj_clear_flag) refers to lv_obj_pos.o(i.lv_obj_mark_layout_as_dirty) for lv_obj_mark_layout_as_dirty
    lv_obj.o(i.lv_obj_clear_state) refers to lv_obj.o(i.lv_obj_set_state) for lv_obj_set_state
    lv_obj.o(i.lv_obj_constructor) refers to lv_obj_scroll.o(i.lv_obj_get_scroll_left) for lv_obj_get_scroll_left
    lv_obj.o(i.lv_obj_constructor) refers to lv_obj_scroll.o(i.lv_obj_get_scroll_top) for lv_obj_get_scroll_top
    lv_obj.o(i.lv_obj_constructor) refers to lv_obj_style.o(i.lv_obj_get_style_prop) for lv_obj_get_style_prop
    lv_obj.o(i.lv_obj_create) refers to lv_obj_class.o(i.lv_obj_class_create_obj) for lv_obj_class_create_obj
    lv_obj.o(i.lv_obj_create) refers to lv_obj_class.o(i.lv_obj_class_init_obj) for lv_obj_class_init_obj
    lv_obj.o(i.lv_obj_create) refers to lv_obj.o(.constdata) for .constdata
    lv_obj.o(i.lv_obj_destructor) refers to lv_event.o(i._lv_event_mark_deleted) for _lv_event_mark_deleted
    lv_obj.o(i.lv_obj_destructor) refers to lv_obj_style.o(i.lv_obj_enable_style_refresh) for lv_obj_enable_style_refresh
    lv_obj.o(i.lv_obj_destructor) refers to lv_obj_style.o(i.lv_obj_remove_style) for lv_obj_remove_style
    lv_obj.o(i.lv_obj_destructor) refers to lv_anim.o(i.lv_anim_del) for lv_anim_del
    lv_obj.o(i.lv_obj_destructor) refers to lv_obj.o(i.lv_obj_get_group) for lv_obj_get_group
    lv_obj.o(i.lv_obj_destructor) refers to lv_group.o(i.lv_group_remove_obj) for lv_group_remove_obj
    lv_obj.o(i.lv_obj_destructor) refers to lv_mem.o(i.lv_mem_free) for lv_mem_free
    lv_obj.o(i.lv_obj_draw) refers to lv_event.o(i.lv_event_get_code) for lv_event_get_code
    lv_obj.o(i.lv_obj_draw) refers to lv_event.o(i.lv_event_get_target) for lv_event_get_target
    lv_obj.o(i.lv_obj_draw) refers to lv_event.o(i.lv_event_get_draw_ctx) for lv_event_get_draw_ctx
    lv_obj.o(i.lv_obj_draw) refers to lv_obj.o(i.draw_scrollbar) for draw_scrollbar
    lv_obj.o(i.lv_obj_draw) refers to lv_obj.o(i.lv_obj_get_style_clip_corner) for lv_obj_get_style_clip_corner
    lv_obj.o(i.lv_obj_draw) refers to lv_draw_mask.o(i.lv_draw_mask_remove_custom) for lv_draw_mask_remove_custom
    lv_obj.o(i.lv_obj_draw) refers to lv_draw_mask.o(i.lv_draw_mask_free_param) for lv_draw_mask_free_param
    lv_obj.o(i.lv_obj_draw) refers to lv_mem.o(i.lv_mem_buf_release) for lv_mem_buf_release
    lv_obj.o(i.lv_obj_draw) refers to lv_obj.o(i.lv_obj_get_style_border_post) for lv_obj_get_style_border_post
    lv_obj.o(i.lv_obj_draw) refers to lv_draw_rect.o(RAMCODE) for lv_draw_rect_dsc_init
    lv_obj.o(i.lv_obj_draw) refers to lv_obj_draw.o(i.lv_obj_init_draw_rect_dsc) for lv_obj_init_draw_rect_dsc
    lv_obj.o(i.lv_obj_draw) refers to lv_obj.o(i.lv_obj_get_style_transform_width) for lv_obj_get_style_transform_width
    lv_obj.o(i.lv_obj_draw) refers to lv_obj.o(i.lv_obj_get_style_transform_height) for lv_obj_get_style_transform_height
    lv_obj.o(i.lv_obj_draw) refers to lv_obj.o(i.lv_area_copy) for lv_area_copy
    lv_obj.o(i.lv_obj_draw) refers to lv_obj_draw.o(i.lv_obj_draw_dsc_init) for lv_obj_draw_dsc_init
    lv_obj.o(i.lv_obj_draw) refers to lv_event.o(i.lv_event_send) for lv_event_send
    lv_obj.o(i.lv_obj_draw) refers to lv_draw_rect.o(i.lv_draw_rect) for lv_draw_rect
    lv_obj.o(i.lv_obj_draw) refers to lv_event.o(i.lv_event_get_param) for lv_event_get_param
    lv_obj.o(i.lv_obj_draw) refers to lv_obj.o(i.lv_obj_get_style_radius) for lv_obj_get_style_radius
    lv_obj.o(i.lv_obj_draw) refers to lv_area.o(i._lv_area_is_in) for _lv_area_is_in
    lv_obj.o(i.lv_obj_draw) refers to lv_obj.o(i.lv_obj_get_style_bg_opa) for lv_obj_get_style_bg_opa
    lv_obj.o(i.lv_obj_draw) refers to lv_obj_style.o(i.lv_obj_get_style_prop) for lv_obj_get_style_prop
    lv_obj.o(i.lv_obj_draw) refers to lv_obj.o(i.lv_obj_get_style_opa) for lv_obj_get_style_opa
    lv_obj.o(i.lv_obj_draw) refers to lv_mem.o(i.lv_mem_buf_get) for lv_mem_buf_get
    lv_obj.o(i.lv_obj_draw) refers to lv_draw_mask.o(i.lv_draw_mask_radius_init) for lv_draw_mask_radius_init
    lv_obj.o(i.lv_obj_draw) refers to lv_draw_mask.o(i.lv_draw_mask_add) for lv_draw_mask_add
    lv_obj.o(i.lv_obj_draw) refers to lv_obj.o(.constdata) for .constdata
    lv_obj.o(i.lv_obj_event) refers to lv_event.o(i.lv_event_get_code) for lv_event_get_code
    lv_obj.o(i.lv_obj_event) refers to lv_event.o(i.lv_event_get_current_target) for lv_event_get_current_target
    lv_obj.o(i.lv_obj_event) refers to lv_obj.o(i.lv_obj_draw) for lv_obj_draw
    lv_obj.o(i.lv_obj_event) refers to lv_obj.o(i.lv_obj_clear_state) for lv_obj_clear_state
    lv_obj.o(i.lv_obj_event) refers to lv_event.o(i.lv_event_get_param) for lv_event_get_param
    lv_obj.o(i.lv_obj_event) refers to lv_indev.o(i.lv_indev_get_scroll_obj) for lv_indev_get_scroll_obj
    lv_obj.o(i.lv_obj_event) refers to lv_obj.o(i.lv_obj_has_flag) for lv_obj_has_flag
    lv_obj.o(i.lv_obj_event) refers to lv_obj.o(i.lv_obj_add_state) for lv_obj_add_state
    lv_obj.o(i.lv_obj_event) refers to lv_obj_tree.o(i.lv_obj_get_child_cnt) for lv_obj_get_child_cnt
    lv_obj.o(i.lv_obj_event) refers to lv_obj_pos.o(i.lv_obj_mark_layout_as_dirty) for lv_obj_mark_layout_as_dirty
    lv_obj.o(i.lv_obj_event) refers to lv_event.o(i.lv_event_send) for lv_event_send
    lv_obj.o(i.lv_obj_event) refers to lv_obj_class.o(i.lv_obj_is_editable) for lv_obj_is_editable
    lv_obj.o(i.lv_obj_event) refers to lv_obj_scroll.o(i.lv_obj_get_scroll_left) for lv_obj_get_scroll_left
    lv_obj.o(i.lv_obj_event) refers to lv_obj_scroll.o(i.lv_obj_get_scroll_right) for lv_obj_get_scroll_right
    lv_obj.o(i.lv_obj_event) refers to lv_obj_scroll.o(i.lv_obj_get_scroll_dir) for lv_obj_get_scroll_dir
    lv_obj.o(i.lv_obj_event) refers to lv_obj_pos.o(i.lv_obj_get_height) for lv_obj_get_height
    lv_obj.o(i.lv_obj_event) refers to lv_obj_scroll.o(i.lv_obj_get_scroll_y) for lv_obj_get_scroll_y
    lv_obj.o(i.lv_obj_event) refers to lv_obj_scroll.o(i.lv_obj_scroll_to_y) for lv_obj_scroll_to_y
    lv_obj.o(i.lv_obj_event) refers to lv_obj_pos.o(i.lv_obj_get_width) for lv_obj_get_width
    lv_obj.o(i.lv_obj_event) refers to lv_obj_scroll.o(i.lv_obj_get_scroll_x) for lv_obj_get_scroll_x
    lv_obj.o(i.lv_obj_event) refers to lv_obj_scroll.o(i.lv_obj_scroll_to_x) for lv_obj_scroll_to_x
    lv_obj.o(i.lv_obj_event) refers to lv_obj_scroll.o(i.lv_obj_scroll_to_view_recursive) for lv_obj_scroll_to_view_recursive
    lv_obj.o(i.lv_obj_event) refers to lv_obj.o(i.lv_obj_get_group) for lv_obj_get_group
    lv_obj.o(i.lv_obj_event) refers to lv_group.o(i.lv_group_get_editing) for lv_group_get_editing
    lv_obj.o(i.lv_obj_event) refers to lv_indev.o(i.lv_indev_get_act) for lv_indev_get_act
    lv_obj.o(i.lv_obj_event) refers to lv_event.o(i.lv_event_get_indev) for lv_event_get_indev
    lv_obj.o(i.lv_obj_event) refers to lv_indev.o(i.lv_indev_get_type) for lv_indev_get_type
    lv_obj.o(i.lv_obj_event) refers to lv_obj_scroll.o(i.lv_obj_get_scrollbar_mode) for lv_obj_get_scrollbar_mode
    lv_obj.o(i.lv_obj_event) refers to lv_obj_scroll.o(i.lv_obj_get_scrollbar_area) for lv_obj_get_scrollbar_area
    lv_obj.o(i.lv_obj_event) refers to lv_obj_pos.o(i.lv_obj_invalidate_area) for lv_obj_invalidate_area
    lv_obj.o(i.lv_obj_event) refers to lv_obj.o(i.lv_obj_get_style_align) for lv_obj_get_style_align
    lv_obj.o(i.lv_obj_event) refers to lv_obj.o(i.lv_obj_get_style_layout) for lv_obj_get_style_layout
    lv_obj.o(i.lv_obj_event) refers to lv_obj_style.o(i.lv_obj_get_style_prop) for lv_obj_get_style_prop
    lv_obj.o(i.lv_obj_event) refers to lv_obj_draw.o(i.lv_obj_calculate_ext_draw_size) for lv_obj_calculate_ext_draw_size
    lv_obj.o(i.lv_obj_get_style_align) refers to lv_obj_style.o(i.lv_obj_get_style_prop) for lv_obj_get_style_prop
    lv_obj.o(i.lv_obj_get_style_bg_opa) refers to lv_obj_style.o(i.lv_obj_get_style_prop) for lv_obj_get_style_prop
    lv_obj.o(i.lv_obj_get_style_border_post) refers to lv_obj_style.o(i.lv_obj_get_style_prop) for lv_obj_get_style_prop
    lv_obj.o(i.lv_obj_get_style_clip_corner) refers to lv_obj_style.o(i.lv_obj_get_style_prop) for lv_obj_get_style_prop
    lv_obj.o(i.lv_obj_get_style_layout) refers to lv_obj_style.o(i.lv_obj_get_style_prop) for lv_obj_get_style_prop
    lv_obj.o(i.lv_obj_get_style_opa) refers to lv_obj_style.o(i.lv_obj_get_style_prop) for lv_obj_get_style_prop
    lv_obj.o(i.lv_obj_get_style_radius) refers to lv_obj_style.o(i.lv_obj_get_style_prop) for lv_obj_get_style_prop
    lv_obj.o(i.lv_obj_get_style_transform_height) refers to lv_obj_style.o(i.lv_obj_get_style_prop) for lv_obj_get_style_prop
    lv_obj.o(i.lv_obj_get_style_transform_width) refers to lv_obj_style.o(i.lv_obj_get_style_prop) for lv_obj_get_style_prop
    lv_obj.o(i.lv_obj_is_valid) refers to lv_obj.o(i.obj_valid_child) for obj_valid_child
    lv_obj.o(i.lv_obj_is_valid) refers to lv_hal_disp.o(i.lv_disp_get_next) for lv_disp_get_next
    lv_obj.o(i.lv_obj_set_state) refers to lv_obj_style.o(i._lv_obj_style_state_compare) for _lv_obj_style_state_compare
    lv_obj.o(i.lv_obj_set_state) refers to lv_mem.o(i.lv_mem_buf_get) for lv_mem_buf_get
    lv_obj.o(i.lv_obj_set_state) refers to rt_memclr.o(.text) for __aeabi_memclr
    lv_obj.o(i.lv_obj_set_state) refers to lv_obj_style.o(i.lv_obj_style_get_selector_state) for lv_obj_style_get_selector_state
    lv_obj.o(i.lv_obj_set_state) refers to lv_obj_style.o(i.lv_obj_style_get_selector_part) for lv_obj_style_get_selector_part
    lv_obj.o(i.lv_obj_set_state) refers to lv_obj_style.o(i._lv_obj_style_create_transition) for _lv_obj_style_create_transition
    lv_obj.o(i.lv_obj_set_state) refers to lv_mem.o(i.lv_mem_buf_release) for lv_mem_buf_release
    lv_obj.o(i.lv_obj_set_state) refers to lv_obj_pos.o(i.lv_obj_invalidate) for lv_obj_invalidate
    lv_obj.o(i.lv_obj_set_state) refers to lv_obj_draw.o(i.lv_obj_refresh_ext_draw_size) for lv_obj_refresh_ext_draw_size
    lv_obj.o(i.lv_obj_set_state) refers to lv_obj_style.o(i.lv_obj_refresh_style) for lv_obj_refresh_style
    lv_obj.o(i.scrollbar_init_draw_dsc) refers to lv_draw_rect.o(RAMCODE) for lv_draw_rect_dsc_init
    lv_obj.o(i.scrollbar_init_draw_dsc) refers to lv_obj.o(i.lv_obj_get_style_bg_opa) for lv_obj_get_style_bg_opa
    lv_obj.o(i.scrollbar_init_draw_dsc) refers to lv_obj_style.o(i.lv_obj_get_style_prop) for lv_obj_get_style_prop
    lv_obj.o(i.scrollbar_init_draw_dsc) refers to lv_obj.o(i.lv_obj_get_style_opa) for lv_obj_get_style_opa
    lv_obj.o(i.scrollbar_init_draw_dsc) refers to lv_obj.o(i.lv_obj_get_style_radius) for lv_obj_get_style_radius
    lv_obj.o(.constdata) refers to lv_obj.o(i.lv_obj_constructor) for lv_obj_constructor
    lv_obj.o(.constdata) refers to lv_obj.o(i.lv_obj_destructor) for lv_obj_destructor
    lv_obj.o(.constdata) refers to lv_obj.o(i.lv_obj_event) for lv_obj_event
    lv_obj_class.o(i.lv_obj_class_create_obj) refers to lv_mem.o(i.lv_mem_alloc) for lv_mem_alloc
    lv_obj_class.o(i.lv_obj_class_create_obj) refers to rt_memclr.o(.text) for __aeabi_memclr
    lv_obj_class.o(i.lv_obj_class_create_obj) refers to lv_hal_disp.o(i.lv_disp_get_default) for lv_disp_get_default
    lv_obj_class.o(i.lv_obj_class_create_obj) refers to lv_mem.o(i.lv_mem_realloc) for lv_mem_realloc
    lv_obj_class.o(i.lv_obj_class_create_obj) refers to lv_hal_disp.o(i.lv_disp_get_hor_res) for lv_disp_get_hor_res
    lv_obj_class.o(i.lv_obj_class_create_obj) refers to lv_hal_disp.o(i.lv_disp_get_ver_res) for lv_disp_get_ver_res
    lv_obj_class.o(i.lv_obj_class_create_obj) refers to lv_mem.o(i.lv_mem_free) for lv_mem_free
    lv_obj_class.o(i.lv_obj_class_create_obj) refers to lv_obj.o(i.lv_obj_allocate_spec_attr) for lv_obj_allocate_spec_attr
    lv_obj_class.o(i.lv_obj_class_init_obj) refers to lv_obj_pos.o(i.lv_obj_mark_layout_as_dirty) for lv_obj_mark_layout_as_dirty
    lv_obj_class.o(i.lv_obj_class_init_obj) refers to lv_obj_style.o(i.lv_obj_enable_style_refresh) for lv_obj_enable_style_refresh
    lv_obj_class.o(i.lv_obj_class_init_obj) refers to lv_theme.o(i.lv_theme_apply) for lv_theme_apply
    lv_obj_class.o(i.lv_obj_class_init_obj) refers to lv_obj_class.o(i.lv_obj_construct) for lv_obj_construct
    lv_obj_class.o(i.lv_obj_class_init_obj) refers to lv_obj_style.o(i.lv_obj_refresh_style) for lv_obj_refresh_style
    lv_obj_class.o(i.lv_obj_class_init_obj) refers to lv_obj_pos.o(i.lv_obj_refresh_self_size) for lv_obj_refresh_self_size
    lv_obj_class.o(i.lv_obj_class_init_obj) refers to lv_group.o(i.lv_group_get_default) for lv_group_get_default
    lv_obj_class.o(i.lv_obj_class_init_obj) refers to lv_obj_class.o(i.lv_obj_is_group_def) for lv_obj_is_group_def
    lv_obj_class.o(i.lv_obj_class_init_obj) refers to lv_group.o(i.lv_group_add_obj) for lv_group_add_obj
    lv_obj_class.o(i.lv_obj_class_init_obj) refers to lv_obj_tree.o(i.lv_obj_get_parent) for lv_obj_get_parent
    lv_obj_class.o(i.lv_obj_class_init_obj) refers to lv_event.o(i.lv_event_send) for lv_event_send
    lv_obj_class.o(i.lv_obj_class_init_obj) refers to lv_obj_pos.o(i.lv_obj_invalidate) for lv_obj_invalidate
    lv_obj_draw.o(i.lv_obj_calculate_ext_draw_size) refers to lv_obj_draw.o(i.lv_obj_get_style_shadow_width) for lv_obj_get_style_shadow_width
    lv_obj_draw.o(i.lv_obj_calculate_ext_draw_size) refers to lv_obj_draw.o(i.lv_obj_get_style_shadow_opa) for lv_obj_get_style_shadow_opa
    lv_obj_draw.o(i.lv_obj_calculate_ext_draw_size) refers to lv_obj_draw.o(i.lv_obj_get_style_shadow_spread) for lv_obj_get_style_shadow_spread
    lv_obj_draw.o(i.lv_obj_calculate_ext_draw_size) refers to lv_obj_draw.o(i.lv_obj_get_style_shadow_ofs_x) for lv_obj_get_style_shadow_ofs_x
    lv_obj_draw.o(i.lv_obj_calculate_ext_draw_size) refers to lv_obj_draw.o(i.lv_obj_get_style_shadow_ofs_y) for lv_obj_get_style_shadow_ofs_y
    lv_obj_draw.o(i.lv_obj_calculate_ext_draw_size) refers to lv_obj_draw.o(i.lv_obj_get_style_outline_width) for lv_obj_get_style_outline_width
    lv_obj_draw.o(i.lv_obj_calculate_ext_draw_size) refers to lv_obj_draw.o(i.lv_obj_get_style_outline_opa) for lv_obj_get_style_outline_opa
    lv_obj_draw.o(i.lv_obj_calculate_ext_draw_size) refers to lv_obj_draw.o(i.lv_obj_get_style_outline_pad) for lv_obj_get_style_outline_pad
    lv_obj_draw.o(i.lv_obj_calculate_ext_draw_size) refers to lv_obj_style.o(i.lv_obj_get_style_prop) for lv_obj_get_style_prop
    lv_obj_draw.o(i.lv_obj_draw_dsc_init) refers to rt_memclr.o(.text) for __aeabi_memclr
    lv_obj_draw.o(i.lv_obj_get_style_bg_color_filtered) refers to lv_obj_style.o(i.lv_obj_get_style_prop) for lv_obj_get_style_prop
    lv_obj_draw.o(i.lv_obj_get_style_bg_color_filtered) refers to lv_obj_style.o(i._lv_obj_style_apply_color_filter) for _lv_obj_style_apply_color_filter
    lv_obj_draw.o(i.lv_obj_get_style_blend_mode) refers to lv_obj_style.o(i.lv_obj_get_style_prop) for lv_obj_get_style_prop
    lv_obj_draw.o(i.lv_obj_get_style_opa) refers to lv_obj_style.o(i.lv_obj_get_style_prop) for lv_obj_get_style_prop
    lv_obj_draw.o(i.lv_obj_get_style_outline_opa) refers to lv_obj_style.o(i.lv_obj_get_style_prop) for lv_obj_get_style_prop
    lv_obj_draw.o(i.lv_obj_get_style_outline_pad) refers to lv_obj_style.o(i.lv_obj_get_style_prop) for lv_obj_get_style_prop
    lv_obj_draw.o(i.lv_obj_get_style_outline_width) refers to lv_obj_style.o(i.lv_obj_get_style_prop) for lv_obj_get_style_prop
    lv_obj_draw.o(i.lv_obj_get_style_shadow_ofs_x) refers to lv_obj_style.o(i.lv_obj_get_style_prop) for lv_obj_get_style_prop
    lv_obj_draw.o(i.lv_obj_get_style_shadow_ofs_y) refers to lv_obj_style.o(i.lv_obj_get_style_prop) for lv_obj_get_style_prop
    lv_obj_draw.o(i.lv_obj_get_style_shadow_opa) refers to lv_obj_style.o(i.lv_obj_get_style_prop) for lv_obj_get_style_prop
    lv_obj_draw.o(i.lv_obj_get_style_shadow_spread) refers to lv_obj_style.o(i.lv_obj_get_style_prop) for lv_obj_get_style_prop
    lv_obj_draw.o(i.lv_obj_get_style_shadow_width) refers to lv_obj_style.o(i.lv_obj_get_style_prop) for lv_obj_get_style_prop
    lv_obj_draw.o(i.lv_obj_get_style_text_color_filtered) refers to lv_obj_style.o(i.lv_obj_get_style_prop) for lv_obj_get_style_prop
    lv_obj_draw.o(i.lv_obj_get_style_text_color_filtered) refers to lv_obj_style.o(i._lv_obj_style_apply_color_filter) for _lv_obj_style_apply_color_filter
    lv_obj_draw.o(i.lv_obj_get_style_text_font) refers to lv_obj_style.o(i.lv_obj_get_style_prop) for lv_obj_get_style_prop
    lv_obj_draw.o(i.lv_obj_init_draw_arc_dsc) refers to lv_obj_style.o(i.lv_obj_get_style_prop) for lv_obj_get_style_prop
    lv_obj_draw.o(i.lv_obj_init_draw_arc_dsc) refers to lv_obj_draw.o(i.lv_obj_get_style_opa) for lv_obj_get_style_opa
    lv_obj_draw.o(i.lv_obj_init_draw_arc_dsc) refers to lv_obj_style.o(i._lv_obj_style_apply_color_filter) for _lv_obj_style_apply_color_filter
    lv_obj_draw.o(i.lv_obj_init_draw_arc_dsc) refers to lv_obj_draw.o(i.lv_obj_get_style_blend_mode) for lv_obj_get_style_blend_mode
    lv_obj_draw.o(i.lv_obj_init_draw_img_dsc) refers to lv_obj_style.o(i.lv_obj_get_style_prop) for lv_obj_get_style_prop
    lv_obj_draw.o(i.lv_obj_init_draw_img_dsc) refers to lv_obj_draw.o(i.lv_obj_get_style_opa) for lv_obj_get_style_opa
    lv_obj_draw.o(i.lv_obj_init_draw_img_dsc) refers to lv_obj_style.o(i._lv_obj_style_apply_color_filter) for _lv_obj_style_apply_color_filter
    lv_obj_draw.o(i.lv_obj_init_draw_img_dsc) refers to lv_obj_draw.o(i.lv_obj_get_style_blend_mode) for lv_obj_get_style_blend_mode
    lv_obj_draw.o(i.lv_obj_init_draw_label_dsc) refers to lv_obj_style.o(i.lv_obj_get_style_prop) for lv_obj_get_style_prop
    lv_obj_draw.o(i.lv_obj_init_draw_label_dsc) refers to lv_obj_draw.o(i.lv_obj_get_style_opa) for lv_obj_get_style_opa
    lv_obj_draw.o(i.lv_obj_init_draw_label_dsc) refers to lv_obj_draw.o(i.lv_obj_get_style_text_color_filtered) for lv_obj_get_style_text_color_filtered
    lv_obj_draw.o(i.lv_obj_init_draw_label_dsc) refers to lv_obj_draw.o(i.lv_obj_get_style_blend_mode) for lv_obj_get_style_blend_mode
    lv_obj_draw.o(i.lv_obj_init_draw_label_dsc) refers to lv_obj_draw.o(i.lv_obj_get_style_text_font) for lv_obj_get_style_text_font
    lv_obj_draw.o(i.lv_obj_init_draw_line_dsc) refers to lv_obj_style.o(i.lv_obj_get_style_prop) for lv_obj_get_style_prop
    lv_obj_draw.o(i.lv_obj_init_draw_line_dsc) refers to lv_obj_draw.o(i.lv_obj_get_style_opa) for lv_obj_get_style_opa
    lv_obj_draw.o(i.lv_obj_init_draw_line_dsc) refers to lv_obj_style.o(i._lv_obj_style_apply_color_filter) for _lv_obj_style_apply_color_filter
    lv_obj_draw.o(i.lv_obj_init_draw_line_dsc) refers to lv_obj_draw.o(i.lv_obj_get_style_blend_mode) for lv_obj_get_style_blend_mode
    lv_obj_draw.o(i.lv_obj_init_draw_rect_dsc) refers to lv_obj_style.o(i.lv_obj_get_style_prop) for lv_obj_get_style_prop
    lv_obj_draw.o(i.lv_obj_init_draw_rect_dsc) refers to lv_obj_draw.o(i.lv_obj_get_style_opa) for lv_obj_get_style_opa
    lv_obj_draw.o(i.lv_obj_init_draw_rect_dsc) refers to lv_obj_draw.o(i.lv_obj_get_style_blend_mode) for lv_obj_get_style_blend_mode
    lv_obj_draw.o(i.lv_obj_init_draw_rect_dsc) refers to lv_obj_draw.o(i.lv_obj_get_style_bg_color_filtered) for lv_obj_get_style_bg_color_filtered
    lv_obj_draw.o(i.lv_obj_init_draw_rect_dsc) refers to memcpy.o(.text) for memcpy
    lv_obj_draw.o(i.lv_obj_init_draw_rect_dsc) refers to lv_obj_style.o(i._lv_obj_style_apply_color_filter) for _lv_obj_style_apply_color_filter
    lv_obj_draw.o(i.lv_obj_init_draw_rect_dsc) refers to lv_obj_draw.o(i.lv_obj_get_style_outline_width) for lv_obj_get_style_outline_width
    lv_obj_draw.o(i.lv_obj_init_draw_rect_dsc) refers to lv_obj_draw.o(i.lv_obj_get_style_outline_opa) for lv_obj_get_style_outline_opa
    lv_obj_draw.o(i.lv_obj_init_draw_rect_dsc) refers to lv_obj_draw.o(i.lv_obj_get_style_outline_pad) for lv_obj_get_style_outline_pad
    lv_obj_draw.o(i.lv_obj_init_draw_rect_dsc) refers to lv_draw_img.o(i.lv_img_src_get_type) for lv_img_src_get_type
    lv_obj_draw.o(i.lv_obj_init_draw_rect_dsc) refers to lv_obj_draw.o(i.lv_obj_get_style_shadow_width) for lv_obj_get_style_shadow_width
    lv_obj_draw.o(i.lv_obj_init_draw_rect_dsc) refers to lv_obj_draw.o(i.lv_obj_get_style_shadow_opa) for lv_obj_get_style_shadow_opa
    lv_obj_draw.o(i.lv_obj_init_draw_rect_dsc) refers to lv_obj_draw.o(i.lv_obj_get_style_shadow_ofs_x) for lv_obj_get_style_shadow_ofs_x
    lv_obj_draw.o(i.lv_obj_init_draw_rect_dsc) refers to lv_obj_draw.o(i.lv_obj_get_style_shadow_ofs_y) for lv_obj_get_style_shadow_ofs_y
    lv_obj_draw.o(i.lv_obj_init_draw_rect_dsc) refers to lv_obj_draw.o(i.lv_obj_get_style_shadow_spread) for lv_obj_get_style_shadow_spread
    lv_obj_draw.o(i.lv_obj_init_draw_rect_dsc) refers to lv_obj_draw.o(i.lv_obj_get_style_text_font) for lv_obj_get_style_text_font
    lv_obj_draw.o(i.lv_obj_init_draw_rect_dsc) refers to lv_obj_draw.o(i.lv_obj_get_style_text_color_filtered) for lv_obj_get_style_text_color_filtered
    lv_obj_draw.o(i.lv_obj_refresh_ext_draw_size) refers to lv_obj_draw.o(i._lv_obj_get_ext_draw_size) for _lv_obj_get_ext_draw_size
    lv_obj_draw.o(i.lv_obj_refresh_ext_draw_size) refers to lv_event.o(i.lv_event_send) for lv_event_send
    lv_obj_draw.o(i.lv_obj_refresh_ext_draw_size) refers to lv_obj_pos.o(i.lv_obj_invalidate) for lv_obj_invalidate
    lv_obj_draw.o(i.lv_obj_refresh_ext_draw_size) refers to lv_obj.o(i.lv_obj_allocate_spec_attr) for lv_obj_allocate_spec_attr
    lv_obj_pos.o(i.calc_content_height) refers to lv_obj_scroll.o(i.lv_obj_scroll_to_y) for lv_obj_scroll_to_y
    lv_obj_pos.o(i.calc_content_height) refers to lv_obj_pos.o(i.lv_obj_get_style_border_width) for lv_obj_get_style_border_width
    lv_obj_pos.o(i.calc_content_height) refers to lv_obj_pos.o(i.lv_obj_get_style_pad_top) for lv_obj_get_style_pad_top
    lv_obj_pos.o(i.calc_content_height) refers to lv_obj_pos.o(i.lv_obj_get_style_pad_bottom) for lv_obj_get_style_pad_bottom
    lv_obj_pos.o(i.calc_content_height) refers to lv_obj_pos.o(i.lv_obj_get_self_height) for lv_obj_get_self_height
    lv_obj_pos.o(i.calc_content_height) refers to lv_obj_tree.o(i.lv_obj_get_child_cnt) for lv_obj_get_child_cnt
    lv_obj_pos.o(i.calc_content_height) refers to lv_obj.o(i.lv_obj_has_flag_any) for lv_obj_has_flag_any
    lv_obj_pos.o(i.calc_content_height) refers to lv_obj_pos.o(i.lv_obj_is_layout_positioned) for lv_obj_is_layout_positioned
    lv_obj_pos.o(i.calc_content_height) refers to lv_obj_pos.o(i.lv_obj_get_style_align) for lv_obj_get_style_align
    lv_obj_pos.o(i.calc_content_height) refers to lv_obj_pos.o(i.lv_obj_get_style_y) for lv_obj_get_style_y
    lv_obj_pos.o(i.calc_content_width) refers to lv_obj_scroll.o(i.lv_obj_scroll_to_x) for lv_obj_scroll_to_x
    lv_obj_pos.o(i.calc_content_width) refers to lv_obj_pos.o(i.lv_obj_get_style_border_width) for lv_obj_get_style_border_width
    lv_obj_pos.o(i.calc_content_width) refers to lv_obj_pos.o(i.lv_obj_get_style_pad_right) for lv_obj_get_style_pad_right
    lv_obj_pos.o(i.calc_content_width) refers to lv_obj_pos.o(i.lv_obj_get_style_pad_left) for lv_obj_get_style_pad_left
    lv_obj_pos.o(i.calc_content_width) refers to lv_obj_pos.o(i.lv_obj_get_self_width) for lv_obj_get_self_width
    lv_obj_pos.o(i.calc_content_width) refers to lv_obj_tree.o(i.lv_obj_get_child_cnt) for lv_obj_get_child_cnt
    lv_obj_pos.o(i.calc_content_width) refers to lv_obj_pos.o(i.lv_obj_get_style_base_dir) for lv_obj_get_style_base_dir
    lv_obj_pos.o(i.calc_content_width) refers to lv_obj.o(i.lv_obj_has_flag_any) for lv_obj_has_flag_any
    lv_obj_pos.o(i.calc_content_width) refers to lv_obj_pos.o(i.lv_obj_is_layout_positioned) for lv_obj_is_layout_positioned
    lv_obj_pos.o(i.calc_content_width) refers to lv_obj_pos.o(i.lv_obj_get_style_align) for lv_obj_get_style_align
    lv_obj_pos.o(i.calc_content_width) refers to lv_obj_pos.o(i.lv_obj_get_style_x) for lv_obj_get_style_x
    lv_obj_pos.o(i.calc_content_width) refers to lv_obj_pos.o(i.lv_area_get_width) for lv_area_get_width
    lv_obj_pos.o(i.calc_content_width) refers to lv_obj_pos.o(i.lv_obj_get_style_y) for lv_obj_get_style_y
    lv_obj_pos.o(i.layout_update_core) refers to lv_obj_tree.o(i.lv_obj_get_child_cnt) for lv_obj_get_child_cnt
    lv_obj_pos.o(i.layout_update_core) refers to lv_obj_pos.o(i.lv_obj_refr_size) for lv_obj_refr_size
    lv_obj_pos.o(i.layout_update_core) refers to lv_obj_pos.o(i.lv_obj_refr_pos) for lv_obj_refr_pos
    lv_obj_pos.o(i.layout_update_core) refers to lv_obj_pos.o(i.lv_obj_get_style_layout) for lv_obj_get_style_layout
    lv_obj_pos.o(i.layout_update_core) refers to lv_obj_pos.o(.data) for .data
    lv_obj_pos.o(i.layout_update_core) refers to lv_gc.o(.data) for _lv_layout_list
    lv_obj_pos.o(i.lv_layout_register) refers to lv_mem.o(i.lv_mem_realloc) for lv_mem_realloc
    lv_obj_pos.o(i.lv_layout_register) refers to lv_obj_pos.o(.data) for .data
    lv_obj_pos.o(i.lv_layout_register) refers to lv_gc.o(.data) for _lv_layout_list
    lv_obj_pos.o(i.lv_obj_align) refers to lv_obj_style_gen.o(i.lv_obj_set_style_align) for lv_obj_set_style_align
    lv_obj_pos.o(i.lv_obj_align) refers to lv_obj_pos.o(i.lv_obj_set_pos) for lv_obj_set_pos
    lv_obj_pos.o(i.lv_obj_align_to) refers to lv_obj_pos.o(i.lv_obj_update_layout) for lv_obj_update_layout
    lv_obj_pos.o(i.lv_obj_align_to) refers to lv_obj_tree.o(i.lv_obj_get_parent) for lv_obj_get_parent
    lv_obj_pos.o(i.lv_obj_align_to) refers to lv_obj_pos.o(i.lv_obj_get_style_border_width) for lv_obj_get_style_border_width
    lv_obj_pos.o(i.lv_obj_align_to) refers to lv_obj_pos.o(i.lv_obj_get_style_pad_left) for lv_obj_get_style_pad_left
    lv_obj_pos.o(i.lv_obj_align_to) refers to lv_obj_pos.o(i.lv_obj_get_style_pad_top) for lv_obj_get_style_pad_top
    lv_obj_pos.o(i.lv_obj_align_to) refers to lv_obj_pos.o(i.lv_obj_get_style_base_dir) for lv_obj_get_style_base_dir
    lv_obj_pos.o(i.lv_obj_align_to) refers to lv_obj_pos.o(i.lv_obj_get_content_width) for lv_obj_get_content_width
    lv_obj_pos.o(i.lv_obj_align_to) refers to lv_obj_pos.o(i.lv_obj_get_width) for lv_obj_get_width
    lv_obj_pos.o(i.lv_obj_align_to) refers to lv_obj_pos.o(i.lv_obj_get_content_height) for lv_obj_get_content_height
    lv_obj_pos.o(i.lv_obj_align_to) refers to lv_obj_pos.o(i.lv_obj_get_height) for lv_obj_get_height
    lv_obj_pos.o(i.lv_obj_align_to) refers to lv_obj_scroll.o(i.lv_obj_get_scroll_left) for lv_obj_get_scroll_left
    lv_obj_pos.o(i.lv_obj_align_to) refers to lv_obj_scroll.o(i.lv_obj_get_scroll_top) for lv_obj_get_scroll_top
    lv_obj_pos.o(i.lv_obj_align_to) refers to lv_obj_style_gen.o(i.lv_obj_set_style_align) for lv_obj_set_style_align
    lv_obj_pos.o(i.lv_obj_align_to) refers to lv_obj_pos.o(i.lv_obj_set_pos) for lv_obj_set_pos
    lv_obj_pos.o(i.lv_obj_align_to) refers to lv_obj_scroll.o(i.lv_obj_get_scroll_right) for lv_obj_get_scroll_right
    lv_obj_pos.o(i.lv_obj_area_is_visible) refers to lv_obj.o(i.lv_obj_has_flag) for lv_obj_has_flag
    lv_obj_pos.o(i.lv_obj_area_is_visible) refers to lv_obj_tree.o(i.lv_obj_get_screen) for lv_obj_get_screen
    lv_obj_pos.o(i.lv_obj_area_is_visible) refers to lv_obj_tree.o(i.lv_obj_get_disp) for lv_obj_get_disp
    lv_obj_pos.o(i.lv_obj_area_is_visible) refers to lv_disp.o(i.lv_disp_get_scr_act) for lv_disp_get_scr_act
    lv_obj_pos.o(i.lv_obj_area_is_visible) refers to lv_disp.o(i.lv_disp_get_scr_prev) for lv_disp_get_scr_prev
    lv_obj_pos.o(i.lv_obj_area_is_visible) refers to lv_disp.o(i.lv_disp_get_layer_top) for lv_disp_get_layer_top
    lv_obj_pos.o(i.lv_obj_area_is_visible) refers to lv_disp.o(i.lv_disp_get_layer_sys) for lv_disp_get_layer_sys
    lv_obj_pos.o(i.lv_obj_area_is_visible) refers to lv_obj_draw.o(i._lv_obj_get_ext_draw_size) for _lv_obj_get_ext_draw_size
    lv_obj_pos.o(i.lv_obj_area_is_visible) refers to lv_obj_pos.o(i.lv_area_copy) for lv_area_copy
    lv_obj_pos.o(i.lv_obj_area_is_visible) refers to lv_area.o(i._lv_area_intersect) for _lv_area_intersect
    lv_obj_pos.o(i.lv_obj_area_is_visible) refers to lv_obj_tree.o(i.lv_obj_get_parent) for lv_obj_get_parent
    lv_obj_pos.o(i.lv_obj_get_click_area) refers to lv_obj_pos.o(i.lv_area_copy) for lv_area_copy
    lv_obj_pos.o(i.lv_obj_get_content_coords) refers to lv_obj_pos.o(i.lv_obj_get_style_border_width) for lv_obj_get_style_border_width
    lv_obj_pos.o(i.lv_obj_get_content_coords) refers to lv_obj_pos.o(i.lv_obj_get_coords) for lv_obj_get_coords
    lv_obj_pos.o(i.lv_obj_get_content_coords) refers to lv_area.o(i.lv_area_increase) for lv_area_increase
    lv_obj_pos.o(i.lv_obj_get_content_coords) refers to lv_obj_pos.o(i.lv_obj_get_style_pad_left) for lv_obj_get_style_pad_left
    lv_obj_pos.o(i.lv_obj_get_content_coords) refers to lv_obj_pos.o(i.lv_obj_get_style_pad_right) for lv_obj_get_style_pad_right
    lv_obj_pos.o(i.lv_obj_get_content_coords) refers to lv_obj_pos.o(i.lv_obj_get_style_pad_top) for lv_obj_get_style_pad_top
    lv_obj_pos.o(i.lv_obj_get_content_coords) refers to lv_obj_pos.o(i.lv_obj_get_style_pad_bottom) for lv_obj_get_style_pad_bottom
    lv_obj_pos.o(i.lv_obj_get_content_height) refers to lv_obj_pos.o(i.lv_obj_get_style_pad_top) for lv_obj_get_style_pad_top
    lv_obj_pos.o(i.lv_obj_get_content_height) refers to lv_obj_pos.o(i.lv_obj_get_style_pad_bottom) for lv_obj_get_style_pad_bottom
    lv_obj_pos.o(i.lv_obj_get_content_height) refers to lv_obj_pos.o(i.lv_obj_get_style_border_width) for lv_obj_get_style_border_width
    lv_obj_pos.o(i.lv_obj_get_content_height) refers to lv_obj_pos.o(i.lv_obj_get_height) for lv_obj_get_height
    lv_obj_pos.o(i.lv_obj_get_content_width) refers to lv_obj_pos.o(i.lv_obj_get_style_pad_left) for lv_obj_get_style_pad_left
    lv_obj_pos.o(i.lv_obj_get_content_width) refers to lv_obj_pos.o(i.lv_obj_get_style_pad_right) for lv_obj_get_style_pad_right
    lv_obj_pos.o(i.lv_obj_get_content_width) refers to lv_obj_pos.o(i.lv_obj_get_style_border_width) for lv_obj_get_style_border_width
    lv_obj_pos.o(i.lv_obj_get_content_width) refers to lv_obj_pos.o(i.lv_obj_get_width) for lv_obj_get_width
    lv_obj_pos.o(i.lv_obj_get_coords) refers to lv_obj_pos.o(i.lv_area_copy) for lv_area_copy
    lv_obj_pos.o(i.lv_obj_get_self_height) refers to lv_event.o(i.lv_event_send) for lv_event_send
    lv_obj_pos.o(i.lv_obj_get_self_height) refers to lv_obj_pos.o(.constdata) for .constdata
    lv_obj_pos.o(i.lv_obj_get_self_width) refers to lv_event.o(i.lv_event_send) for lv_event_send
    lv_obj_pos.o(i.lv_obj_get_self_width) refers to lv_obj_pos.o(.constdata) for .constdata
    lv_obj_pos.o(i.lv_obj_get_style_align) refers to lv_obj_style.o(i.lv_obj_get_style_prop) for lv_obj_get_style_prop
    lv_obj_pos.o(i.lv_obj_get_style_base_dir) refers to lv_obj_style.o(i.lv_obj_get_style_prop) for lv_obj_get_style_prop
    lv_obj_pos.o(i.lv_obj_get_style_border_width) refers to lv_obj_style.o(i.lv_obj_get_style_prop) for lv_obj_get_style_prop
    lv_obj_pos.o(i.lv_obj_get_style_height) refers to lv_obj_style.o(i.lv_obj_get_style_prop) for lv_obj_get_style_prop
    lv_obj_pos.o(i.lv_obj_get_style_layout) refers to lv_obj_style.o(i.lv_obj_get_style_prop) for lv_obj_get_style_prop
    lv_obj_pos.o(i.lv_obj_get_style_pad_bottom) refers to lv_obj_style.o(i.lv_obj_get_style_prop) for lv_obj_get_style_prop
    lv_obj_pos.o(i.lv_obj_get_style_pad_left) refers to lv_obj_style.o(i.lv_obj_get_style_prop) for lv_obj_get_style_prop
    lv_obj_pos.o(i.lv_obj_get_style_pad_right) refers to lv_obj_style.o(i.lv_obj_get_style_prop) for lv_obj_get_style_prop
    lv_obj_pos.o(i.lv_obj_get_style_pad_top) refers to lv_obj_style.o(i.lv_obj_get_style_prop) for lv_obj_get_style_prop
    lv_obj_pos.o(i.lv_obj_get_style_width) refers to lv_obj_style.o(i.lv_obj_get_style_prop) for lv_obj_get_style_prop
    lv_obj_pos.o(i.lv_obj_get_style_x) refers to lv_obj_style.o(i.lv_obj_get_style_prop) for lv_obj_get_style_prop
    lv_obj_pos.o(i.lv_obj_get_style_y) refers to lv_obj_style.o(i.lv_obj_get_style_prop) for lv_obj_get_style_prop
    lv_obj_pos.o(i.lv_obj_get_x) refers to lv_obj_tree.o(i.lv_obj_get_parent) for lv_obj_get_parent
    lv_obj_pos.o(i.lv_obj_get_x) refers to lv_obj_scroll.o(i.lv_obj_get_scroll_x) for lv_obj_get_scroll_x
    lv_obj_pos.o(i.lv_obj_get_x) refers to lv_obj_pos.o(i.lv_obj_get_style_pad_left) for lv_obj_get_style_pad_left
    lv_obj_pos.o(i.lv_obj_get_x) refers to lv_obj_pos.o(i.lv_obj_get_style_border_width) for lv_obj_get_style_border_width
    lv_obj_pos.o(i.lv_obj_get_x2) refers to lv_obj_pos.o(i.lv_obj_get_x) for lv_obj_get_x
    lv_obj_pos.o(i.lv_obj_get_x2) refers to lv_obj_pos.o(i.lv_obj_get_width) for lv_obj_get_width
    lv_obj_pos.o(i.lv_obj_get_x_aligned) refers to lv_obj_pos.o(i.lv_obj_get_style_x) for lv_obj_get_style_x
    lv_obj_pos.o(i.lv_obj_get_y) refers to lv_obj_tree.o(i.lv_obj_get_parent) for lv_obj_get_parent
    lv_obj_pos.o(i.lv_obj_get_y) refers to lv_obj_scroll.o(i.lv_obj_get_scroll_y) for lv_obj_get_scroll_y
    lv_obj_pos.o(i.lv_obj_get_y) refers to lv_obj_pos.o(i.lv_obj_get_style_pad_top) for lv_obj_get_style_pad_top
    lv_obj_pos.o(i.lv_obj_get_y) refers to lv_obj_pos.o(i.lv_obj_get_style_border_width) for lv_obj_get_style_border_width
    lv_obj_pos.o(i.lv_obj_get_y2) refers to lv_obj_pos.o(i.lv_obj_get_y) for lv_obj_get_y
    lv_obj_pos.o(i.lv_obj_get_y2) refers to lv_obj_pos.o(i.lv_obj_get_height) for lv_obj_get_height
    lv_obj_pos.o(i.lv_obj_get_y_aligned) refers to lv_obj_pos.o(i.lv_obj_get_style_y) for lv_obj_get_style_y
    lv_obj_pos.o(i.lv_obj_hit_test) refers to lv_obj.o(i.lv_obj_has_flag) for lv_obj_has_flag
    lv_obj_pos.o(i.lv_obj_hit_test) refers to lv_obj.o(i.lv_obj_has_state) for lv_obj_has_state
    lv_obj_pos.o(i.lv_obj_hit_test) refers to lv_obj_pos.o(i.lv_obj_get_click_area) for lv_obj_get_click_area
    lv_obj_pos.o(i.lv_obj_hit_test) refers to lv_area.o(i._lv_area_is_point_on) for _lv_area_is_point_on
    lv_obj_pos.o(i.lv_obj_hit_test) refers to lv_event.o(i.lv_event_send) for lv_event_send
    lv_obj_pos.o(i.lv_obj_invalidate) refers to lv_obj_tree.o(i.lv_obj_get_parent) for lv_obj_get_parent
    lv_obj_pos.o(i.lv_obj_invalidate) refers to lv_obj.o(i.lv_obj_has_flag) for lv_obj_has_flag
    lv_obj_pos.o(i.lv_obj_invalidate) refers to lv_obj_draw.o(i._lv_obj_get_ext_draw_size) for _lv_obj_get_ext_draw_size
    lv_obj_pos.o(i.lv_obj_invalidate) refers to lv_obj_pos.o(i.lv_area_copy) for lv_area_copy
    lv_obj_pos.o(i.lv_obj_invalidate) refers to lv_obj_pos.o(i.lv_obj_invalidate_area) for lv_obj_invalidate_area
    lv_obj_pos.o(i.lv_obj_invalidate_area) refers to lv_obj_pos.o(i.lv_area_copy) for lv_area_copy
    lv_obj_pos.o(i.lv_obj_invalidate_area) refers to lv_obj_pos.o(i.lv_obj_area_is_visible) for lv_obj_area_is_visible
    lv_obj_pos.o(i.lv_obj_invalidate_area) refers to lv_obj_tree.o(i.lv_obj_get_disp) for lv_obj_get_disp
    lv_obj_pos.o(i.lv_obj_invalidate_area) refers to lv_refr.o(i._lv_inv_area) for _lv_inv_area
    lv_obj_pos.o(i.lv_obj_is_layout_positioned) refers to lv_obj.o(i.lv_obj_has_flag_any) for lv_obj_has_flag_any
    lv_obj_pos.o(i.lv_obj_is_layout_positioned) refers to lv_obj_tree.o(i.lv_obj_get_parent) for lv_obj_get_parent
    lv_obj_pos.o(i.lv_obj_is_layout_positioned) refers to lv_obj_pos.o(i.lv_obj_get_style_layout) for lv_obj_get_style_layout
    lv_obj_pos.o(i.lv_obj_is_visible) refers to lv_obj_draw.o(i._lv_obj_get_ext_draw_size) for _lv_obj_get_ext_draw_size
    lv_obj_pos.o(i.lv_obj_is_visible) refers to lv_obj_pos.o(i.lv_area_copy) for lv_area_copy
    lv_obj_pos.o(i.lv_obj_is_visible) refers to lv_obj_pos.o(i.lv_obj_area_is_visible) for lv_obj_area_is_visible
    lv_obj_pos.o(i.lv_obj_mark_layout_as_dirty) refers to lv_obj_tree.o(i.lv_obj_get_screen) for lv_obj_get_screen
    lv_obj_pos.o(i.lv_obj_mark_layout_as_dirty) refers to lv_obj_tree.o(i.lv_obj_get_disp) for lv_obj_get_disp
    lv_obj_pos.o(i.lv_obj_mark_layout_as_dirty) refers to lv_timer.o(i.lv_timer_resume) for lv_timer_resume
    lv_obj_pos.o(i.lv_obj_move_children_by) refers to lv_obj_tree.o(i.lv_obj_get_child_cnt) for lv_obj_get_child_cnt
    lv_obj_pos.o(i.lv_obj_move_children_by) refers to lv_obj.o(i.lv_obj_has_flag) for lv_obj_has_flag
    lv_obj_pos.o(i.lv_obj_move_to) refers to lv_obj_pos.o(i.lv_obj_get_style_pad_left) for lv_obj_get_style_pad_left
    lv_obj_pos.o(i.lv_obj_move_to) refers to lv_obj_pos.o(i.lv_obj_get_style_pad_top) for lv_obj_get_style_pad_top
    lv_obj_pos.o(i.lv_obj_move_to) refers to lv_obj.o(i.lv_obj_has_flag) for lv_obj_has_flag
    lv_obj_pos.o(i.lv_obj_move_to) refers to lv_obj_scroll.o(i.lv_obj_get_scroll_x) for lv_obj_get_scroll_x
    lv_obj_pos.o(i.lv_obj_move_to) refers to lv_obj_scroll.o(i.lv_obj_get_scroll_y) for lv_obj_get_scroll_y
    lv_obj_pos.o(i.lv_obj_move_to) refers to lv_obj_pos.o(i.lv_obj_get_style_border_width) for lv_obj_get_style_border_width
    lv_obj_pos.o(i.lv_obj_move_to) refers to lv_obj_pos.o(i.lv_obj_invalidate) for lv_obj_invalidate
    lv_obj_pos.o(i.lv_obj_move_to) refers to lv_obj_pos.o(i.lv_obj_get_coords) for lv_obj_get_coords
    lv_obj_pos.o(i.lv_obj_move_to) refers to lv_obj_pos.o(i.lv_obj_get_content_coords) for lv_obj_get_content_coords
    lv_obj_pos.o(i.lv_obj_move_to) refers to lv_area.o(i._lv_area_is_in) for _lv_area_is_in
    lv_obj_pos.o(i.lv_obj_move_to) refers to lv_obj_scroll.o(i.lv_obj_scrollbar_invalidate) for lv_obj_scrollbar_invalidate
    lv_obj_pos.o(i.lv_obj_move_to) refers to lv_obj_pos.o(i.lv_obj_move_children_by) for lv_obj_move_children_by
    lv_obj_pos.o(i.lv_obj_move_to) refers to lv_event.o(i.lv_event_send) for lv_event_send
    lv_obj_pos.o(i.lv_obj_refr_pos) refers to lv_obj_pos.o(i.lv_obj_is_layout_positioned) for lv_obj_is_layout_positioned
    lv_obj_pos.o(i.lv_obj_refr_pos) refers to lv_obj_tree.o(i.lv_obj_get_parent) for lv_obj_get_parent
    lv_obj_pos.o(i.lv_obj_refr_pos) refers to lv_obj_pos.o(i.lv_obj_get_style_x) for lv_obj_get_style_x
    lv_obj_pos.o(i.lv_obj_refr_pos) refers to lv_obj_pos.o(i.lv_obj_get_style_y) for lv_obj_get_style_y
    lv_obj_pos.o(i.lv_obj_refr_pos) refers to lv_obj_pos.o(i.lv_obj_get_content_width) for lv_obj_get_content_width
    lv_obj_pos.o(i.lv_obj_refr_pos) refers to lv_obj_pos.o(i.lv_obj_get_content_height) for lv_obj_get_content_height
    lv_obj_pos.o(i.lv_obj_refr_pos) refers to lv_obj_style.o(i.lv_obj_get_style_prop) for lv_obj_get_style_prop
    lv_obj_pos.o(i.lv_obj_refr_pos) refers to lv_obj_pos.o(i.lv_obj_get_width) for lv_obj_get_width
    lv_obj_pos.o(i.lv_obj_refr_pos) refers to lv_obj_pos.o(i.lv_obj_get_height) for lv_obj_get_height
    lv_obj_pos.o(i.lv_obj_refr_pos) refers to lv_obj_pos.o(i.lv_obj_get_style_align) for lv_obj_get_style_align
    lv_obj_pos.o(i.lv_obj_refr_pos) refers to lv_obj_pos.o(i.lv_obj_get_style_base_dir) for lv_obj_get_style_base_dir
    lv_obj_pos.o(i.lv_obj_refr_pos) refers to lv_obj_pos.o(i.lv_obj_move_to) for lv_obj_move_to
    lv_obj_pos.o(i.lv_obj_refr_size) refers to lv_obj_tree.o(i.lv_obj_get_parent) for lv_obj_get_parent
    lv_obj_pos.o(i.lv_obj_refr_size) refers to lv_obj_scroll.o(i.lv_obj_get_scroll_left) for lv_obj_get_scroll_left
    lv_obj_pos.o(i.lv_obj_refr_size) refers to lv_obj_pos.o(i.lv_obj_get_width) for lv_obj_get_width
    lv_obj_pos.o(i.lv_obj_refr_size) refers to lv_obj_pos.o(i.lv_obj_get_style_width) for lv_obj_get_style_width
    lv_obj_pos.o(i.lv_obj_refr_size) refers to lv_obj_pos.o(i.lv_obj_get_content_width) for lv_obj_get_content_width
    lv_obj_pos.o(i.lv_obj_refr_size) refers to lv_obj_pos.o(i.calc_content_width) for calc_content_width
    lv_obj_pos.o(i.lv_obj_refr_size) refers to lv_obj_pos.o(i.lv_obj_get_style_border_width) for lv_obj_get_style_border_width
    lv_obj_pos.o(i.lv_obj_refr_size) refers to lv_obj_pos.o(i.lv_obj_get_style_pad_left) for lv_obj_get_style_pad_left
    lv_obj_pos.o(i.lv_obj_refr_size) refers to lv_obj_pos.o(i.lv_obj_get_style_pad_right) for lv_obj_get_style_pad_right
    lv_obj_pos.o(i.lv_obj_refr_size) refers to lv_obj_style.o(i.lv_obj_get_style_prop) for lv_obj_get_style_prop
    lv_obj_pos.o(i.lv_obj_refr_size) refers to lv_obj_pos.o(i.lv_clamp_width) for lv_clamp_width
    lv_obj_pos.o(i.lv_obj_refr_size) refers to lv_obj_scroll.o(i.lv_obj_get_scroll_top) for lv_obj_get_scroll_top
    lv_obj_pos.o(i.lv_obj_refr_size) refers to lv_obj_pos.o(i.lv_obj_get_height) for lv_obj_get_height
    lv_obj_pos.o(i.lv_obj_refr_size) refers to lv_obj_pos.o(i.lv_obj_get_style_height) for lv_obj_get_style_height
    lv_obj_pos.o(i.lv_obj_refr_size) refers to lv_obj_pos.o(i.lv_obj_get_content_height) for lv_obj_get_content_height
    lv_obj_pos.o(i.lv_obj_refr_size) refers to lv_obj_pos.o(i.calc_content_height) for calc_content_height
    lv_obj_pos.o(i.lv_obj_refr_size) refers to lv_obj_pos.o(i.lv_clamp_height) for lv_clamp_height
    lv_obj_pos.o(i.lv_obj_refr_size) refers to lv_obj_scroll.o(i.lv_obj_scroll_to) for lv_obj_scroll_to
    lv_obj_pos.o(i.lv_obj_refr_size) refers to lv_obj_pos.o(i.lv_obj_get_style_pad_top) for lv_obj_get_style_pad_top
    lv_obj_pos.o(i.lv_obj_refr_size) refers to lv_obj_pos.o(i.lv_obj_get_style_pad_bottom) for lv_obj_get_style_pad_bottom
    lv_obj_pos.o(i.lv_obj_refr_size) refers to lv_obj_pos.o(i.lv_obj_invalidate) for lv_obj_invalidate
    lv_obj_pos.o(i.lv_obj_refr_size) refers to lv_obj_pos.o(i.lv_obj_get_coords) for lv_obj_get_coords
    lv_obj_pos.o(i.lv_obj_refr_size) refers to lv_obj_pos.o(i.lv_obj_get_content_coords) for lv_obj_get_content_coords
    lv_obj_pos.o(i.lv_obj_refr_size) refers to lv_area.o(i._lv_area_is_in) for _lv_area_is_in
    lv_obj_pos.o(i.lv_obj_refr_size) refers to lv_obj_scroll.o(i.lv_obj_scrollbar_invalidate) for lv_obj_scrollbar_invalidate
    lv_obj_pos.o(i.lv_obj_refr_size) refers to lv_obj_pos.o(i.lv_obj_get_style_base_dir) for lv_obj_get_style_base_dir
    lv_obj_pos.o(i.lv_obj_refr_size) refers to lv_event.o(i.lv_event_send) for lv_event_send
    lv_obj_pos.o(i.lv_obj_refr_size) refers to lv_obj_scroll.o(i.lv_obj_readjust_scroll) for lv_obj_readjust_scroll
    lv_obj_pos.o(i.lv_obj_refresh_self_size) refers to lv_obj_pos.o(i.lv_obj_get_style_width) for lv_obj_get_style_width
    lv_obj_pos.o(i.lv_obj_refresh_self_size) refers to lv_obj_pos.o(i.lv_obj_get_style_height) for lv_obj_get_style_height
    lv_obj_pos.o(i.lv_obj_refresh_self_size) refers to lv_obj_pos.o(i.lv_obj_mark_layout_as_dirty) for lv_obj_mark_layout_as_dirty
    lv_obj_pos.o(i.lv_obj_set_align) refers to lv_obj_style_gen.o(i.lv_obj_set_style_align) for lv_obj_set_style_align
    lv_obj_pos.o(i.lv_obj_set_content_height) refers to lv_obj_pos.o(i.lv_obj_get_style_pad_top) for lv_obj_get_style_pad_top
    lv_obj_pos.o(i.lv_obj_set_content_height) refers to lv_obj_pos.o(i.lv_obj_get_style_pad_bottom) for lv_obj_get_style_pad_bottom
    lv_obj_pos.o(i.lv_obj_set_content_height) refers to lv_obj_pos.o(i.lv_obj_get_style_border_width) for lv_obj_get_style_border_width
    lv_obj_pos.o(i.lv_obj_set_content_height) refers to lv_obj_pos.o(i.lv_obj_set_height) for lv_obj_set_height
    lv_obj_pos.o(i.lv_obj_set_content_width) refers to lv_obj_pos.o(i.lv_obj_get_style_pad_left) for lv_obj_get_style_pad_left
    lv_obj_pos.o(i.lv_obj_set_content_width) refers to lv_obj_pos.o(i.lv_obj_get_style_pad_right) for lv_obj_get_style_pad_right
    lv_obj_pos.o(i.lv_obj_set_content_width) refers to lv_obj_pos.o(i.lv_obj_get_style_border_width) for lv_obj_get_style_border_width
    lv_obj_pos.o(i.lv_obj_set_content_width) refers to lv_obj_pos.o(i.lv_obj_set_width) for lv_obj_set_width
    lv_obj_pos.o(i.lv_obj_set_ext_click_area) refers to lv_obj.o(i.lv_obj_allocate_spec_attr) for lv_obj_allocate_spec_attr
    lv_obj_pos.o(i.lv_obj_set_height) refers to lv_obj_style.o(i.lv_obj_get_local_style_prop) for lv_obj_get_local_style_prop
    lv_obj_pos.o(i.lv_obj_set_height) refers to lv_obj_style_gen.o(i.lv_obj_set_style_height) for lv_obj_set_style_height
    lv_obj_pos.o(i.lv_obj_set_layout) refers to lv_obj_style_gen.o(i.lv_obj_set_style_layout) for lv_obj_set_style_layout
    lv_obj_pos.o(i.lv_obj_set_layout) refers to lv_obj_pos.o(i.lv_obj_mark_layout_as_dirty) for lv_obj_mark_layout_as_dirty
    lv_obj_pos.o(i.lv_obj_set_pos) refers to lv_obj_pos.o(i.lv_obj_set_x) for lv_obj_set_x
    lv_obj_pos.o(i.lv_obj_set_pos) refers to lv_obj_pos.o(i.lv_obj_set_y) for lv_obj_set_y
    lv_obj_pos.o(i.lv_obj_set_size) refers to lv_obj_pos.o(i.lv_obj_set_width) for lv_obj_set_width
    lv_obj_pos.o(i.lv_obj_set_size) refers to lv_obj_pos.o(i.lv_obj_set_height) for lv_obj_set_height
    lv_obj_pos.o(i.lv_obj_set_width) refers to lv_obj_style.o(i.lv_obj_get_local_style_prop) for lv_obj_get_local_style_prop
    lv_obj_pos.o(i.lv_obj_set_width) refers to lv_obj_style_gen.o(i.lv_obj_set_style_width) for lv_obj_set_style_width
    lv_obj_pos.o(i.lv_obj_set_x) refers to lv_obj_style.o(i.lv_obj_get_local_style_prop) for lv_obj_get_local_style_prop
    lv_obj_pos.o(i.lv_obj_set_x) refers to lv_obj_style_gen.o(i.lv_obj_set_style_x) for lv_obj_set_style_x
    lv_obj_pos.o(i.lv_obj_set_y) refers to lv_obj_style.o(i.lv_obj_get_local_style_prop) for lv_obj_get_local_style_prop
    lv_obj_pos.o(i.lv_obj_set_y) refers to lv_obj_style_gen.o(i.lv_obj_set_style_y) for lv_obj_set_style_y
    lv_obj_pos.o(i.lv_obj_update_layout) refers to lv_obj_tree.o(i.lv_obj_get_screen) for lv_obj_get_screen
    lv_obj_pos.o(i.lv_obj_update_layout) refers to lv_obj_pos.o(i.layout_update_core) for layout_update_core
    lv_obj_pos.o(i.lv_obj_update_layout) refers to lv_obj_pos.o(.data) for .data
    lv_obj_scroll.o(i.lv_obj_get_scroll_bottom) refers to lv_obj_tree.o(i.lv_obj_get_child_cnt) for lv_obj_get_child_cnt
    lv_obj_scroll.o(i.lv_obj_get_scroll_bottom) refers to lv_obj.o(i.lv_obj_has_flag_any) for lv_obj_has_flag_any
    lv_obj_scroll.o(i.lv_obj_get_scroll_bottom) refers to lv_obj_scroll.o(i.lv_obj_get_style_pad_top) for lv_obj_get_style_pad_top
    lv_obj_scroll.o(i.lv_obj_get_scroll_bottom) refers to lv_obj_scroll.o(i.lv_obj_get_style_pad_bottom) for lv_obj_get_style_pad_bottom
    lv_obj_scroll.o(i.lv_obj_get_scroll_bottom) refers to lv_obj_scroll.o(i.lv_obj_get_style_border_width) for lv_obj_get_style_border_width
    lv_obj_scroll.o(i.lv_obj_get_scroll_bottom) refers to lv_obj_pos.o(i.lv_obj_get_self_height) for lv_obj_get_self_height
    lv_obj_scroll.o(i.lv_obj_get_scroll_bottom) refers to lv_obj_pos.o(i.lv_obj_get_height) for lv_obj_get_height
    lv_obj_scroll.o(i.lv_obj_get_scroll_bottom) refers to lv_obj_scroll.o(i.lv_obj_get_scroll_y) for lv_obj_get_scroll_y
    lv_obj_scroll.o(i.lv_obj_get_scroll_end) refers to lv_anim.o(i.lv_anim_get) for lv_anim_get
    lv_obj_scroll.o(i.lv_obj_get_scroll_end) refers to lv_obj_scroll.o(i.lv_obj_get_scroll_x) for lv_obj_get_scroll_x
    lv_obj_scroll.o(i.lv_obj_get_scroll_end) refers to lv_obj_scroll.o(i.lv_obj_get_scroll_y) for lv_obj_get_scroll_y
    lv_obj_scroll.o(i.lv_obj_get_scroll_end) refers to lv_obj_scroll.o(i.scroll_x_anim) for scroll_x_anim
    lv_obj_scroll.o(i.lv_obj_get_scroll_end) refers to lv_obj_scroll.o(i.scroll_y_anim) for scroll_y_anim
    lv_obj_scroll.o(i.lv_obj_get_scroll_left) refers to lv_obj_scroll.o(i.lv_obj_get_style_base_dir) for lv_obj_get_style_base_dir
    lv_obj_scroll.o(i.lv_obj_get_scroll_left) refers to lv_obj_scroll.o(i.lv_obj_get_style_pad_right) for lv_obj_get_style_pad_right
    lv_obj_scroll.o(i.lv_obj_get_scroll_left) refers to lv_obj_scroll.o(i.lv_obj_get_style_pad_left) for lv_obj_get_style_pad_left
    lv_obj_scroll.o(i.lv_obj_get_scroll_left) refers to lv_obj_scroll.o(i.lv_obj_get_style_border_width) for lv_obj_get_style_border_width
    lv_obj_scroll.o(i.lv_obj_get_scroll_left) refers to lv_obj_tree.o(i.lv_obj_get_child_cnt) for lv_obj_get_child_cnt
    lv_obj_scroll.o(i.lv_obj_get_scroll_left) refers to lv_obj.o(i.lv_obj_has_flag_any) for lv_obj_has_flag_any
    lv_obj_scroll.o(i.lv_obj_get_scroll_left) refers to lv_obj_pos.o(i.lv_obj_get_self_width) for lv_obj_get_self_width
    lv_obj_scroll.o(i.lv_obj_get_scroll_left) refers to lv_obj_pos.o(i.lv_obj_get_width) for lv_obj_get_width
    lv_obj_scroll.o(i.lv_obj_get_scroll_left) refers to lv_obj_scroll.o(i.lv_obj_get_scroll_x) for lv_obj_get_scroll_x
    lv_obj_scroll.o(i.lv_obj_get_scroll_right) refers to lv_obj_scroll.o(i.lv_obj_get_style_base_dir) for lv_obj_get_style_base_dir
    lv_obj_scroll.o(i.lv_obj_get_scroll_right) refers to lv_obj_tree.o(i.lv_obj_get_child_cnt) for lv_obj_get_child_cnt
    lv_obj_scroll.o(i.lv_obj_get_scroll_right) refers to lv_obj.o(i.lv_obj_has_flag_any) for lv_obj_has_flag_any
    lv_obj_scroll.o(i.lv_obj_get_scroll_right) refers to lv_obj_scroll.o(i.lv_obj_get_style_pad_right) for lv_obj_get_style_pad_right
    lv_obj_scroll.o(i.lv_obj_get_scroll_right) refers to lv_obj_scroll.o(i.lv_obj_get_style_pad_left) for lv_obj_get_style_pad_left
    lv_obj_scroll.o(i.lv_obj_get_scroll_right) refers to lv_obj_scroll.o(i.lv_obj_get_style_border_width) for lv_obj_get_style_border_width
    lv_obj_scroll.o(i.lv_obj_get_scroll_right) refers to lv_obj_pos.o(i.lv_obj_get_self_width) for lv_obj_get_self_width
    lv_obj_scroll.o(i.lv_obj_get_scroll_right) refers to lv_obj_pos.o(i.lv_obj_get_width) for lv_obj_get_width
    lv_obj_scroll.o(i.lv_obj_get_scroll_right) refers to lv_obj_scroll.o(i.lv_obj_get_scroll_x) for lv_obj_get_scroll_x
    lv_obj_scroll.o(i.lv_obj_get_scrollbar_area) refers to lv_area.o(i.lv_area_set) for lv_area_set
    lv_obj_scroll.o(i.lv_obj_get_scrollbar_area) refers to lv_obj.o(i.lv_obj_has_flag) for lv_obj_has_flag
    lv_obj_scroll.o(i.lv_obj_get_scrollbar_area) refers to lv_obj_scroll.o(i.lv_obj_get_scrollbar_mode) for lv_obj_get_scrollbar_mode
    lv_obj_scroll.o(i.lv_obj_get_scrollbar_area) refers to lv_hal_indev.o(i.lv_indev_get_next) for lv_indev_get_next
    lv_obj_scroll.o(i.lv_obj_get_scrollbar_area) refers to lv_indev.o(i.lv_indev_get_scroll_obj) for lv_indev_get_scroll_obj
    lv_obj_scroll.o(i.lv_obj_get_scrollbar_area) refers to lv_obj_scroll.o(i.lv_obj_get_scroll_top) for lv_obj_get_scroll_top
    lv_obj_scroll.o(i.lv_obj_get_scrollbar_area) refers to lv_obj_scroll.o(i.lv_obj_get_scroll_bottom) for lv_obj_get_scroll_bottom
    lv_obj_scroll.o(i.lv_obj_get_scrollbar_area) refers to lv_obj_scroll.o(i.lv_obj_get_scroll_left) for lv_obj_get_scroll_left
    lv_obj_scroll.o(i.lv_obj_get_scrollbar_area) refers to lv_obj_scroll.o(i.lv_obj_get_scroll_right) for lv_obj_get_scroll_right
    lv_obj_scroll.o(i.lv_obj_get_scrollbar_area) refers to lv_obj_scroll.o(i.lv_obj_get_scroll_dir) for lv_obj_get_scroll_dir
    lv_obj_scroll.o(i.lv_obj_get_scrollbar_area) refers to lv_indev.o(i.lv_indev_get_scroll_dir) for lv_indev_get_scroll_dir
    lv_obj_scroll.o(i.lv_obj_get_scrollbar_area) refers to lv_obj_scroll.o(i.lv_obj_get_style_base_dir) for lv_obj_get_style_base_dir
    lv_obj_scroll.o(i.lv_obj_get_scrollbar_area) refers to lv_obj_scroll.o(i.lv_obj_get_style_pad_top) for lv_obj_get_style_pad_top
    lv_obj_scroll.o(i.lv_obj_get_scrollbar_area) refers to lv_obj_scroll.o(i.lv_obj_get_style_pad_bottom) for lv_obj_get_style_pad_bottom
    lv_obj_scroll.o(i.lv_obj_get_scrollbar_area) refers to lv_obj_scroll.o(i.lv_obj_get_style_pad_left) for lv_obj_get_style_pad_left
    lv_obj_scroll.o(i.lv_obj_get_scrollbar_area) refers to lv_obj_scroll.o(i.lv_obj_get_style_pad_right) for lv_obj_get_style_pad_right
    lv_obj_scroll.o(i.lv_obj_get_scrollbar_area) refers to lv_obj_style.o(i.lv_obj_get_style_prop) for lv_obj_get_style_prop
    lv_obj_scroll.o(i.lv_obj_get_scrollbar_area) refers to lv_obj_pos.o(i.lv_obj_get_height) for lv_obj_get_height
    lv_obj_scroll.o(i.lv_obj_get_scrollbar_area) refers to lv_obj_pos.o(i.lv_obj_get_width) for lv_obj_get_width
    lv_obj_scroll.o(i.lv_obj_get_scrollbar_area) refers to lv_hal_disp.o(i.lv_disp_get_dpi) for lv_disp_get_dpi
    lv_obj_scroll.o(i.lv_obj_get_style_base_dir) refers to lv_obj_style.o(i.lv_obj_get_style_prop) for lv_obj_get_style_prop
    lv_obj_scroll.o(i.lv_obj_get_style_border_width) refers to lv_obj_style.o(i.lv_obj_get_style_prop) for lv_obj_get_style_prop
    lv_obj_scroll.o(i.lv_obj_get_style_pad_bottom) refers to lv_obj_style.o(i.lv_obj_get_style_prop) for lv_obj_get_style_prop
    lv_obj_scroll.o(i.lv_obj_get_style_pad_left) refers to lv_obj_style.o(i.lv_obj_get_style_prop) for lv_obj_get_style_prop
    lv_obj_scroll.o(i.lv_obj_get_style_pad_right) refers to lv_obj_style.o(i.lv_obj_get_style_prop) for lv_obj_get_style_prop
    lv_obj_scroll.o(i.lv_obj_get_style_pad_top) refers to lv_obj_style.o(i.lv_obj_get_style_prop) for lv_obj_get_style_prop
    lv_obj_scroll.o(i.lv_obj_is_scrolling) refers to lv_indev.o(i.lv_indev_get_scroll_obj) for lv_indev_get_scroll_obj
    lv_obj_scroll.o(i.lv_obj_is_scrolling) refers to lv_hal_indev.o(i.lv_indev_get_next) for lv_indev_get_next
    lv_obj_scroll.o(i.lv_obj_readjust_scroll) refers to lv_obj_scroll.o(i.lv_obj_get_scroll_snap_y) for lv_obj_get_scroll_snap_y
    lv_obj_scroll.o(i.lv_obj_readjust_scroll) refers to lv_obj_scroll.o(i.lv_obj_get_scroll_top) for lv_obj_get_scroll_top
    lv_obj_scroll.o(i.lv_obj_readjust_scroll) refers to lv_obj_scroll.o(i.lv_obj_get_scroll_bottom) for lv_obj_get_scroll_bottom
    lv_obj_scroll.o(i.lv_obj_readjust_scroll) refers to lv_obj_scroll.o(i.lv_obj_scroll_by) for lv_obj_scroll_by
    lv_obj_scroll.o(i.lv_obj_readjust_scroll) refers to lv_obj_scroll.o(i.lv_obj_get_scroll_snap_x) for lv_obj_get_scroll_snap_x
    lv_obj_scroll.o(i.lv_obj_readjust_scroll) refers to lv_obj_scroll.o(i.lv_obj_get_scroll_left) for lv_obj_get_scroll_left
    lv_obj_scroll.o(i.lv_obj_readjust_scroll) refers to lv_obj_scroll.o(i.lv_obj_get_scroll_right) for lv_obj_get_scroll_right
    lv_obj_scroll.o(i.lv_obj_readjust_scroll) refers to lv_obj_scroll.o(i.lv_obj_get_style_base_dir) for lv_obj_get_style_base_dir
    lv_obj_scroll.o(i.lv_obj_scroll_by) refers to lv_anim.o(i.lv_anim_del) for lv_anim_del
    lv_obj_scroll.o(i.lv_obj_scroll_by) refers to lv_obj_scroll.o(i.scroll_by_raw) for scroll_by_raw
    lv_obj_scroll.o(i.lv_obj_scroll_by) refers to lv_event.o(i.lv_event_send) for lv_event_send
    lv_obj_scroll.o(i.lv_obj_scroll_by) refers to lv_obj_tree.o(i.lv_obj_get_disp) for lv_obj_get_disp
    lv_obj_scroll.o(i.lv_obj_scroll_by) refers to lv_anim.o(i.lv_anim_init) for lv_anim_init
    lv_obj_scroll.o(i.lv_obj_scroll_by) refers to lv_hal_disp.o(i.lv_disp_get_hor_res) for lv_disp_get_hor_res
    lv_obj_scroll.o(i.lv_obj_scroll_by) refers to lv_anim.o(i.lv_anim_speed_to_time) for lv_anim_speed_to_time
    lv_obj_scroll.o(i.lv_obj_scroll_by) refers to lv_obj_scroll.o(i.lv_obj_get_scroll_x) for lv_obj_get_scroll_x
    lv_obj_scroll.o(i.lv_obj_scroll_by) refers to lv_anim.o(i.lv_anim_start) for lv_anim_start
    lv_obj_scroll.o(i.lv_obj_scroll_by) refers to lv_hal_disp.o(i.lv_disp_get_ver_res) for lv_disp_get_ver_res
    lv_obj_scroll.o(i.lv_obj_scroll_by) refers to lv_obj_scroll.o(i.lv_obj_get_scroll_y) for lv_obj_get_scroll_y
    lv_obj_scroll.o(i.lv_obj_scroll_by) refers to lv_obj_scroll.o(i.scroll_y_anim) for scroll_y_anim
    lv_obj_scroll.o(i.lv_obj_scroll_by) refers to lv_obj_scroll.o(i.scroll_x_anim) for scroll_x_anim
    lv_obj_scroll.o(i.lv_obj_scroll_by) refers to lv_obj_scroll.o(i.scroll_anim_ready_cb) for scroll_anim_ready_cb
    lv_obj_scroll.o(i.lv_obj_scroll_by) refers to lv_anim.o(i.lv_anim_path_ease_out) for lv_anim_path_ease_out
    lv_obj_scroll.o(i.lv_obj_scroll_by_bounded) refers to lv_obj_pos.o(i.lv_obj_update_layout) for lv_obj_update_layout
    lv_obj_scroll.o(i.lv_obj_scroll_by_bounded) refers to lv_obj_scroll.o(i.lv_obj_get_scroll_x) for lv_obj_get_scroll_x
    lv_obj_scroll.o(i.lv_obj_scroll_by_bounded) refers to lv_obj_scroll.o(i.lv_obj_get_style_base_dir) for lv_obj_get_style_base_dir
    lv_obj_scroll.o(i.lv_obj_scroll_by_bounded) refers to lv_obj_scroll.o(i.lv_obj_get_scroll_left) for lv_obj_get_scroll_left
    lv_obj_scroll.o(i.lv_obj_scroll_by_bounded) refers to lv_obj_scroll.o(i.lv_obj_get_scroll_right) for lv_obj_get_scroll_right
    lv_obj_scroll.o(i.lv_obj_scroll_by_bounded) refers to lv_obj_scroll.o(i.lv_obj_get_scroll_y) for lv_obj_get_scroll_y
    lv_obj_scroll.o(i.lv_obj_scroll_by_bounded) refers to lv_obj_scroll.o(i.lv_obj_get_scroll_top) for lv_obj_get_scroll_top
    lv_obj_scroll.o(i.lv_obj_scroll_by_bounded) refers to lv_obj_scroll.o(i.lv_obj_get_scroll_bottom) for lv_obj_get_scroll_bottom
    lv_obj_scroll.o(i.lv_obj_scroll_by_bounded) refers to lv_obj_scroll.o(i.lv_obj_scroll_by) for lv_obj_scroll_by
    lv_obj_scroll.o(i.lv_obj_scroll_to) refers to lv_obj_scroll.o(i.lv_obj_scroll_to_x) for lv_obj_scroll_to_x
    lv_obj_scroll.o(i.lv_obj_scroll_to) refers to lv_obj_scroll.o(i.lv_obj_scroll_to_y) for lv_obj_scroll_to_y
    lv_obj_scroll.o(i.lv_obj_scroll_to_view) refers to lv_obj_pos.o(i.lv_obj_update_layout) for lv_obj_update_layout
    lv_obj_scroll.o(i.lv_obj_scroll_to_view) refers to lv_obj_scroll.o(i.scroll_area_into_view) for scroll_area_into_view
    lv_obj_scroll.o(i.lv_obj_scroll_to_view_recursive) refers to lv_obj_pos.o(i.lv_obj_update_layout) for lv_obj_update_layout
    lv_obj_scroll.o(i.lv_obj_scroll_to_view_recursive) refers to lv_obj_tree.o(i.lv_obj_get_parent) for lv_obj_get_parent
    lv_obj_scroll.o(i.lv_obj_scroll_to_view_recursive) refers to lv_obj_scroll.o(i.scroll_area_into_view) for scroll_area_into_view
    lv_obj_scroll.o(i.lv_obj_scroll_to_x) refers to lv_anim.o(i.lv_anim_del) for lv_anim_del
    lv_obj_scroll.o(i.lv_obj_scroll_to_x) refers to lv_obj_scroll.o(i.lv_obj_get_scroll_x) for lv_obj_get_scroll_x
    lv_obj_scroll.o(i.lv_obj_scroll_to_x) refers to lv_obj_scroll.o(i.lv_obj_scroll_by_bounded) for lv_obj_scroll_by_bounded
    lv_obj_scroll.o(i.lv_obj_scroll_to_x) refers to lv_obj_scroll.o(i.scroll_x_anim) for scroll_x_anim
